
/home/rookiemaster/ics2023/am-kernels/tests/cpu-tests/build/hello-str-riscv32-nemu.elf:     file format elf32-littleriscv


Disassembly of section .text:

80000000 <_start>:
80000000:	00000413          	li	s0,0
80000004:	00009117          	auipc	sp,0x9
80000008:	ffc10113          	addi	sp,sp,-4 # 80009000 <_end>
8000000c:	100000ef          	jal	ra,8000010c <_trm_init>

80000010 <check>:
80000010:	00050463          	beqz	a0,80000018 <check+0x8>
80000014:	00008067          	ret
80000018:	ff010113          	addi	sp,sp,-16
8000001c:	00100513          	li	a0,1
80000020:	00112623          	sw	ra,12(sp)
80000024:	0dc000ef          	jal	ra,80000100 <halt>

80000028 <main>:
80000028:	ff010113          	addi	sp,sp,-16
8000002c:	00000517          	auipc	a0,0x0
80000030:	56850513          	addi	a0,a0,1384 # 80000594 <_etext>
80000034:	00112623          	sw	ra,12(sp)
80000038:	00812423          	sw	s0,8(sp)
8000003c:	214000ef          	jal	ra,80000250 <print_str>
80000040:	00000417          	auipc	s0,0x0
80000044:	5b840413          	addi	s0,s0,1464 # 800005f8 <buf>
80000048:	00000617          	auipc	a2,0x0
8000004c:	55c60613          	addi	a2,a2,1372 # 800005a4 <_etext+0x10>
80000050:	00000597          	auipc	a1,0x0
80000054:	56458593          	addi	a1,a1,1380 # 800005b4 <_etext+0x20>
80000058:	00040513          	mv	a0,s0
8000005c:	39c000ef          	jal	ra,800003f8 <sprintf>
80000060:	00000597          	auipc	a1,0x0
80000064:	54458593          	addi	a1,a1,1348 # 800005a4 <_etext+0x10>
80000068:	00040513          	mv	a0,s0
8000006c:	4e0000ef          	jal	ra,8000054c <strcmp>
80000070:	00153513          	seqz	a0,a0
80000074:	f9dff0ef          	jal	ra,80000010 <check>
80000078:	00200713          	li	a4,2
8000007c:	00100693          	li	a3,1
80000080:	00100613          	li	a2,1
80000084:	00000597          	auipc	a1,0x0
80000088:	53458593          	addi	a1,a1,1332 # 800005b8 <_etext+0x24>
8000008c:	00040513          	mv	a0,s0
80000090:	368000ef          	jal	ra,800003f8 <sprintf>
80000094:	00000597          	auipc	a1,0x0
80000098:	53458593          	addi	a1,a1,1332 # 800005c8 <_etext+0x34>
8000009c:	00040513          	mv	a0,s0
800000a0:	4ac000ef          	jal	ra,8000054c <strcmp>
800000a4:	00153513          	seqz	a0,a0
800000a8:	f69ff0ef          	jal	ra,80000010 <check>
800000ac:	00c00713          	li	a4,12
800000b0:	00a00693          	li	a3,10
800000b4:	00200613          	li	a2,2
800000b8:	00000597          	auipc	a1,0x0
800000bc:	50058593          	addi	a1,a1,1280 # 800005b8 <_etext+0x24>
800000c0:	00040513          	mv	a0,s0
800000c4:	334000ef          	jal	ra,800003f8 <sprintf>
800000c8:	00000597          	auipc	a1,0x0
800000cc:	50c58593          	addi	a1,a1,1292 # 800005d4 <_etext+0x40>
800000d0:	00040513          	mv	a0,s0
800000d4:	478000ef          	jal	ra,8000054c <strcmp>
800000d8:	00153513          	seqz	a0,a0
800000dc:	f35ff0ef          	jal	ra,80000010 <check>
800000e0:	00c12083          	lw	ra,12(sp)
800000e4:	00812403          	lw	s0,8(sp)
800000e8:	00000513          	li	a0,0
800000ec:	01010113          	addi	sp,sp,16
800000f0:	00008067          	ret

800000f4 <putch>:
800000f4:	a00007b7          	lui	a5,0xa0000
800000f8:	3ea78c23          	sb	a0,1016(a5) # a00003f8 <_end+0x1fff73f8>
800000fc:	00008067          	ret

80000100 <halt>:
80000100:	00050513          	mv	a0,a0
80000104:	00100073          	ebreak
80000108:	0000006f          	j	80000108 <halt+0x8>

8000010c <_trm_init>:
8000010c:	ff010113          	addi	sp,sp,-16
80000110:	00000517          	auipc	a0,0x0
80000114:	4e450513          	addi	a0,a0,1252 # 800005f4 <mainargs>
80000118:	00112623          	sw	ra,12(sp)
8000011c:	f0dff0ef          	jal	ra,80000028 <main>
80000120:	00050513          	mv	a0,a0
80000124:	00100073          	ebreak
80000128:	0000006f          	j	80000128 <_trm_init+0x1c>

8000012c <append_int>:
8000012c:	ff010113          	addi	sp,sp,-16
80000130:	00812623          	sw	s0,12(sp)
80000134:	01010413          	addi	s0,sp,16
80000138:	0a05ce63          	bltz	a1,800001f4 <append_int+0xc8>
8000013c:	00900793          	li	a5,9
80000140:	0cb7de63          	bge	a5,a1,8000021c <append_int+0xf0>
80000144:	00100713          	li	a4,1
80000148:	00a00793          	li	a5,10
8000014c:	00279693          	slli	a3,a5,0x2
80000150:	00f687b3          	add	a5,a3,a5
80000154:	00179793          	slli	a5,a5,0x1
80000158:	00070e93          	mv	t4,a4
8000015c:	00170713          	addi	a4,a4,1
80000160:	fef5d6e3          	bge	a1,a5,8000014c <append_int+0x20>
80000164:	00271793          	slli	a5,a4,0x2
80000168:	00f78793          	addi	a5,a5,15
8000016c:	ff07f793          	andi	a5,a5,-16
80000170:	40f10133          	sub	sp,sp,a5
80000174:	00010813          	mv	a6,sp
80000178:	00080313          	mv	t1,a6
8000017c:	00000893          	li	a7,0
80000180:	00100793          	li	a5,1
80000184:	00a00f13          	li	t5,10
80000188:	02f5c6b3          	div	a3,a1,a5
8000018c:	00279e13          	slli	t3,a5,0x2
80000190:	00430313          	addi	t1,t1,4
80000194:	00fe07b3          	add	a5,t3,a5
80000198:	00188893          	addi	a7,a7,1
8000019c:	00179793          	slli	a5,a5,0x1
800001a0:	03e6e6b3          	rem	a3,a3,t5
800001a4:	fed32e23          	sw	a3,-4(t1)
800001a8:	fee890e3          	bne	a7,a4,80000188 <append_int+0x5c>
800001ac:	00160693          	addi	a3,a2,1
800001b0:	002e9793          	slli	a5,t4,0x2
800001b4:	00a686b3          	add	a3,a3,a0
800001b8:	00f80733          	add	a4,a6,a5
800001bc:	00a60633          	add	a2,a2,a0
800001c0:	01d686b3          	add	a3,a3,t4
800001c4:	00072783          	lw	a5,0(a4)
800001c8:	00160613          	addi	a2,a2,1
800001cc:	ffc70713          	addi	a4,a4,-4
800001d0:	03078793          	addi	a5,a5,48
800001d4:	fef60fa3          	sb	a5,-1(a2)
800001d8:	fed616e3          	bne	a2,a3,800001c4 <append_int+0x98>
800001dc:	00150513          	addi	a0,a0,1
800001e0:	ff040113          	addi	sp,s0,-16
800001e4:	00c12403          	lw	s0,12(sp)
800001e8:	01d50533          	add	a0,a0,t4
800001ec:	01010113          	addi	sp,sp,16
800001f0:	00008067          	ret
800001f4:	80000737          	lui	a4,0x80000
800001f8:	00a606b3          	add	a3,a2,a0
800001fc:	00150793          	addi	a5,a0,1
80000200:	02e58663          	beq	a1,a4,8000022c <append_int+0x100>
80000204:	02d00713          	li	a4,45
80000208:	00078513          	mv	a0,a5
8000020c:	00e68023          	sb	a4,0(a3)
80000210:	40b005b3          	neg	a1,a1
80000214:	00900793          	li	a5,9
80000218:	f2b7c6e3          	blt	a5,a1,80000144 <append_int+0x18>
8000021c:	00400793          	li	a5,4
80000220:	00000e93          	li	t4,0
80000224:	00100713          	li	a4,1
80000228:	f41ff06f          	j	80000168 <append_int+0x3c>
8000022c:	02d00713          	li	a4,45
80000230:	00e68023          	sb	a4,0(a3)
80000234:	00f607b3          	add	a5,a2,a5
80000238:	03200713          	li	a4,50
8000023c:	08ca75b7          	lui	a1,0x8ca7
80000240:	00250513          	addi	a0,a0,2
80000244:	00e78023          	sb	a4,0(a5)
80000248:	c0058593          	addi	a1,a1,-1024 # 8ca6c00 <_entry_offset+0x8ca6c00>
8000024c:	ef9ff06f          	j	80000144 <append_int+0x18>

80000250 <print_str>:
80000250:	ff010113          	addi	sp,sp,-16
80000254:	00812423          	sw	s0,8(sp)
80000258:	00112623          	sw	ra,12(sp)
8000025c:	00050413          	mv	s0,a0
80000260:	00054503          	lbu	a0,0(a0)
80000264:	00050c63          	beqz	a0,8000027c <print_str+0x2c>
80000268:	00140413          	addi	s0,s0,1
8000026c:	00140413          	addi	s0,s0,1
80000270:	e85ff0ef          	jal	ra,800000f4 <putch>
80000274:	fff44503          	lbu	a0,-1(s0)
80000278:	fe051ae3          	bnez	a0,8000026c <print_str+0x1c>
8000027c:	00c12083          	lw	ra,12(sp)
80000280:	00812403          	lw	s0,8(sp)
80000284:	01010113          	addi	sp,sp,16
80000288:	00008067          	ret

8000028c <printf>:
8000028c:	f3010113          	addi	sp,sp,-208
80000290:	0a812423          	sw	s0,168(sp)
80000294:	00050413          	mv	s0,a0
80000298:	05900513          	li	a0,89
8000029c:	0a912223          	sw	s1,164(sp)
800002a0:	0ce12023          	sw	a4,192(sp)
800002a4:	0cf12223          	sw	a5,196(sp)
800002a8:	0a112623          	sw	ra,172(sp)
800002ac:	0b212023          	sw	s2,160(sp)
800002b0:	09312e23          	sw	s3,156(sp)
800002b4:	09412c23          	sw	s4,152(sp)
800002b8:	09512a23          	sw	s5,148(sp)
800002bc:	0ab12a23          	sw	a1,180(sp)
800002c0:	0ac12c23          	sw	a2,184(sp)
800002c4:	0ad12e23          	sw	a3,188(sp)
800002c8:	0d012423          	sw	a6,200(sp)
800002cc:	0d112623          	sw	a7,204(sp)
800002d0:	e25ff0ef          	jal	ra,800000f4 <putch>
800002d4:	00044783          	lbu	a5,0(s0)
800002d8:	0b410713          	addi	a4,sp,180
800002dc:	00e12623          	sw	a4,12(sp)
800002e0:	00000493          	li	s1,0
800002e4:	04078063          	beqz	a5,80000324 <printf+0x98>
800002e8:	00140713          	addi	a4,s0,1
800002ec:	02500993          	li	s3,37
800002f0:	06400a93          	li	s5,100
800002f4:	07300a13          	li	s4,115
800002f8:	00000917          	auipc	s2,0x0
800002fc:	2ec90913          	addi	s2,s2,748 # 800005e4 <_etext+0x50>
80000300:	07378a63          	beq	a5,s3,80000374 <printf+0xe8>
80000304:	09048693          	addi	a3,s1,144
80000308:	002686b3          	add	a3,a3,sp
8000030c:	f8f68023          	sb	a5,-128(a3)
80000310:	00148493          	addi	s1,s1,1
80000314:	00070413          	mv	s0,a4
80000318:	00044783          	lbu	a5,0(s0)
8000031c:	00140713          	addi	a4,s0,1
80000320:	fe0790e3          	bnez	a5,80000300 <printf+0x74>
80000324:	09048793          	addi	a5,s1,144
80000328:	002784b3          	add	s1,a5,sp
8000032c:	f8048023          	sb	zero,-128(s1)
80000330:	01014503          	lbu	a0,16(sp)
80000334:	00050c63          	beqz	a0,8000034c <printf+0xc0>
80000338:	01110413          	addi	s0,sp,17
8000033c:	00140413          	addi	s0,s0,1
80000340:	db5ff0ef          	jal	ra,800000f4 <putch>
80000344:	fff44503          	lbu	a0,-1(s0)
80000348:	fe051ae3          	bnez	a0,8000033c <printf+0xb0>
8000034c:	0ac12083          	lw	ra,172(sp)
80000350:	0a812403          	lw	s0,168(sp)
80000354:	0a412483          	lw	s1,164(sp)
80000358:	0a012903          	lw	s2,160(sp)
8000035c:	09c12983          	lw	s3,156(sp)
80000360:	09812a03          	lw	s4,152(sp)
80000364:	09412a83          	lw	s5,148(sp)
80000368:	00000513          	li	a0,0
8000036c:	0d010113          	addi	sp,sp,208
80000370:	00008067          	ret
80000374:	00144783          	lbu	a5,1(s0)
80000378:	00240413          	addi	s0,s0,2
8000037c:	05578663          	beq	a5,s5,800003c8 <printf+0x13c>
80000380:	07479663          	bne	a5,s4,800003ec <printf+0x160>
80000384:	00c12783          	lw	a5,12(sp)
80000388:	0007a583          	lw	a1,0(a5)
8000038c:	00478793          	addi	a5,a5,4
80000390:	00f12623          	sw	a5,12(sp)
80000394:	0005c683          	lbu	a3,0(a1)
80000398:	f80680e3          	beqz	a3,80000318 <printf+0x8c>
8000039c:	00048793          	mv	a5,s1
800003a0:	00178793          	addi	a5,a5,1
800003a4:	01010713          	addi	a4,sp,16
800003a8:	00f70633          	add	a2,a4,a5
800003ac:	40978733          	sub	a4,a5,s1
800003b0:	fed60fa3          	sb	a3,-1(a2)
800003b4:	00e58733          	add	a4,a1,a4
800003b8:	00074683          	lbu	a3,0(a4) # 80000000 <_end+0xffff7000>
800003bc:	fe0692e3          	bnez	a3,800003a0 <printf+0x114>
800003c0:	00078493          	mv	s1,a5
800003c4:	f55ff06f          	j	80000318 <printf+0x8c>
800003c8:	00c12783          	lw	a5,12(sp)
800003cc:	00048513          	mv	a0,s1
800003d0:	01010613          	addi	a2,sp,16
800003d4:	0007a583          	lw	a1,0(a5)
800003d8:	00478793          	addi	a5,a5,4
800003dc:	00f12623          	sw	a5,12(sp)
800003e0:	d4dff0ef          	jal	ra,8000012c <append_int>
800003e4:	00050493          	mv	s1,a0
800003e8:	f31ff06f          	j	80000318 <printf+0x8c>
800003ec:	00090513          	mv	a0,s2
800003f0:	e9dff0ef          	jal	ra,8000028c <printf>
800003f4:	f25ff06f          	j	80000318 <printf+0x8c>

800003f8 <sprintf>:
800003f8:	fb010113          	addi	sp,sp,-80
800003fc:	01512a23          	sw	s5,20(sp)
80000400:	04e12023          	sw	a4,64(sp)
80000404:	02112623          	sw	ra,44(sp)
80000408:	02812423          	sw	s0,40(sp)
8000040c:	02912223          	sw	s1,36(sp)
80000410:	03212023          	sw	s2,32(sp)
80000414:	01312e23          	sw	s3,28(sp)
80000418:	01412c23          	sw	s4,24(sp)
8000041c:	01612823          	sw	s6,16(sp)
80000420:	02c12c23          	sw	a2,56(sp)
80000424:	02d12e23          	sw	a3,60(sp)
80000428:	04f12223          	sw	a5,68(sp)
8000042c:	05012423          	sw	a6,72(sp)
80000430:	05112623          	sw	a7,76(sp)
80000434:	0005c783          	lbu	a5,0(a1)
80000438:	03810713          	addi	a4,sp,56
8000043c:	00e12623          	sw	a4,12(sp)
80000440:	00050a93          	mv	s5,a0
80000444:	04078263          	beqz	a5,80000488 <sprintf+0x90>
80000448:	00158713          	addi	a4,a1,1
8000044c:	00000493          	li	s1,0
80000450:	02500b13          	li	s6,37
80000454:	06400993          	li	s3,100
80000458:	07300913          	li	s2,115
8000045c:	00000a17          	auipc	s4,0x0
80000460:	188a0a13          	addi	s4,s4,392 # 800005e4 <_etext+0x50>
80000464:	05678a63          	beq	a5,s6,800004b8 <sprintf+0xc0>
80000468:	009a86b3          	add	a3,s5,s1
8000046c:	00f68023          	sb	a5,0(a3)
80000470:	00148493          	addi	s1,s1,1
80000474:	00070593          	mv	a1,a4
80000478:	0005c783          	lbu	a5,0(a1)
8000047c:	00158713          	addi	a4,a1,1
80000480:	fe0792e3          	bnez	a5,80000464 <sprintf+0x6c>
80000484:	009a8ab3          	add	s5,s5,s1
80000488:	000a8023          	sb	zero,0(s5)
8000048c:	02c12083          	lw	ra,44(sp)
80000490:	02812403          	lw	s0,40(sp)
80000494:	02412483          	lw	s1,36(sp)
80000498:	02012903          	lw	s2,32(sp)
8000049c:	01c12983          	lw	s3,28(sp)
800004a0:	01812a03          	lw	s4,24(sp)
800004a4:	01412a83          	lw	s5,20(sp)
800004a8:	01012b03          	lw	s6,16(sp)
800004ac:	00000513          	li	a0,0
800004b0:	05010113          	addi	sp,sp,80
800004b4:	00008067          	ret
800004b8:	0015c783          	lbu	a5,1(a1)
800004bc:	00258413          	addi	s0,a1,2
800004c0:	05378e63          	beq	a5,s3,8000051c <sprintf+0x124>
800004c4:	05279463          	bne	a5,s2,8000050c <sprintf+0x114>
800004c8:	00c12783          	lw	a5,12(sp)
800004cc:	0007a583          	lw	a1,0(a5)
800004d0:	00478793          	addi	a5,a5,4
800004d4:	00f12623          	sw	a5,12(sp)
800004d8:	0005c683          	lbu	a3,0(a1)
800004dc:	06068463          	beqz	a3,80000544 <sprintf+0x14c>
800004e0:	00048793          	mv	a5,s1
800004e4:	00178793          	addi	a5,a5,1
800004e8:	00fa8633          	add	a2,s5,a5
800004ec:	40978733          	sub	a4,a5,s1
800004f0:	fed60fa3          	sb	a3,-1(a2)
800004f4:	00e58733          	add	a4,a1,a4
800004f8:	00074683          	lbu	a3,0(a4)
800004fc:	fe0694e3          	bnez	a3,800004e4 <sprintf+0xec>
80000500:	00078493          	mv	s1,a5
80000504:	00040593          	mv	a1,s0
80000508:	f71ff06f          	j	80000478 <sprintf+0x80>
8000050c:	000a0513          	mv	a0,s4
80000510:	d7dff0ef          	jal	ra,8000028c <printf>
80000514:	00040593          	mv	a1,s0
80000518:	f61ff06f          	j	80000478 <sprintf+0x80>
8000051c:	00c12783          	lw	a5,12(sp)
80000520:	00048513          	mv	a0,s1
80000524:	000a8613          	mv	a2,s5
80000528:	0007a583          	lw	a1,0(a5)
8000052c:	00478793          	addi	a5,a5,4
80000530:	00f12623          	sw	a5,12(sp)
80000534:	bf9ff0ef          	jal	ra,8000012c <append_int>
80000538:	00050493          	mv	s1,a0
8000053c:	00040593          	mv	a1,s0
80000540:	f39ff06f          	j	80000478 <sprintf+0x80>
80000544:	00040593          	mv	a1,s0
80000548:	f31ff06f          	j	80000478 <sprintf+0x80>

8000054c <strcmp>:
8000054c:	00054783          	lbu	a5,0(a0)
80000550:	00050713          	mv	a4,a0
80000554:	00079c63          	bnez	a5,8000056c <strcmp+0x20>
80000558:	0340006f          	j	8000058c <strcmp+0x40>
8000055c:	02d7c463          	blt	a5,a3,80000584 <strcmp+0x38>
80000560:	00158593          	addi	a1,a1,1
80000564:	02078263          	beqz	a5,80000588 <strcmp+0x3c>
80000568:	00074783          	lbu	a5,0(a4)
8000056c:	0005c683          	lbu	a3,0(a1)
80000570:	00078513          	mv	a0,a5
80000574:	00170713          	addi	a4,a4,1
80000578:	fef6d2e3          	bge	a3,a5,8000055c <strcmp+0x10>
8000057c:	00100513          	li	a0,1
80000580:	00008067          	ret
80000584:	fff00513          	li	a0,-1
80000588:	00008067          	ret
8000058c:	00000513          	li	a0,0
80000590:	00008067          	ret
