[1;34m[src/utils/log.c:30 init_log] Log is written to /home/rookiemaster/ics2023/am-kernels/tests/cpu-tests/build/nemu-log.txt[0m
[1;34m[src/memory/paddr.c:53 init_mem] physical memory area [0x80000000, 0x87ffffff][0m
[1;34m[src/device/io/mmio.c:50 add_mmio_map] Add mmio map 'serial' at [0xa00003f8, 0xa00003ff][0m
[1;34m[src/device/io/mmio.c:50 add_mmio_map] Add mmio map 'rtc' at [0xa0000048, 0xa000004f][0m
[1;34m[src/device/io/mmio.c:50 add_mmio_map] Add mmio map 'vgactl' at [0xa0000100, 0xa0000107][0m
[1;34m[src/device/io/mmio.c:50 add_mmio_map] Add mmio map 'vmem' at [0xa1000000, 0xa10752ff][0m
[1;34m[src/device/io/mmio.c:50 add_mmio_map] Add mmio map 'keyboard' at [0xa0000060, 0xa0000063][0m
[1;34m[src/device/io/mmio.c:50 add_mmio_map] Add mmio map 'audio' at [0xa0000200, 0xa0000217][0m
[1;34m[src/device/io/mmio.c:50 add_mmio_map] Add mmio map 'audio-sbuf' at [0xa1200000, 0xa120ffff][0m
[1;34m[src/monitor/monitor.c:64 load_img] The image is /home/rookiemaster/ics2023/am-kernels/tests/cpu-tests/build/alu_test-riscv32-nemu.bin, size = 966433[0m
[1;34m[src/monitor/monitor.c:29 welcome] Trace: [1;32mON[0m[0m
[1;34m[src/monitor/monitor.c:30 welcome] If trace is enabled, a log file will be generated to record the trace. This may lead to a large log file. If it is not necessary, you can disable it in menuconfig[0m
[1;34m[src/monitor/monitor.c:33 welcome] Build time: 16:48:03, Apr 21 2024[0m
[1;34m[src/monitor/monitor.c:36 welcome] Exercise: Please remove me in the source code and compile NEMU again.[0m
0x80000000: 00 00 04 13 addi	s0, zero, 0
0x80000004: 00 0f 41 17 auipc	sp, 244
0x80000008: ff c1 01 13 addi	sp, sp, -4
0x8000000c: 32 1e b0 ef jal	ra, 0x800ebb2c
0x800ebb2c: ff 01 01 13 addi	sp, sp, -16
0x800ebb30: 00 00 05 17 auipc	a0, 0
0x800ebb34: 3f 05 05 13 addi	a0, a0, 1008
0x800ebb38: 00 11 26 23 sw	ra, 12(sp)
0x800ebb3c: cd 41 40 ef jal	ra, 0x80000010
0x80000010: e5 01 01 13 addi	sp, sp, -432
0x80000014: ff ff b2 b7 lui	t0, 1048571
0x80000018: 1a 11 26 23 sw	ra, 428(sp)
0x8000001c: 00 0e c5 17 auipc	a0, 236
0x80000020: e1 45 05 13 addi	a0, a0, -492
0x80000024: 00 51 01 33 add	sp, sp, t0
0x80000028: 44 9e b0 ef jal	ra, 0x800ebc70
0x800ebc70: ff 01 01 13 addi	sp, sp, -16
0x800ebc74: 00 81 24 23 sw	s0, 8(sp)
0x800ebc78: 00 11 26 23 sw	ra, 12(sp)
0x800ebc7c: 00 05 04 13 addi	s0, a0, 0
0x800ebc80: 00 05 45 03 lbu	a0, 0(a0)
0x800ebc84: 00 05 0c 63 beq	a0, zero, 0x800ebc9c
0x800ebc88: 00 14 04 13 addi	s0, s0, 1
0x800ebc8c: 00 14 04 13 addi	s0, s0, 1
0x800ebc90: e9 1f f0 ef jal	ra, 0x800ebb20
0x800ebb20: a0 00 07 b7 lui	a5, 655360
0x800ebb24: 3e a7 8c 23 sb	a0, 1016(a5)
0x800ebb28: 00 00 80 67 jalr	zero, 0(ra)
0x800ebc94: ff f4 45 03 lbu	a0, -1(s0)
0x800ebc98: fe 05 1a e3 bne	a0, zero, 0x800ebc8c
0x800ebc8c: 00 14 04 13 addi	s0, s0, 1
0x800ebc90: e9 1f f0 ef jal	ra, 0x800ebb20
0x800ebb20: a0 00 07 b7 lui	a5, 655360
0x800ebb24: 3e a7 8c 23 sb	a0, 1016(a5)
0x800ebb28: 00 00 80 67 jalr	zero, 0(ra)
0x800ebc94: ff f4 45 03 lbu	a0, -1(s0)
0x800ebc98: fe 05 1a e3 bne	a0, zero, 0x800ebc8c
0x800ebc8c: 00 14 04 13 addi	s0, s0, 1
0x800ebc90: e9 1f f0 ef jal	ra, 0x800ebb20
0x800ebb20: a0 00 07 b7 lui	a5, 655360
0x800ebb24: 3e a7 8c 23 sb	a0, 1016(a5)
0x800ebb28: 00 00 80 67 jalr	zero, 0(ra)
0x800ebc94: ff f4 45 03 lbu	a0, -1(s0)
0x800ebc98: fe 05 1a e3 bne	a0, zero, 0x800ebc8c
0x800ebc8c: 00 14 04 13 addi	s0, s0, 1
0x800ebc90: e9 1f f0 ef jal	ra, 0x800ebb20
0x800ebb20: a0 00 07 b7 lui	a5, 655360
0x800ebb24: 3e a7 8c 23 sb	a0, 1016(a5)
0x800ebb28: 00 00 80 67 jalr	zero, 0(ra)
0x800ebc94: ff f4 45 03 lbu	a0, -1(s0)
0x800ebc98: fe 05 1a e3 bne	a0, zero, 0x800ebc8c
0x800ebc8c: 00 14 04 13 addi	s0, s0, 1
0x800ebc90: e9 1f f0 ef jal	ra, 0x800ebb20
0x800ebb20: a0 00 07 b7 lui	a5, 655360
0x800ebb24: 3e a7 8c 23 sb	a0, 1016(a5)
0x800ebb28: 00 00 80 67 jalr	zero, 0(ra)
0x800ebc94: ff f4 45 03 lbu	a0, -1(s0)
0x800ebc98: fe 05 1a e3 bne	a0, zero, 0x800ebc8c
0x800ebc8c: 00 14 04 13 addi	s0, s0, 1
0x800ebc90: e9 1f f0 ef jal	ra, 0x800ebb20
0x800ebb20: a0 00 07 b7 lui	a5, 655360
0x800ebb24: 3e a7 8c 23 sb	a0, 1016(a5)
0x800ebb28: 00 00 80 67 jalr	zero, 0(ra)
0x800ebc94: ff f4 45 03 lbu	a0, -1(s0)
0x800ebc98: fe 05 1a e3 bne	a0, zero, 0x800ebc8c
0x800ebc8c: 00 14 04 13 addi	s0, s0, 1
0x800ebc90: e9 1f f0 ef jal	ra, 0x800ebb20
0x800ebb20: a0 00 07 b7 lui	a5, 655360
0x800ebb24: 3e a7 8c 23 sb	a0, 1016(a5)
0x800ebb28: 00 00 80 67 jalr	zero, 0(ra)
0x800ebc94: ff f4 45 03 lbu	a0, -1(s0)
0x800ebc98: fe 05 1a e3 bne	a0, zero, 0x800ebc8c
0x800ebc8c: 00 14 04 13 addi	s0, s0, 1
0x800ebc90: e9 1f f0 ef jal	ra, 0x800ebb20
0x800ebb20: a0 00 07 b7 lui	a5, 655360
0x800ebb24: 3e a7 8c 23 sb	a0, 1016(a5)
0x800ebb28: 00 00 80 67 jalr	zero, 0(ra)
0x800ebc94: ff f4 45 03 lbu	a0, -1(s0)
0x800ebc98: fe 05 1a e3 bne	a0, zero, 0x800ebc8c
0x800ebc8c: 00 14 04 13 addi	s0, s0, 1
0x800ebc90: e9 1f f0 ef jal	ra, 0x800ebb20
0x800ebb20: a0 00 07 b7 lui	a5, 655360
0x800ebb24: 3e a7 8c 23 sb	a0, 1016(a5)
0x800ebb28: 00 00 80 67 jalr	zero, 0(ra)
0x800ebc94: ff f4 45 03 lbu	a0, -1(s0)
0x800ebc98: fe 05 1a e3 bne	a0, zero, 0x800ebc8c
0x800ebc8c: 00 14 04 13 addi	s0, s0, 1
0x800ebc90: e9 1f f0 ef jal	ra, 0x800ebb20
0x800ebb20: a0 00 07 b7 lui	a5, 655360
0x800ebb24: 3e a7 8c 23 sb	a0, 1016(a5)
0x800ebb28: 00 00 80 67 jalr	zero, 0(ra)
0x800ebc94: ff f4 45 03 lbu	a0, -1(s0)
0x800ebc98: fe 05 1a e3 bne	a0, zero, 0x800ebc8c
0x800ebc8c: 00 14 04 13 addi	s0, s0, 1
0x800ebc90: e9 1f f0 ef jal	ra, 0x800ebb20
0x800ebb20: a0 00 07 b7 lui	a5, 655360
0x800ebb24: 3e a7 8c 23 sb	a0, 1016(a5)
0x800ebb28: 00 00 80 67 jalr	zero, 0(ra)
0x800ebc94: ff f4 45 03 lbu	a0, -1(s0)
0x800ebc98: fe 05 1a e3 bne	a0, zero, 0x800ebc8c
0x800ebc8c: 00 14 04 13 addi	s0, s0, 1
0x800ebc90: e9 1f f0 ef jal	ra, 0x800ebb20
0x800ebb20: a0 00 07 b7 lui	a5, 655360
0x800ebb24: 3e a7 8c 23 sb	a0, 1016(a5)
0x800ebb28: 00 00 80 67 jalr	zero, 0(ra)
0x800ebc94: ff f4 45 03 lbu	a0, -1(s0)
0x800ebc98: fe 05 1a e3 bne	a0, zero, 0x800ebc8c
0x800ebc9c: 00 c1 20 83 lw	ra, 12(sp)
0x800ebca0: 00 81 24 03 lw	s0, 8(sp)
0x800ebca4: 01 01 01 13 addi	sp, sp, 16
0x800ebca8: 00 00 80 67 jalr	zero, 0(ra)
0x8000002c: 00 00 57 37 lui	a4, 5
0x80000030: ff ff d7 b7 lui	a5, 1048573
0x80000034: 19 07 07 13 addi	a4, a4, 400
0x80000038: 00 f7 07 33 add	a4, a4, a5
0x8000003c: 01 01 07 93 addi	a5, sp, 16
0x80000040: 00 f7 07 b3 add	a5, a4, a5
0x80000044: 80 00 07 37 lui	a4, 524288
0x80000048: 18 e7 a0 23 sw	a4, 384(a5)
0x8000004c: 18 e7 a2 23 sw	a4, 388(a5)
0x80000050: 18 07 a6 83 lw	a3, 384(a5)
0x80000054: 18 47 a7 03 lw	a4, 388(a5)
0x80000058: 00 e6 85 33 add	a0, a3, a4
0x8000005c: 06 05 0e 63 beq	a0, zero, 0x800000d8
0x800000d8: 00 00 57 37 lui	a4, 5
0x800000dc: ff ff d7 b7 lui	a5, 1048573
0x800000e0: 19 07 07 13 addi	a4, a4, 400
0x800000e4: 00 f7 07 33 add	a4, a4, a5
0x800000e8: 01 01 07 93 addi	a5, sp, 16
0x800000ec: 00 f7 07 b3 add	a5, a4, a5
0x800000f0: 80 00 07 37 lui	a4, 524288
0x800000f4: 18 e7 a4 23 sw	a4, 392(a5)
0x800000f8: 00 17 07 13 addi	a4, a4, 1
0x800000fc: 18 e7 a6 23 sw	a4, 396(a5)
0x80000100: 18 87 a6 03 lw	a2, 392(a5)
0x80000104: 18 c7 a6 83 lw	a3, 396(a5)
0x80000108: 00 10 07 13 addi	a4, zero, 1
0x8000010c: 00 d6 06 b3 add	a3, a2, a3
0x80000110: 08 e6 80 63 beq	a3, a4, 0x80000190
0x80000190: 00 00 57 37 lui	a4, 5
0x80000194: ff ff d7 b7 lui	a5, 1048573
0x80000198: 19 07 07 13 addi	a4, a4, 400
0x8000019c: 00 f7 07 33 add	a4, a4, a5
0x800001a0: 01 01 07 93 addi	a5, sp, 16
0x800001a4: 00 f7 07 b3 add	a5, a4, a5
0x800001a8: 80 00 07 37 lui	a4, 524288
0x800001ac: 18 e7 a8 23 sw	a4, 400(a5)
0x800001b0: ff e0 06 93 addi	a3, zero, -2
0x800001b4: 18 d7 aa 23 sw	a3, 404(a5)
0x800001b8: 19 07 a6 03 lw	a2, 400(a5)
0x800001bc: 19 47 a6 83 lw	a3, 404(a5)
0x800001c0: ff e7 47 13 xori	a4, a4, -2
0x800001c4: 00 d6 06 b3 add	a3, a2, a3
0x800001c8: 08 e6 80 63 beq	a3, a4, 0x80000248
0x80000248: 00 00 57 37 lui	a4, 5
0x8000024c: ff ff d7 b7 lui	a5, 1048573
0x80000250: 19 07 07 13 addi	a4, a4, 400
0x80000254: 00 f7 07 33 add	a4, a4, a5
0x80000258: 01 01 07 93 addi	a5, sp, 16
0x8000025c: 00 f7 07 b3 add	a5, a4, a5
0x80000260: 80 00 07 37 lui	a4, 524288
0x80000264: 18 e7 ac 23 sw	a4, 408(a5)
0x80000268: ff f0 06 93 addi	a3, zero, -1
0x8000026c: 18 d7 ae 23 sw	a3, 412(a5)
0x80000270: 19 87 a6 03 lw	a2, 408(a5)
0x80000274: 19 c7 a6 83 lw	a3, 412(a5)
0x80000278: ff f7 47 13 xori	a4, a4, -1
0x8000027c: 00 d6 06 b3 add	a3, a2, a3
0x80000280: 08 e6 80 63 beq	a3, a4, 0x80000300
0x80000300: 00 00 57 37 lui	a4, 5
0x80000304: ff ff d7 b7 lui	a5, 1048573
0x80000308: 19 07 07 13 addi	a4, a4, 400
0x8000030c: 00 f7 07 33 add	a4, a4, a5
0x80000310: 01 01 07 93 addi	a5, sp, 16
0x80000314: 00 f7 07 b3 add	a5, a4, a5
0x80000318: 80 00 07 37 lui	a4, 524288
0x8000031c: 1a e7 a0 23 sw	a4, 416(a5)
0x80000320: 1a 07 a2 23 sw	zero, 420(a5)
0x80000324: 1a 07 a6 03 lw	a2, 416(a5)
0x80000328: 1a 47 a6 83 lw	a3, 420(a5)
0x8000032c: 00 d6 06 b3 add	a3, a2, a3
0x80000330: 06 e6 8e 63 beq	a3, a4, 0x800003ac
0x800003ac: 00 00 57 37 lui	a4, 5
0x800003b0: ff ff d7 b7 lui	a5, 1048573
0x800003b4: 19 07 07 13 addi	a4, a4, 400
0x800003b8: 00 f7 07 33 add	a4, a4, a5
0x800003bc: 01 01 07 93 addi	a5, sp, 16
0x800003c0: 00 f7 07 b3 add	a5, a4, a5
0x800003c4: 80 00 07 37 lui	a4, 524288
0x800003c8: 1a e7 a4 23 sw	a4, 424(a5)
0x800003cc: 00 10 06 93 addi	a3, zero, 1
0x800003d0: 1a d7 a6 23 sw	a3, 428(a5)
0x800003d4: 1a 87 a6 03 lw	a2, 424(a5)
0x800003d8: 1a c7 a6 83 lw	a3, 428(a5)
0x800003dc: 00 17 07 13 addi	a4, a4, 1
0x800003e0: 00 d6 06 b3 add	a3, a2, a3
0x800003e4: 08 e6 80 63 beq	a3, a4, 0x80000464
0x80000464: 00 00 57 37 lui	a4, 5
0x80000468: ff ff d7 b7 lui	a5, 1048573
0x8000046c: 19 07 07 13 addi	a4, a4, 400
0x80000470: 00 f7 07 33 add	a4, a4, a5
0x80000474: 01 01 07 93 addi	a5, sp, 16
0x80000478: 00 f7 07 b3 add	a5, a4, a5
0x8000047c: 80 00 07 37 lui	a4, 524288
0x80000480: 1a e7 a8 23 sw	a4, 432(a5)
0x80000484: 00 20 06 93 addi	a3, zero, 2
0x80000488: 1a d7 aa 23 sw	a3, 436(a5)
0x8000048c: 1b 07 a6 03 lw	a2, 432(a5)
0x80000490: 1b 47 a6 83 lw	a3, 436(a5)
0x80000494: 00 27 07 13 addi	a4, a4, 2
0x80000498: 00 d6 06 b3 add	a3, a2, a3
0x8000049c: 08 e6 80 63 beq	a3, a4, 0x8000051c
0x8000051c: 00 00 57 37 lui	a4, 5
0x80000520: ff ff d7 b7 lui	a5, 1048573
0x80000524: 19 07 07 13 addi	a4, a4, 400
0x80000528: 00 f7 07 33 add	a4, a4, a5
0x8000052c: 01 01 07 93 addi	a5, sp, 16
0x80000530: 00 f7 07 b3 add	a5, a4, a5
0x80000534: 80 00 07 37 lui	a4, 524288
0x80000538: 1a e7 ac 23 sw	a4, 440(a5)
0x8000053c: ff e7 47 13 xori	a4, a4, -2
0x80000540: 1a e7 ae 23 sw	a4, 444(a5)
0x80000544: 1b 87 a6 03 lw	a2, 440(a5)
0x80000548: 1b c7 a6 83 lw	a3, 444(a5)
0x8000054c: ff e0 07 13 addi	a4, zero, -2
0x80000550: 00 d6 06 b3 add	a3, a2, a3
0x80000554: 08 e6 80 63 beq	a3, a4, 0x800005d4
0x800005d4: 00 00 57 37 lui	a4, 5
0x800005d8: ff ff d7 b7 lui	a5, 1048573
0x800005dc: 19 07 07 13 addi	a4, a4, 400
0x800005e0: 00 f7 07 33 add	a4, a4, a5
0x800005e4: 01 01 07 93 addi	a5, sp, 16
0x800005e8: 00 f7 07 b3 add	a5, a4, a5
0x800005ec: 80 00 07 37 lui	a4, 524288
0x800005f0: 1c e7 a0 23 sw	a4, 448(a5)
0x800005f4: ff f7 47 13 xori	a4, a4, -1
0x800005f8: 1c e7 a2 23 sw	a4, 452(a5)
0x800005fc: 1c 07 a6 03 lw	a2, 448(a5)
0x80000600: 1c 47 a6 83 lw	a3, 452(a5)
0x80000604: ff f0 07 13 addi	a4, zero, -1
0x80000608: 00 d6 06 b3 add	a3, a2, a3
0x8000060c: 08 e6 80 63 beq	a3, a4, 0x8000068c
0x8000068c: 00 00 57 37 lui	a4, 5
0x80000690: ff ff d7 b7 lui	a5, 1048573
0x80000694: 19 07 07 13 addi	a4, a4, 400
0x80000698: 00 f7 07 33 add	a4, a4, a5
0x8000069c: 01 01 07 93 addi	a5, sp, 16
0x800006a0: 00 f7 07 b3 add	a5, a4, a5
0x800006a4: 80 00 07 37 lui	a4, 524288
0x800006a8: 00 17 07 13 addi	a4, a4, 1
0x800006ac: 1c e7 a4 23 sw	a4, 456(a5)
0x800006b0: 1c e7 a6 23 sw	a4, 460(a5)
0x800006b4: 1c 87 a6 03 lw	a2, 456(a5)
0x800006b8: 1c c7 a6 83 lw	a3, 460(a5)
0x800006bc: 00 20 07 13 addi	a4, zero, 2
0x800006c0: 00 d6 06 b3 add	a3, a2, a3
0x800006c4: 08 e6 80 63 beq	a3, a4, 0x80000744
0x80000744: 00 00 56 b7 lui	a3, 5
0x80000748: ff ff d7 b7 lui	a5, 1048573
0x8000074c: 19 06 86 93 addi	a3, a3, 400
0x80000750: 00 f6 86 b3 add	a3, a3, a5
0x80000754: 80 00 07 37 lui	a4, 524288
0x80000758: 01 01 07 93 addi	a5, sp, 16
0x8000075c: 00 f6 87 b3 add	a5, a3, a5
0x80000760: 00 17 06 93 addi	a3, a4, 1
0x80000764: 1c d7 a8 23 sw	a3, 464(a5)
0x80000768: ff e0 06 93 addi	a3, zero, -2
0x8000076c: 1c d7 aa 23 sw	a3, 468(a5)
0x80000770: 1d 07 a6 03 lw	a2, 464(a5)
0x80000774: 1d 47 a6 83 lw	a3, 468(a5)
0x80000778: ff f7 47 13 xori	a4, a4, -1
0x8000077c: 00 d6 06 b3 add	a3, a2, a3
0x80000780: 08 e6 80 63 beq	a3, a4, 0x80000800
0x80000800: 00 00 56 b7 lui	a3, 5
0x80000804: ff ff d7 b7 lui	a5, 1048573
0x80000808: 19 06 86 93 addi	a3, a3, 400
0x8000080c: 00 f6 86 b3 add	a3, a3, a5
0x80000810: 80 00 07 37 lui	a4, 524288
0x80000814: 01 01 07 93 addi	a5, sp, 16
0x80000818: 00 f6 87 b3 add	a5, a3, a5
0x8000081c: 00 17 06 93 addi	a3, a4, 1
0x80000820: 1c d7 ac 23 sw	a3, 472(a5)
0x80000824: ff f0 06 93 addi	a3, zero, -1
0x80000828: 1c d7 ae 23 sw	a3, 476(a5)
0x8000082c: 1d 87 a6 03 lw	a2, 472(a5)
0x80000830: 1d c7 a6 83 lw	a3, 476(a5)
0x80000834: 00 d6 06 b3 add	a3, a2, a3
0x80000838: 08 e6 80 63 beq	a3, a4, 0x800008b8
0x800008b8: 00 00 57 37 lui	a4, 5
0x800008bc: ff ff d7 b7 lui	a5, 1048573
0x800008c0: 19 07 07 13 addi	a4, a4, 400
0x800008c4: 00 f7 07 33 add	a4, a4, a5
0x800008c8: 01 01 07 93 addi	a5, sp, 16
0x800008cc: 00 f7 07 b3 add	a5, a4, a5
0x800008d0: 80 00 07 37 lui	a4, 524288
0x800008d4: 00 17 07 13 addi	a4, a4, 1
0x800008d8: 1e e7 a0 23 sw	a4, 480(a5)
0x800008dc: 1e 07 a2 23 sw	zero, 484(a5)
0x800008e0: 1e 07 a6 03 lw	a2, 480(a5)
0x800008e4: 1e 47 a6 83 lw	a3, 484(a5)
0x800008e8: 00 d6 06 b3 add	a3, a2, a3
0x800008ec: 08 e6 80 63 beq	a3, a4, 0x8000096c
0x8000096c: 00 00 56 b7 lui	a3, 5
0x80000970: ff ff d7 b7 lui	a5, 1048573
0x80000974: 19 06 86 93 addi	a3, a3, 400
0x80000978: 00 f6 86 b3 add	a3, a3, a5
0x8000097c: 80 00 07 37 lui	a4, 524288
0x80000980: 01 01 07 93 addi	a5, sp, 16
0x80000984: 00 f6 87 b3 add	a5, a3, a5
0x80000988: 00 17 06 93 addi	a3, a4, 1
0x8000098c: 1e d7 a4 23 sw	a3, 488(a5)
0x80000990: 00 10 06 93 addi	a3, zero, 1
0x80000994: 1e d7 a6 23 sw	a3, 492(a5)
0x80000998: 1e 87 a6 03 lw	a2, 488(a5)
0x8000099c: 1e c7 a6 83 lw	a3, 492(a5)
0x800009a0: 00 27 07 13 addi	a4, a4, 2
0x800009a4: 00 d6 06 b3 add	a3, a2, a3
0x800009a8: 08 e6 80 63 beq	a3, a4, 0x80000a28
0x80000a28: 00 00 56 b7 lui	a3, 5
0x80000a2c: ff ff d7 b7 lui	a5, 1048573
0x80000a30: 19 06 86 93 addi	a3, a3, 400
0x80000a34: 00 f6 86 b3 add	a3, a3, a5
0x80000a38: 80 00 07 37 lui	a4, 524288
0x80000a3c: 01 01 07 93 addi	a5, sp, 16
0x80000a40: 00 f6 87 b3 add	a5, a3, a5
0x80000a44: 00 17 06 93 addi	a3, a4, 1
0x80000a48: 1e d7 a8 23 sw	a3, 496(a5)
0x80000a4c: 00 20 06 93 addi	a3, zero, 2
0x80000a50: 1e d7 aa 23 sw	a3, 500(a5)
0x80000a54: 1f 07 a6 03 lw	a2, 496(a5)
0x80000a58: 1f 47 a6 83 lw	a3, 500(a5)
0x80000a5c: 00 37 07 13 addi	a4, a4, 3
0x80000a60: 00 d6 06 b3 add	a3, a2, a3
0x80000a64: 08 e6 80 63 beq	a3, a4, 0x80000ae4
0x80000ae4: 00 00 56 b7 lui	a3, 5
0x80000ae8: ff ff d7 b7 lui	a5, 1048573
0x80000aec: 19 06 86 93 addi	a3, a3, 400
0x80000af0: 00 f6 86 b3 add	a3, a3, a5
0x80000af4: 80 00 07 37 lui	a4, 524288
0x80000af8: 01 01 07 93 addi	a5, sp, 16
0x80000afc: 00 f6 87 b3 add	a5, a3, a5
0x80000b00: 00 17 06 93 addi	a3, a4, 1
0x80000b04: 1e d7 ac 23 sw	a3, 504(a5)
0x80000b08: ff e7 47 13 xori	a4, a4, -2
0x80000b0c: 1e e7 ae 23 sw	a4, 508(a5)
0x80000b10: 1f 87 a6 03 lw	a2, 504(a5)
0x80000b14: 1f c7 a6 83 lw	a3, 508(a5)
0x80000b18: ff f0 07 13 addi	a4, zero, -1
0x80000b1c: 00 d6 06 b3 add	a3, a2, a3
0x80000b20: 08 e6 80 63 beq	a3, a4, 0x80000ba0
0x80000ba0: 00 00 56 b7 lui	a3, 5
0x80000ba4: ff ff d7 b7 lui	a5, 1048573
0x80000ba8: 19 06 86 93 addi	a3, a3, 400
0x80000bac: 00 f6 86 b3 add	a3, a3, a5
0x80000bb0: 80 00 07 37 lui	a4, 524288
0x80000bb4: 01 01 07 93 addi	a5, sp, 16
0x80000bb8: 00 f6 87 b3 add	a5, a3, a5
0x80000bbc: 00 17 06 93 addi	a3, a4, 1
0x80000bc0: 20 d7 a0 23 sw	a3, 512(a5)
0x80000bc4: ff f7 47 13 xori	a4, a4, -1
0x80000bc8: 20 e7 a2 23 sw	a4, 516(a5)
0x80000bcc: 20 07 a6 83 lw	a3, 512(a5)
0x80000bd0: 20 47 a7 03 lw	a4, 516(a5)
0x80000bd4: 00 e6 87 33 add	a4, a3, a4
0x80000bd8: 08 07 00 63 beq	a4, zero, 0x80000c58
0x80000c58: 00 00 57 37 lui	a4, 5
0x80000c5c: ff ff d7 b7 lui	a5, 1048573
0x80000c60: 19 07 07 13 addi	a4, a4, 400
0x80000c64: 00 f7 07 33 add	a4, a4, a5
0x80000c68: 01 01 07 93 addi	a5, sp, 16
0x80000c6c: 00 f7 07 b3 add	a5, a4, a5
0x80000c70: ff e0 07 13 addi	a4, zero, -2
0x80000c74: 20 e7 a4 23 sw	a4, 520(a5)
0x80000c78: 20 e7 a6 23 sw	a4, 524(a5)
0x80000c7c: 20 87 a6 03 lw	a2, 520(a5)
0x80000c80: 20 c7 a6 83 lw	a3, 524(a5)
0x80000c84: ff c0 07 13 addi	a4, zero, -4
0x80000c88: 00 d6 06 b3 add	a3, a2, a3
0x80000c8c: 06 e6 8e 63 beq	a3, a4, 0x80000d08
0x80000d08: 00 00 57 37 lui	a4, 5
0x80000d0c: ff ff d7 b7 lui	a5, 1048573
0x80000d10: 19 07 07 13 addi	a4, a4, 400
0x80000d14: 00 f7 07 33 add	a4, a4, a5
0x80000d18: 01 01 07 93 addi	a5, sp, 16
0x80000d1c: 00 f7 07 b3 add	a5, a4, a5
0x80000d20: ff e0 07 13 addi	a4, zero, -2
0x80000d24: 20 e7 a8 23 sw	a4, 528(a5)
0x80000d28: ff f0 07 13 addi	a4, zero, -1
0x80000d2c: 20 e7 aa 23 sw	a4, 532(a5)
0x80000d30: 21 07 a6 03 lw	a2, 528(a5)
0x80000d34: 21 47 a6 83 lw	a3, 532(a5)
0x80000d38: ff d0 07 13 addi	a4, zero, -3
0x80000d3c: 00 d6 06 b3 add	a3, a2, a3
0x80000d40: 06 e6 8e 63 beq	a3, a4, 0x80000dbc
0x80000dbc: 00 00 57 37 lui	a4, 5
0x80000dc0: ff ff d7 b7 lui	a5, 1048573
0x80000dc4: 19 07 07 13 addi	a4, a4, 400
0x80000dc8: 00 f7 07 33 add	a4, a4, a5
0x80000dcc: 01 01 07 93 addi	a5, sp, 16
0x80000dd0: 00 f7 07 b3 add	a5, a4, a5
0x80000dd4: ff e0 07 13 addi	a4, zero, -2
0x80000dd8: 20 e7 ac 23 sw	a4, 536(a5)
0x80000ddc: 20 07 ae 23 sw	zero, 540(a5)
0x80000de0: 21 87 a6 03 lw	a2, 536(a5)
0x80000de4: 21 c7 a6 83 lw	a3, 540(a5)
0x80000de8: 00 d6 06 b3 add	a3, a2, a3
0x80000dec: 06 e6 8e 63 beq	a3, a4, 0x80000e68
0x80000e68: 00 00 57 37 lui	a4, 5
0x80000e6c: ff ff d7 b7 lui	a5, 1048573
0x80000e70: 19 07 07 13 addi	a4, a4, 400
0x80000e74: 00 f7 07 33 add	a4, a4, a5
0x80000e78: 01 01 07 93 addi	a5, sp, 16
0x80000e7c: 00 f7 07 b3 add	a5, a4, a5
0x80000e80: ff e0 07 13 addi	a4, zero, -2
0x80000e84: 22 e7 a0 23 sw	a4, 544(a5)
0x80000e88: 00 10 07 13 addi	a4, zero, 1
0x80000e8c: 22 e7 a2 23 sw	a4, 548(a5)
0x80000e90: 22 07 a6 03 lw	a2, 544(a5)
0x80000e94: 22 47 a6 83 lw	a3, 548(a5)
0x80000e98: ff f0 07 13 addi	a4, zero, -1
0x80000e9c: 00 d6 06 b3 add	a3, a2, a3
0x80000ea0: 06 e6 8e 63 beq	a3, a4, 0x80000f1c
0x80000f1c: 00 00 57 37 lui	a4, 5
0x80000f20: ff ff d7 b7 lui	a5, 1048573
0x80000f24: 19 07 07 13 addi	a4, a4, 400
0x80000f28: 00 f7 07 33 add	a4, a4, a5
0x80000f2c: 01 01 07 93 addi	a5, sp, 16
0x80000f30: 00 f7 07 b3 add	a5, a4, a5
0x80000f34: ff e0 07 13 addi	a4, zero, -2
0x80000f38: 22 e7 a4 23 sw	a4, 552(a5)
0x80000f3c: 00 20 07 13 addi	a4, zero, 2
0x80000f40: 22 e7 a6 23 sw	a4, 556(a5)
0x80000f44: 22 87 a6 83 lw	a3, 552(a5)
0x80000f48: 22 c7 a7 03 lw	a4, 556(a5)
0x80000f4c: 00 e6 87 33 add	a4, a3, a4
0x80000f50: 06 07 0e 63 beq	a4, zero, 0x80000fcc
0x80000fcc: 00 00 57 37 lui	a4, 5
0x80000fd0: ff ff d7 b7 lui	a5, 1048573
0x80000fd4: 19 07 07 13 addi	a4, a4, 400
0x80000fd8: 00 f7 07 33 add	a4, a4, a5
0x80000fdc: 01 01 07 93 addi	a5, sp, 16
0x80000fe0: 00 f7 07 b3 add	a5, a4, a5
0x80000fe4: ff e0 06 93 addi	a3, zero, -2
0x80000fe8: 80 00 07 37 lui	a4, 524288
0x80000fec: 22 d7 a8 23 sw	a3, 560(a5)
0x80000ff0: ff e7 46 93 xori	a3, a4, -2
0x80000ff4: 22 d7 aa 23 sw	a3, 564(a5)
0x80000ff8: 23 07 a6 03 lw	a2, 560(a5)
0x80000ffc: 23 47 a6 83 lw	a3, 564(a5)
0x80001000: ff c7 47 13 xori	a4, a4, -4
0x80001004: 00 d6 06 b3 add	a3, a2, a3
0x80001008: 08 e6 80 63 beq	a3, a4, 0x80001088
0x80001088: 00 00 57 37 lui	a4, 5
0x8000108c: ff ff d7 b7 lui	a5, 1048573
0x80001090: 19 07 07 13 addi	a4, a4, 400
0x80001094: 00 f7 07 33 add	a4, a4, a5
0x80001098: 01 01 07 93 addi	a5, sp, 16
0x8000109c: 00 f7 07 b3 add	a5, a4, a5
0x800010a0: ff e0 06 93 addi	a3, zero, -2
0x800010a4: 80 00 07 37 lui	a4, 524288
0x800010a8: 22 d7 ac 23 sw	a3, 568(a5)
0x800010ac: ff f7 46 93 xori	a3, a4, -1
0x800010b0: 22 d7 ae 23 sw	a3, 572(a5)
0x800010b4: 23 87 a6 03 lw	a2, 568(a5)
0x800010b8: 23 c7 a6 83 lw	a3, 572(a5)
0x800010bc: ff d7 47 13 xori	a4, a4, -3
0x800010c0: 00 d6 06 b3 add	a3, a2, a3
0x800010c4: 08 e6 80 63 beq	a3, a4, 0x80001144
0x80001144: 00 00 57 37 lui	a4, 5
0x80001148: ff ff d7 b7 lui	a5, 1048573
0x8000114c: 19 07 07 13 addi	a4, a4, 400
0x80001150: 00 f7 07 33 add	a4, a4, a5
0x80001154: 01 01 07 93 addi	a5, sp, 16
0x80001158: 00 f7 07 b3 add	a5, a4, a5
0x8000115c: ff f0 07 13 addi	a4, zero, -1
0x80001160: 24 e7 a0 23 sw	a4, 576(a5)
0x80001164: 24 e7 a2 23 sw	a4, 580(a5)
0x80001168: 24 07 a6 03 lw	a2, 576(a5)
0x8000116c: 24 47 a6 83 lw	a3, 580(a5)
0x80001170: ff e0 07 13 addi	a4, zero, -2
0x80001174: 00 d6 06 b3 add	a3, a2, a3
0x80001178: 06 e6 8e 63 beq	a3, a4, 0x800011f4
0x800011f4: 00 00 57 37 lui	a4, 5
0x800011f8: ff ff d7 b7 lui	a5, 1048573
0x800011fc: 19 07 07 13 addi	a4, a4, 400
0x80001200: 00 f7 07 33 add	a4, a4, a5
0x80001204: 01 01 07 93 addi	a5, sp, 16
0x80001208: 00 f7 07 b3 add	a5, a4, a5
0x8000120c: ff f0 07 13 addi	a4, zero, -1
0x80001210: 24 e7 a4 23 sw	a4, 584(a5)
0x80001214: 24 07 a6 23 sw	zero, 588(a5)
0x80001218: 24 87 a6 03 lw	a2, 584(a5)
0x8000121c: 24 c7 a6 83 lw	a3, 588(a5)
0x80001220: 00 d6 06 b3 add	a3, a2, a3
0x80001224: 06 e6 8e 63 beq	a3, a4, 0x800012a0
0x800012a0: 00 00 57 37 lui	a4, 5
0x800012a4: ff ff d7 b7 lui	a5, 1048573
0x800012a8: 19 07 07 13 addi	a4, a4, 400
0x800012ac: 00 f7 07 33 add	a4, a4, a5
0x800012b0: 01 01 07 93 addi	a5, sp, 16
0x800012b4: 00 f7 07 b3 add	a5, a4, a5
0x800012b8: ff f0 07 13 addi	a4, zero, -1
0x800012bc: 24 e7 a8 23 sw	a4, 592(a5)
0x800012c0: 00 10 07 13 addi	a4, zero, 1
0x800012c4: 24 e7 aa 23 sw	a4, 596(a5)
0x800012c8: 25 07 a6 83 lw	a3, 592(a5)
0x800012cc: 25 47 a7 03 lw	a4, 596(a5)
0x800012d0: 00 e6 87 33 add	a4, a3, a4
0x800012d4: 06 07 0e 63 beq	a4, zero, 0x80001350
0x80001350: 00 00 57 37 lui	a4, 5
0x80001354: ff ff d7 b7 lui	a5, 1048573
0x80001358: 19 07 07 13 addi	a4, a4, 400
0x8000135c: 00 f7 07 33 add	a4, a4, a5
0x80001360: 01 01 07 93 addi	a5, sp, 16
0x80001364: 00 f7 07 b3 add	a5, a4, a5
0x80001368: ff f0 07 13 addi	a4, zero, -1
0x8000136c: 24 e7 ac 23 sw	a4, 600(a5)
0x80001370: 00 20 07 13 addi	a4, zero, 2
0x80001374: 24 e7 ae 23 sw	a4, 604(a5)
0x80001378: 25 87 a6 03 lw	a2, 600(a5)
0x8000137c: 25 c7 a6 83 lw	a3, 604(a5)
0x80001380: 00 10 07 13 addi	a4, zero, 1
0x80001384: 00 d6 06 b3 add	a3, a2, a3
0x80001388: 06 e6 8e 63 beq	a3, a4, 0x80001404
0x80001404: 00 00 57 37 lui	a4, 5
0x80001408: ff ff d7 b7 lui	a5, 1048573
0x8000140c: 19 07 07 13 addi	a4, a4, 400
0x80001410: 00 f7 07 33 add	a4, a4, a5
0x80001414: 01 01 07 93 addi	a5, sp, 16
0x80001418: 00 f7 07 b3 add	a5, a4, a5
0x8000141c: ff f0 06 93 addi	a3, zero, -1
0x80001420: 80 00 07 37 lui	a4, 524288
0x80001424: 26 d7 a0 23 sw	a3, 608(a5)
0x80001428: ff e7 46 93 xori	a3, a4, -2
0x8000142c: 26 d7 a2 23 sw	a3, 612(a5)
0x80001430: 26 07 a6 03 lw	a2, 608(a5)
0x80001434: 26 47 a6 83 lw	a3, 612(a5)
0x80001438: ff d7 47 13 xori	a4, a4, -3
0x8000143c: 00 d6 06 b3 add	a3, a2, a3
0x80001440: 08 e6 80 63 beq	a3, a4, 0x800014c0
0x800014c0: 00 00 57 37 lui	a4, 5
0x800014c4: ff ff d7 b7 lui	a5, 1048573
0x800014c8: 19 07 07 13 addi	a4, a4, 400
0x800014cc: 00 f7 07 33 add	a4, a4, a5
0x800014d0: 01 01 07 93 addi	a5, sp, 16
0x800014d4: 00 f7 07 b3 add	a5, a4, a5
0x800014d8: ff f0 06 93 addi	a3, zero, -1
0x800014dc: 80 00 07 37 lui	a4, 524288
0x800014e0: 26 d7 a4 23 sw	a3, 616(a5)
0x800014e4: ff f7 46 93 xori	a3, a4, -1
0x800014e8: 26 d7 a6 23 sw	a3, 620(a5)
0x800014ec: 26 87 a6 03 lw	a2, 616(a5)
0x800014f0: 26 c7 a6 83 lw	a3, 620(a5)
0x800014f4: ff e7 47 13 xori	a4, a4, -2
0x800014f8: 00 d6 06 b3 add	a3, a2, a3
0x800014fc: 08 e6 80 63 beq	a3, a4, 0x8000157c
0x8000157c: 00 00 57 37 lui	a4, 5
0x80001580: ff ff d7 b7 lui	a5, 1048573
0x80001584: 19 07 07 13 addi	a4, a4, 400
0x80001588: 00 f7 07 33 add	a4, a4, a5
0x8000158c: 01 01 07 93 addi	a5, sp, 16
0x80001590: 00 f7 07 b3 add	a5, a4, a5
0x80001594: 26 07 a8 23 sw	zero, 624(a5)
0x80001598: 26 07 aa 23 sw	zero, 628(a5)
0x8000159c: 27 07 a6 83 lw	a3, 624(a5)
0x800015a0: 27 47 a7 03 lw	a4, 628(a5)
0x800015a4: 00 e6 87 33 add	a4, a3, a4
0x800015a8: 06 07 0e 63 beq	a4, zero, 0x80001624
0x80001624: 00 00 57 37 lui	a4, 5
0x80001628: ff ff d7 b7 lui	a5, 1048573
0x8000162c: 19 07 07 13 addi	a4, a4, 400
0x80001630: 00 f7 07 33 add	a4, a4, a5
0x80001634: 01 01 07 93 addi	a5, sp, 16
0x80001638: 00 f7 07 b3 add	a5, a4, a5
0x8000163c: 26 07 ac 23 sw	zero, 632(a5)
0x80001640: 00 10 07 13 addi	a4, zero, 1
0x80001644: 26 e7 ae 23 sw	a4, 636(a5)
0x80001648: 27 87 a6 03 lw	a2, 632(a5)
0x8000164c: 27 c7 a6 83 lw	a3, 636(a5)
0x80001650: 00 d6 06 b3 add	a3, a2, a3
0x80001654: 06 e6 8e 63 beq	a3, a4, 0x800016d0
0x800016d0: 00 00 57 37 lui	a4, 5
0x800016d4: ff ff d7 b7 lui	a5, 1048573
0x800016d8: 19 07 07 13 addi	a4, a4, 400
0x800016dc: 00 f7 07 33 add	a4, a4, a5
0x800016e0: 01 01 07 93 addi	a5, sp, 16
0x800016e4: 00 f7 07 b3 add	a5, a4, a5
0x800016e8: 28 07 a0 23 sw	zero, 640(a5)
0x800016ec: 00 20 07 13 addi	a4, zero, 2
0x800016f0: 28 e7 a2 23 sw	a4, 644(a5)
0x800016f4: 28 07 a6 03 lw	a2, 640(a5)
0x800016f8: 28 47 a6 83 lw	a3, 644(a5)
0x800016fc: 00 d6 06 b3 add	a3, a2, a3
0x80001700: 06 e6 8e 63 beq	a3, a4, 0x8000177c
0x8000177c: 00 00 57 37 lui	a4, 5
0x80001780: ff ff d7 b7 lui	a5, 1048573
0x80001784: 19 07 07 13 addi	a4, a4, 400
0x80001788: 00 f7 07 33 add	a4, a4, a5
0x8000178c: 01 01 07 93 addi	a5, sp, 16
0x80001790: 00 f7 07 b3 add	a5, a4, a5
0x80001794: 80 00 07 37 lui	a4, 524288
0x80001798: 28 07 a4 23 sw	zero, 648(a5)
0x8000179c: ff e7 47 13 xori	a4, a4, -2
0x800017a0: 28 e7 a6 23 sw	a4, 652(a5)
0x800017a4: 28 87 a6 03 lw	a2, 648(a5)
0x800017a8: 28 c7 a6 83 lw	a3, 652(a5)
0x800017ac: 00 d6 06 b3 add	a3, a2, a3
0x800017b0: 08 e6 80 63 beq	a3, a4, 0x80001830
0x80001830: 00 00 57 37 lui	a4, 5
0x80001834: ff ff d7 b7 lui	a5, 1048573
0x80001838: 19 07 07 13 addi	a4, a4, 400
0x8000183c: 00 f7 07 33 add	a4, a4, a5
0x80001840: 01 01 07 93 addi	a5, sp, 16
0x80001844: 00 f7 07 b3 add	a5, a4, a5
0x80001848: 80 00 07 37 lui	a4, 524288
0x8000184c: 28 07 a8 23 sw	zero, 656(a5)
0x80001850: ff f7 47 13 xori	a4, a4, -1
0x80001854: 28 e7 aa 23 sw	a4, 660(a5)
0x80001858: 29 07 a6 03 lw	a2, 656(a5)
0x8000185c: 29 47 a6 83 lw	a3, 660(a5)
0x80001860: 00 d6 06 b3 add	a3, a2, a3
0x80001864: 08 e6 80 63 beq	a3, a4, 0x800018e4
0x800018e4: 00 00 57 37 lui	a4, 5
0x800018e8: ff ff d7 b7 lui	a5, 1048573
0x800018ec: 19 07 07 13 addi	a4, a4, 400
0x800018f0: 00 f7 07 33 add	a4, a4, a5
0x800018f4: 01 01 07 93 addi	a5, sp, 16
0x800018f8: 00 f7 07 b3 add	a5, a4, a5
0x800018fc: 00 10 07 13 addi	a4, zero, 1
0x80001900: 28 e7 ac 23 sw	a4, 664(a5)
0x80001904: 28 e7 ae 23 sw	a4, 668(a5)
0x80001908: 29 87 a6 03 lw	a2, 664(a5)
0x8000190c: 29 c7 a6 83 lw	a3, 668(a5)
0x80001910: 00 20 07 13 addi	a4, zero, 2
0x80001914: 00 d6 06 b3 add	a3, a2, a3
0x80001918: 06 e6 8e 63 beq	a3, a4, 0x80001994
0x80001994: 00 00 57 37 lui	a4, 5
0x80001998: ff ff d7 b7 lui	a5, 1048573
0x8000199c: 19 07 07 13 addi	a4, a4, 400
0x800019a0: 00 f7 07 33 add	a4, a4, a5
0x800019a4: 01 01 07 93 addi	a5, sp, 16
0x800019a8: 00 f7 07 b3 add	a5, a4, a5
0x800019ac: 00 10 07 13 addi	a4, zero, 1
0x800019b0: 2a e7 a0 23 sw	a4, 672(a5)
0x800019b4: 00 20 07 13 addi	a4, zero, 2
0x800019b8: 2a e7 a2 23 sw	a4, 676(a5)
0x800019bc: 2a 07 a6 03 lw	a2, 672(a5)
0x800019c0: 2a 47 a6 83 lw	a3, 676(a5)
0x800019c4: 00 30 07 13 addi	a4, zero, 3
0x800019c8: 00 d6 06 b3 add	a3, a2, a3
0x800019cc: 06 e6 8e 63 beq	a3, a4, 0x80001a48
0x80001a48: 00 00 57 37 lui	a4, 5
0x80001a4c: ff ff d7 b7 lui	a5, 1048573
0x80001a50: 19 07 07 13 addi	a4, a4, 400
0x80001a54: 00 f7 07 33 add	a4, a4, a5
0x80001a58: 01 01 07 93 addi	a5, sp, 16
0x80001a5c: 00 f7 07 b3 add	a5, a4, a5
0x80001a60: 00 10 06 93 addi	a3, zero, 1
0x80001a64: 80 00 07 37 lui	a4, 524288
0x80001a68: 2a d7 a4 23 sw	a3, 680(a5)
0x80001a6c: ff e7 46 93 xori	a3, a4, -2
0x80001a70: 2a d7 a6 23 sw	a3, 684(a5)
0x80001a74: 2a 87 a6 03 lw	a2, 680(a5)
0x80001a78: 2a c7 a6 83 lw	a3, 684(a5)
0x80001a7c: ff f7 47 13 xori	a4, a4, -1
0x80001a80: 00 d6 06 b3 add	a3, a2, a3
0x80001a84: 08 e6 80 63 beq	a3, a4, 0x80001b04
0x80001b04: 00 00 57 37 lui	a4, 5
0x80001b08: ff ff d7 b7 lui	a5, 1048573
0x80001b0c: 19 07 07 13 addi	a4, a4, 400
0x80001b10: 00 f7 07 33 add	a4, a4, a5
0x80001b14: 01 01 07 93 addi	a5, sp, 16
0x80001b18: 00 f7 07 b3 add	a5, a4, a5
0x80001b1c: 00 10 06 93 addi	a3, zero, 1
0x80001b20: 80 00 07 37 lui	a4, 524288
0x80001b24: 2a d7 a8 23 sw	a3, 688(a5)
0x80001b28: ff f7 46 93 xori	a3, a4, -1
0x80001b2c: 2a d7 aa 23 sw	a3, 692(a5)
0x80001b30: 2b 07 a6 03 lw	a2, 688(a5)
0x80001b34: 2b 47 a6 83 lw	a3, 692(a5)
0x80001b38: 00 d6 06 b3 add	a3, a2, a3
0x80001b3c: 08 e6 80 63 beq	a3, a4, 0x80001bbc
0x80001bbc: 00 00 57 37 lui	a4, 5
0x80001bc0: ff ff d7 b7 lui	a5, 1048573
0x80001bc4: 19 07 07 13 addi	a4, a4, 400
0x80001bc8: 00 f7 07 33 add	a4, a4, a5
0x80001bcc: 01 01 07 93 addi	a5, sp, 16
0x80001bd0: 00 f7 07 b3 add	a5, a4, a5
0x80001bd4: 00 20 07 13 addi	a4, zero, 2
0x80001bd8: 2a e7 ac 23 sw	a4, 696(a5)
0x80001bdc: 2a e7 ae 23 sw	a4, 700(a5)
0x80001be0: 2b 87 a6 03 lw	a2, 696(a5)
0x80001be4: 2b c7 a6 83 lw	a3, 700(a5)
0x80001be8: 00 40 07 13 addi	a4, zero, 4
0x80001bec: 00 d6 06 b3 add	a3, a2, a3
0x80001bf0: 06 e6 8e 63 beq	a3, a4, 0x80001c6c
0x80001c6c: 00 00 57 37 lui	a4, 5
0x80001c70: ff ff d7 b7 lui	a5, 1048573
0x80001c74: 19 07 07 13 addi	a4, a4, 400
0x80001c78: 00 f7 07 33 add	a4, a4, a5
0x80001c7c: 01 01 07 93 addi	a5, sp, 16
0x80001c80: 00 f7 07 b3 add	a5, a4, a5
0x80001c84: 00 20 06 93 addi	a3, zero, 2
0x80001c88: 80 00 07 37 lui	a4, 524288
0x80001c8c: 2c d7 a0 23 sw	a3, 704(a5)
0x80001c90: ff e7 46 93 xori	a3, a4, -2
0x80001c94: 2c d7 a2 23 sw	a3, 708(a5)
0x80001c98: 2c 07 a6 03 lw	a2, 704(a5)
0x80001c9c: 2c 47 a6 83 lw	a3, 708(a5)
0x80001ca0: 00 d6 06 b3 add	a3, a2, a3
0x80001ca4: 08 e6 80 63 beq	a3, a4, 0x80001d24
0x80001d24: 00 00 57 37 lui	a4, 5
0x80001d28: ff ff d7 b7 lui	a5, 1048573
0x80001d2c: 19 07 07 13 addi	a4, a4, 400
0x80001d30: 00 f7 07 33 add	a4, a4, a5
0x80001d34: 01 01 07 93 addi	a5, sp, 16
0x80001d38: 00 f7 07 b3 add	a5, a4, a5
0x80001d3c: 00 20 06 93 addi	a3, zero, 2
0x80001d40: 80 00 07 37 lui	a4, 524288
0x80001d44: 2c d7 a4 23 sw	a3, 712(a5)
0x80001d48: ff f7 46 93 xori	a3, a4, -1
0x80001d4c: 2c d7 a6 23 sw	a3, 716(a5)
0x80001d50: 2c 87 a6 03 lw	a2, 712(a5)
0x80001d54: 2c c7 a6 83 lw	a3, 716(a5)
0x80001d58: 00 17 07 13 addi	a4, a4, 1
0x80001d5c: 00 d6 06 b3 add	a3, a2, a3
0x80001d60: 08 e6 80 63 beq	a3, a4, 0x80001de0
0x80001de0: 00 00 57 37 lui	a4, 5
0x80001de4: ff ff d7 b7 lui	a5, 1048573
0x80001de8: 19 07 07 13 addi	a4, a4, 400
0x80001dec: 00 f7 07 33 add	a4, a4, a5
0x80001df0: 01 01 07 93 addi	a5, sp, 16
0x80001df4: 00 f7 07 b3 add	a5, a4, a5
0x80001df8: 80 00 07 37 lui	a4, 524288
0x80001dfc: ff e7 47 13 xori	a4, a4, -2
0x80001e00: 2c e7 a8 23 sw	a4, 720(a5)
0x80001e04: 2c e7 aa 23 sw	a4, 724(a5)
0x80001e08: 2d 07 a6 03 lw	a2, 720(a5)
0x80001e0c: 2d 47 a6 83 lw	a3, 724(a5)
0x80001e10: ff c0 07 13 addi	a4, zero, -4
0x80001e14: 00 d6 06 b3 add	a3, a2, a3
0x80001e18: 08 e6 80 63 beq	a3, a4, 0x80001e98
0x80001e98: 00 00 56 b7 lui	a3, 5
0x80001e9c: ff ff d7 b7 lui	a5, 1048573
0x80001ea0: 19 06 86 93 addi	a3, a3, 400
0x80001ea4: 00 f6 86 b3 add	a3, a3, a5
0x80001ea8: 80 00 07 37 lui	a4, 524288
0x80001eac: 01 01 07 93 addi	a5, sp, 16
0x80001eb0: 00 f6 87 b3 add	a5, a3, a5
0x80001eb4: ff e7 46 93 xori	a3, a4, -2
0x80001eb8: 2c d7 ac 23 sw	a3, 728(a5)
0x80001ebc: ff f7 47 13 xori	a4, a4, -1
0x80001ec0: 2c e7 ae 23 sw	a4, 732(a5)
0x80001ec4: 2d 87 a6 03 lw	a2, 728(a5)
0x80001ec8: 2d c7 a6 83 lw	a3, 732(a5)
0x80001ecc: ff d0 07 13 addi	a4, zero, -3
0x80001ed0: 00 d6 06 b3 add	a3, a2, a3
0x80001ed4: 08 e6 80 63 beq	a3, a4, 0x80001f54
0x80001f54: 00 00 57 37 lui	a4, 5
0x80001f58: ff ff d7 b7 lui	a5, 1048573
0x80001f5c: 19 07 07 13 addi	a4, a4, 400
0x80001f60: 00 f7 07 33 add	a4, a4, a5
0x80001f64: 01 01 07 93 addi	a5, sp, 16
0x80001f68: 00 f7 07 b3 add	a5, a4, a5
0x80001f6c: 80 00 07 37 lui	a4, 524288
0x80001f70: ff f7 47 13 xori	a4, a4, -1
0x80001f74: 2e e7 a0 23 sw	a4, 736(a5)
0x80001f78: 2e e7 a2 23 sw	a4, 740(a5)
0x80001f7c: 2e 07 a6 03 lw	a2, 736(a5)
0x80001f80: 2e 47 a6 83 lw	a3, 740(a5)
0x80001f84: ff e0 07 13 addi	a4, zero, -2
0x80001f88: 00 d6 06 b3 add	a3, a2, a3
0x80001f8c: 08 e6 80 63 beq	a3, a4, 0x8000200c
0x8000200c: 00 00 57 37 lui	a4, 5
0x80002010: ff ff d7 b7 lui	a5, 1048573
0x80002014: 19 07 07 13 addi	a4, a4, 400
0x80002018: 00 f7 07 33 add	a4, a4, a5
0x8000201c: 01 01 07 93 addi	a5, sp, 16
0x80002020: 00 f7 07 b3 add	a5, a4, a5
0x80002024: 80 00 07 37 lui	a4, 524288
0x80002028: 2e e7 a4 23 sw	a4, 744(a5)
0x8000202c: 2e e7 a6 23 sw	a4, 748(a5)
0x80002030: 2e 87 a6 83 lw	a3, 744(a5)
0x80002034: 2e c7 a7 03 lw	a4, 748(a5)
0x80002038: 06 e6 8c 63 beq	a3, a4, 0x800020b0
0x800020b0: 00 00 57 37 lui	a4, 5
0x800020b4: ff ff d7 b7 lui	a5, 1048573
0x800020b8: 19 07 07 13 addi	a4, a4, 400
0x800020bc: 00 f7 07 33 add	a4, a4, a5
0x800020c0: 01 01 07 93 addi	a5, sp, 16
0x800020c4: 00 f7 07 b3 add	a5, a4, a5
0x800020c8: 80 00 07 37 lui	a4, 524288
0x800020cc: 2e e7 a8 23 sw	a4, 752(a5)
0x800020d0: 00 17 07 13 addi	a4, a4, 1
0x800020d4: 2e e7 aa 23 sw	a4, 756(a5)
0x800020d8: 2f 07 a6 03 lw	a2, 752(a5)
0x800020dc: 2f 47 a6 83 lw	a3, 756(a5)
0x800020e0: ff f0 07 13 addi	a4, zero, -1
0x800020e4: 40 d6 06 b3 sub	a3, a2, a3
0x800020e8: 08 e6 80 63 beq	a3, a4, 0x80002168
0x80002168: 00 00 57 37 lui	a4, 5
0x8000216c: ff ff d7 b7 lui	a5, 1048573
0x80002170: 19 07 07 13 addi	a4, a4, 400
0x80002174: 00 f7 07 33 add	a4, a4, a5
0x80002178: 01 01 07 93 addi	a5, sp, 16
0x8000217c: 00 f7 07 b3 add	a5, a4, a5
0x80002180: 80 00 07 37 lui	a4, 524288
0x80002184: 2e e7 ac 23 sw	a4, 760(a5)
0x80002188: ff e0 06 93 addi	a3, zero, -2
0x8000218c: 2e d7 ae 23 sw	a3, 764(a5)
0x80002190: 2f 87 a6 03 lw	a2, 760(a5)
0x80002194: 2f c7 a6 83 lw	a3, 764(a5)
0x80002198: 00 27 07 13 addi	a4, a4, 2
0x8000219c: 40 d6 06 b3 sub	a3, a2, a3
0x800021a0: 08 e6 80 63 beq	a3, a4, 0x80002220
0x80002220: 00 00 57 37 lui	a4, 5
0x80002224: ff ff d7 b7 lui	a5, 1048573
0x80002228: 19 07 07 13 addi	a4, a4, 400
0x8000222c: 00 f7 07 33 add	a4, a4, a5
0x80002230: 01 01 07 93 addi	a5, sp, 16
0x80002234: 00 f7 07 b3 add	a5, a4, a5
0x80002238: 80 00 07 37 lui	a4, 524288
0x8000223c: 30 e7 a0 23 sw	a4, 768(a5)
0x80002240: ff f0 06 93 addi	a3, zero, -1
0x80002244: 30 d7 a2 23 sw	a3, 772(a5)
0x80002248: 30 07 a6 03 lw	a2, 768(a5)
0x8000224c: 30 47 a6 83 lw	a3, 772(a5)
0x80002250: 00 17 07 13 addi	a4, a4, 1
0x80002254: 40 d6 06 b3 sub	a3, a2, a3
0x80002258: 08 e6 80 63 beq	a3, a4, 0x800022d8
0x800022d8: 00 00 57 37 lui	a4, 5
0x800022dc: ff ff d7 b7 lui	a5, 1048573
0x800022e0: 19 07 07 13 addi	a4, a4, 400
0x800022e4: 00 f7 07 33 add	a4, a4, a5
0x800022e8: 01 01 07 93 addi	a5, sp, 16
0x800022ec: 00 f7 07 b3 add	a5, a4, a5
0x800022f0: 80 00 07 37 lui	a4, 524288
0x800022f4: 30 e7 a4 23 sw	a4, 776(a5)
0x800022f8: 30 07 a6 23 sw	zero, 780(a5)
0x800022fc: 30 87 a6 03 lw	a2, 776(a5)
0x80002300: 30 c7 a6 83 lw	a3, 780(a5)
0x80002304: 40 d6 06 b3 sub	a3, a2, a3
0x80002308: 06 e6 8e 63 beq	a3, a4, 0x80002384
0x80002384: 00 00 57 37 lui	a4, 5
0x80002388: ff ff d7 b7 lui	a5, 1048573
0x8000238c: 19 07 07 13 addi	a4, a4, 400
0x80002390: 00 f7 07 33 add	a4, a4, a5
0x80002394: 01 01 07 93 addi	a5, sp, 16
0x80002398: 00 f7 07 b3 add	a5, a4, a5
0x8000239c: 80 00 07 37 lui	a4, 524288
0x800023a0: 30 e7 a8 23 sw	a4, 784(a5)
0x800023a4: 00 10 06 93 addi	a3, zero, 1
0x800023a8: 30 d7 aa 23 sw	a3, 788(a5)
0x800023ac: 31 07 a6 03 lw	a2, 784(a5)
0x800023b0: 31 47 a6 83 lw	a3, 788(a5)
0x800023b4: ff f7 47 13 xori	a4, a4, -1
0x800023b8: 40 d6 06 b3 sub	a3, a2, a3
0x800023bc: 08 e6 80 63 beq	a3, a4, 0x8000243c
0x8000243c: 00 00 57 37 lui	a4, 5
0x80002440: ff ff d7 b7 lui	a5, 1048573
0x80002444: 19 07 07 13 addi	a4, a4, 400
0x80002448: 00 f7 07 33 add	a4, a4, a5
0x8000244c: 01 01 07 93 addi	a5, sp, 16
0x80002450: 00 f7 07 b3 add	a5, a4, a5
0x80002454: 80 00 07 37 lui	a4, 524288
0x80002458: 30 e7 ac 23 sw	a4, 792(a5)
0x8000245c: 00 20 06 93 addi	a3, zero, 2
0x80002460: 30 d7 ae 23 sw	a3, 796(a5)
0x80002464: 31 87 a6 03 lw	a2, 792(a5)
0x80002468: 31 c7 a6 83 lw	a3, 796(a5)
0x8000246c: ff e7 47 13 xori	a4, a4, -2
0x80002470: 40 d6 06 b3 sub	a3, a2, a3
0x80002474: 08 e6 80 63 beq	a3, a4, 0x800024f4
0x800024f4: 00 00 57 37 lui	a4, 5
0x800024f8: ff ff d7 b7 lui	a5, 1048573
0x800024fc: 19 07 07 13 addi	a4, a4, 400
0x80002500: 00 f7 07 33 add	a4, a4, a5
0x80002504: 01 01 07 93 addi	a5, sp, 16
0x80002508: 00 f7 07 b3 add	a5, a4, a5
0x8000250c: 80 00 07 37 lui	a4, 524288
0x80002510: 32 e7 a0 23 sw	a4, 800(a5)
0x80002514: ff e7 47 13 xori	a4, a4, -2
0x80002518: 32 e7 a2 23 sw	a4, 804(a5)
0x8000251c: 32 07 a6 03 lw	a2, 800(a5)
0x80002520: 32 47 a6 83 lw	a3, 804(a5)
0x80002524: 00 20 07 13 addi	a4, zero, 2
0x80002528: 40 d6 06 b3 sub	a3, a2, a3
0x8000252c: 08 e6 80 63 beq	a3, a4, 0x800025ac
0x800025ac: 00 00 57 37 lui	a4, 5
0x800025b0: ff ff d7 b7 lui	a5, 1048573
0x800025b4: 19 07 07 13 addi	a4, a4, 400
0x800025b8: 00 f7 07 33 add	a4, a4, a5
0x800025bc: 01 01 07 93 addi	a5, sp, 16
0x800025c0: 00 f7 07 b3 add	a5, a4, a5
0x800025c4: 80 00 07 37 lui	a4, 524288
0x800025c8: 32 e7 a4 23 sw	a4, 808(a5)
0x800025cc: ff f7 47 13 xori	a4, a4, -1
0x800025d0: 32 e7 a6 23 sw	a4, 812(a5)
0x800025d4: 32 87 a6 03 lw	a2, 808(a5)
0x800025d8: 32 c7 a6 83 lw	a3, 812(a5)
0x800025dc: 00 10 07 13 addi	a4, zero, 1
0x800025e0: 40 d6 06 b3 sub	a3, a2, a3
0x800025e4: 08 e6 80 63 beq	a3, a4, 0x80002664
0x80002664: 00 00 57 37 lui	a4, 5
0x80002668: ff ff d7 b7 lui	a5, 1048573
0x8000266c: 19 07 07 13 addi	a4, a4, 400
0x80002670: 00 f7 07 33 add	a4, a4, a5
0x80002674: 01 01 07 93 addi	a5, sp, 16
0x80002678: 00 f7 07 b3 add	a5, a4, a5
0x8000267c: 80 00 07 37 lui	a4, 524288
0x80002680: 00 17 07 13 addi	a4, a4, 1
0x80002684: 32 e7 a8 23 sw	a4, 816(a5)
0x80002688: 32 e7 aa 23 sw	a4, 820(a5)
0x8000268c: 33 07 a6 83 lw	a3, 816(a5)
0x80002690: 33 47 a7 03 lw	a4, 820(a5)
0x80002694: 06 e6 8e 63 beq	a3, a4, 0x80002710
0x80002710: 00 00 56 b7 lui	a3, 5
0x80002714: ff ff d7 b7 lui	a5, 1048573
0x80002718: 19 06 86 93 addi	a3, a3, 400
0x8000271c: 00 f6 86 b3 add	a3, a3, a5
0x80002720: 80 00 07 37 lui	a4, 524288
0x80002724: 01 01 07 93 addi	a5, sp, 16
0x80002728: 00 f6 87 b3 add	a5, a3, a5
0x8000272c: 00 17 06 93 addi	a3, a4, 1
0x80002730: 32 d7 ac 23 sw	a3, 824(a5)
0x80002734: ff e0 06 93 addi	a3, zero, -2
0x80002738: 32 d7 ae 23 sw	a3, 828(a5)
0x8000273c: 33 87 a6 03 lw	a2, 824(a5)
0x80002740: 33 c7 a6 83 lw	a3, 828(a5)
0x80002744: 00 37 07 13 addi	a4, a4, 3
0x80002748: 40 d6 06 b3 sub	a3, a2, a3
0x8000274c: 08 e6 80 63 beq	a3, a4, 0x800027cc
0x800027cc: 00 00 56 b7 lui	a3, 5
0x800027d0: ff ff d7 b7 lui	a5, 1048573
0x800027d4: 19 06 86 93 addi	a3, a3, 400
0x800027d8: 00 f6 86 b3 add	a3, a3, a5
0x800027dc: 80 00 07 37 lui	a4, 524288
0x800027e0: 01 01 07 93 addi	a5, sp, 16
0x800027e4: 00 f6 87 b3 add	a5, a3, a5
0x800027e8: 00 17 06 93 addi	a3, a4, 1
0x800027ec: 34 d7 a0 23 sw	a3, 832(a5)
0x800027f0: ff f0 06 93 addi	a3, zero, -1
0x800027f4: 34 d7 a2 23 sw	a3, 836(a5)
0x800027f8: 34 07 a6 03 lw	a2, 832(a5)
0x800027fc: 34 47 a6 83 lw	a3, 836(a5)
0x80002800: 00 27 07 13 addi	a4, a4, 2
0x80002804: 40 d6 06 b3 sub	a3, a2, a3
0x80002808: 08 e6 80 63 beq	a3, a4, 0x80002888
0x80002888: 00 00 57 37 lui	a4, 5
0x8000288c: ff ff d7 b7 lui	a5, 1048573
0x80002890: 19 07 07 13 addi	a4, a4, 400
0x80002894: 00 f7 07 33 add	a4, a4, a5
0x80002898: 01 01 07 93 addi	a5, sp, 16
0x8000289c: 00 f7 07 b3 add	a5, a4, a5
0x800028a0: 80 00 07 37 lui	a4, 524288
0x800028a4: 00 17 07 13 addi	a4, a4, 1
0x800028a8: 34 e7 a4 23 sw	a4, 840(a5)
0x800028ac: 34 07 a6 23 sw	zero, 844(a5)
0x800028b0: 34 87 a6 03 lw	a2, 840(a5)
0x800028b4: 34 c7 a6 83 lw	a3, 844(a5)
0x800028b8: 40 d6 06 b3 sub	a3, a2, a3
0x800028bc: 08 e6 80 63 beq	a3, a4, 0x8000293c
0x8000293c: 00 00 56 b7 lui	a3, 5
0x80002940: ff ff d7 b7 lui	a5, 1048573
0x80002944: 19 06 86 93 addi	a3, a3, 400
0x80002948: 00 f6 86 b3 add	a3, a3, a5
0x8000294c: 80 00 07 37 lui	a4, 524288
0x80002950: 01 01 07 93 addi	a5, sp, 16
0x80002954: 00 f6 87 b3 add	a5, a3, a5
0x80002958: 00 17 06 93 addi	a3, a4, 1
0x8000295c: 34 d7 a8 23 sw	a3, 848(a5)
0x80002960: 00 10 06 93 addi	a3, zero, 1
0x80002964: 34 d7 aa 23 sw	a3, 852(a5)
0x80002968: 35 07 a6 03 lw	a2, 848(a5)
0x8000296c: 35 47 a6 83 lw	a3, 852(a5)
0x80002970: 40 d6 06 b3 sub	a3, a2, a3
0x80002974: 08 e6 80 63 beq	a3, a4, 0x800029f4
0x800029f4: 00 00 56 b7 lui	a3, 5
0x800029f8: ff ff d7 b7 lui	a5, 1048573
0x800029fc: 19 06 86 93 addi	a3, a3, 400
0x80002a00: 00 f6 86 b3 add	a3, a3, a5
0x80002a04: 80 00 07 37 lui	a4, 524288
0x80002a08: 01 01 07 93 addi	a5, sp, 16
0x80002a0c: 00 f6 87 b3 add	a5, a3, a5
0x80002a10: 00 17 06 93 addi	a3, a4, 1
0x80002a14: 34 d7 ac 23 sw	a3, 856(a5)
0x80002a18: 00 20 06 93 addi	a3, zero, 2
0x80002a1c: 34 d7 ae 23 sw	a3, 860(a5)
0x80002a20: 35 87 a6 03 lw	a2, 856(a5)
0x80002a24: 35 c7 a6 83 lw	a3, 860(a5)
0x80002a28: ff f7 47 13 xori	a4, a4, -1
0x80002a2c: 40 d6 06 b3 sub	a3, a2, a3
0x80002a30: 08 e6 80 63 beq	a3, a4, 0x80002ab0
0x80002ab0: 00 00 56 b7 lui	a3, 5
0x80002ab4: ff ff d7 b7 lui	a5, 1048573
0x80002ab8: 19 06 86 93 addi	a3, a3, 400
0x80002abc: 00 f6 86 b3 add	a3, a3, a5
0x80002ac0: 80 00 07 37 lui	a4, 524288
0x80002ac4: 01 01 07 93 addi	a5, sp, 16
0x80002ac8: 00 f6 87 b3 add	a5, a3, a5
0x80002acc: 00 17 06 93 addi	a3, a4, 1
0x80002ad0: 36 d7 a0 23 sw	a3, 864(a5)
0x80002ad4: ff e7 47 13 xori	a4, a4, -2
0x80002ad8: 36 e7 a2 23 sw	a4, 868(a5)
0x80002adc: 36 07 a6 03 lw	a2, 864(a5)
0x80002ae0: 36 47 a6 83 lw	a3, 868(a5)
0x80002ae4: 00 30 07 13 addi	a4, zero, 3
0x80002ae8: 40 d6 06 b3 sub	a3, a2, a3
0x80002aec: 08 e6 80 63 beq	a3, a4, 0x80002b6c
0x80002b6c: 00 00 56 b7 lui	a3, 5
0x80002b70: ff ff d7 b7 lui	a5, 1048573
0x80002b74: 19 06 86 93 addi	a3, a3, 400
0x80002b78: 00 f6 86 b3 add	a3, a3, a5
0x80002b7c: 80 00 07 37 lui	a4, 524288
0x80002b80: 01 01 07 93 addi	a5, sp, 16
0x80002b84: 00 f6 87 b3 add	a5, a3, a5
0x80002b88: 00 17 06 93 addi	a3, a4, 1
0x80002b8c: 36 d7 a4 23 sw	a3, 872(a5)
0x80002b90: ff f7 47 13 xori	a4, a4, -1
0x80002b94: 36 e7 a6 23 sw	a4, 876(a5)
0x80002b98: 36 87 a6 03 lw	a2, 872(a5)
0x80002b9c: 36 c7 a6 83 lw	a3, 876(a5)
0x80002ba0: 00 20 07 13 addi	a4, zero, 2
0x80002ba4: 40 d6 06 b3 sub	a3, a2, a3
0x80002ba8: 08 e6 80 63 beq	a3, a4, 0x80002c28
0x80002c28: 00 00 57 37 lui	a4, 5
0x80002c2c: ff ff d7 b7 lui	a5, 1048573
0x80002c30: 19 07 07 13 addi	a4, a4, 400
0x80002c34: 00 f7 07 33 add	a4, a4, a5
0x80002c38: 01 01 07 93 addi	a5, sp, 16
0x80002c3c: 00 f7 07 b3 add	a5, a4, a5
0x80002c40: ff e0 07 13 addi	a4, zero, -2
0x80002c44: 36 e7 a8 23 sw	a4, 880(a5)
0x80002c48: 36 e7 aa 23 sw	a4, 884(a5)
0x80002c4c: 37 07 a6 83 lw	a3, 880(a5)
0x80002c50: 37 47 a7 03 lw	a4, 884(a5)
0x80002c54: 06 e6 8c 63 beq	a3, a4, 0x80002ccc
0x80002ccc: 00 00 57 37 lui	a4, 5
0x80002cd0: ff ff d7 b7 lui	a5, 1048573
0x80002cd4: 19 07 07 13 addi	a4, a4, 400
0x80002cd8: 00 f7 07 33 add	a4, a4, a5
0x80002cdc: 01 01 07 93 addi	a5, sp, 16
0x80002ce0: 00 f7 07 b3 add	a5, a4, a5
0x80002ce4: ff e0 07 13 addi	a4, zero, -2
0x80002ce8: 36 e7 ac 23 sw	a4, 888(a5)
0x80002cec: ff f0 07 13 addi	a4, zero, -1
0x80002cf0: 36 e7 ae 23 sw	a4, 892(a5)
0x80002cf4: 37 87 a6 03 lw	a2, 888(a5)
0x80002cf8: 37 c7 a6 83 lw	a3, 892(a5)
0x80002cfc: 40 d6 06 b3 sub	a3, a2, a3
0x80002d00: 06 e6 8e 63 beq	a3, a4, 0x80002d7c
0x80002d7c: 00 00 57 37 lui	a4, 5
0x80002d80: ff ff d7 b7 lui	a5, 1048573
0x80002d84: 19 07 07 13 addi	a4, a4, 400
0x80002d88: 00 f7 07 33 add	a4, a4, a5
0x80002d8c: 01 01 07 93 addi	a5, sp, 16
0x80002d90: 00 f7 07 b3 add	a5, a4, a5
0x80002d94: ff e0 07 13 addi	a4, zero, -2
0x80002d98: 38 e7 a0 23 sw	a4, 896(a5)
0x80002d9c: 38 07 a2 23 sw	zero, 900(a5)
0x80002da0: 38 07 a6 03 lw	a2, 896(a5)
0x80002da4: 38 47 a6 83 lw	a3, 900(a5)
0x80002da8: 40 d6 06 b3 sub	a3, a2, a3
0x80002dac: 06 e6 8e 63 beq	a3, a4, 0x80002e28
0x80002e28: 00 00 57 37 lui	a4, 5
0x80002e2c: ff ff d7 b7 lui	a5, 1048573
0x80002e30: 19 07 07 13 addi	a4, a4, 400
0x80002e34: 00 f7 07 33 add	a4, a4, a5
0x80002e38: 01 01 07 93 addi	a5, sp, 16
0x80002e3c: 00 f7 07 b3 add	a5, a4, a5
0x80002e40: ff e0 07 13 addi	a4, zero, -2
0x80002e44: 38 e7 a4 23 sw	a4, 904(a5)
0x80002e48: 00 10 07 13 addi	a4, zero, 1
0x80002e4c: 38 e7 a6 23 sw	a4, 908(a5)
0x80002e50: 38 87 a6 03 lw	a2, 904(a5)
0x80002e54: 38 c7 a6 83 lw	a3, 908(a5)
0x80002e58: ff d0 07 13 addi	a4, zero, -3
0x80002e5c: 40 d6 06 b3 sub	a3, a2, a3
0x80002e60: 06 e6 8e 63 beq	a3, a4, 0x80002edc
0x80002edc: 00 00 57 37 lui	a4, 5
0x80002ee0: ff ff d7 b7 lui	a5, 1048573
0x80002ee4: 19 07 07 13 addi	a4, a4, 400
0x80002ee8: 00 f7 07 33 add	a4, a4, a5
0x80002eec: 01 01 07 93 addi	a5, sp, 16
0x80002ef0: 00 f7 07 b3 add	a5, a4, a5
0x80002ef4: ff e0 07 13 addi	a4, zero, -2
0x80002ef8: 38 e7 a8 23 sw	a4, 912(a5)
0x80002efc: 00 20 07 13 addi	a4, zero, 2
0x80002f00: 38 e7 aa 23 sw	a4, 916(a5)
0x80002f04: 39 07 a6 03 lw	a2, 912(a5)
0x80002f08: 39 47 a6 83 lw	a3, 916(a5)
0x80002f0c: ff c0 07 13 addi	a4, zero, -4
0x80002f10: 40 d6 06 b3 sub	a3, a2, a3
0x80002f14: 06 e6 8e 63 beq	a3, a4, 0x80002f90
0x80002f90: 00 00 57 37 lui	a4, 5
0x80002f94: ff ff d7 b7 lui	a5, 1048573
0x80002f98: 19 07 07 13 addi	a4, a4, 400
0x80002f9c: 00 f7 07 33 add	a4, a4, a5
0x80002fa0: 01 01 07 93 addi	a5, sp, 16
0x80002fa4: 00 f7 07 b3 add	a5, a4, a5
0x80002fa8: ff e0 06 93 addi	a3, zero, -2
0x80002fac: 80 00 07 37 lui	a4, 524288
0x80002fb0: 38 d7 ac 23 sw	a3, 920(a5)
0x80002fb4: ff e7 46 93 xori	a3, a4, -2
0x80002fb8: 38 d7 ae 23 sw	a3, 924(a5)
0x80002fbc: 39 87 a6 03 lw	a2, 920(a5)
0x80002fc0: 39 c7 a6 83 lw	a3, 924(a5)
0x80002fc4: 40 d6 06 b3 sub	a3, a2, a3
0x80002fc8: 08 e6 80 63 beq	a3, a4, 0x80003048
0x80003048: 00 00 57 37 lui	a4, 5
0x8000304c: ff ff d7 b7 lui	a5, 1048573
0x80003050: 19 07 07 13 addi	a4, a4, 400
0x80003054: 00 f7 07 33 add	a4, a4, a5
0x80003058: 01 01 07 93 addi	a5, sp, 16
0x8000305c: 00 f7 07 b3 add	a5, a4, a5
0x80003060: ff e0 07 13 addi	a4, zero, -2
0x80003064: 3a e7 a0 23 sw	a4, 928(a5)
0x80003068: 80 00 07 37 lui	a4, 524288
0x8000306c: ff f7 47 13 xori	a4, a4, -1
0x80003070: 3a e7 a2 23 sw	a4, 932(a5)
0x80003074: 3a 07 a6 03 lw	a2, 928(a5)
0x80003078: 3a 47 a6 83 lw	a3, 932(a5)
0x8000307c: 40 d6 06 b3 sub	a3, a2, a3
0x80003080: 08 e6 80 63 beq	a3, a4, 0x80003100
0x80003100: 00 00 57 37 lui	a4, 5
0x80003104: ff ff d7 b7 lui	a5, 1048573
0x80003108: 19 07 07 13 addi	a4, a4, 400
0x8000310c: 00 f7 07 33 add	a4, a4, a5
0x80003110: 01 01 07 93 addi	a5, sp, 16
0x80003114: 00 f7 07 b3 add	a5, a4, a5
0x80003118: ff f0 07 13 addi	a4, zero, -1
0x8000311c: 3a e7 a4 23 sw	a4, 936(a5)
0x80003120: 3a e7 a6 23 sw	a4, 940(a5)
0x80003124: 3a 87 a6 83 lw	a3, 936(a5)
0x80003128: 3a c7 a7 03 lw	a4, 940(a5)
0x8000312c: 06 e6 8c 63 beq	a3, a4, 0x800031a4
0x800031a4: 00 00 57 37 lui	a4, 5
0x800031a8: ff ff d7 b7 lui	a5, 1048573
0x800031ac: 19 07 07 13 addi	a4, a4, 400
0x800031b0: 00 f7 07 33 add	a4, a4, a5
0x800031b4: 01 01 07 93 addi	a5, sp, 16
0x800031b8: 00 f7 07 b3 add	a5, a4, a5
0x800031bc: ff f0 07 13 addi	a4, zero, -1
0x800031c0: 3a e7 a8 23 sw	a4, 944(a5)
0x800031c4: 3a 07 aa 23 sw	zero, 948(a5)
0x800031c8: 3b 07 a6 03 lw	a2, 944(a5)
0x800031cc: 3b 47 a6 83 lw	a3, 948(a5)
0x800031d0: 40 d6 06 b3 sub	a3, a2, a3
0x800031d4: 06 e6 8e 63 beq	a3, a4, 0x80003250
0x80003250: 00 00 57 37 lui	a4, 5
0x80003254: ff ff d7 b7 lui	a5, 1048573
0x80003258: 19 07 07 13 addi	a4, a4, 400
0x8000325c: 00 f7 07 33 add	a4, a4, a5
0x80003260: 01 01 07 93 addi	a5, sp, 16
0x80003264: 00 f7 07 b3 add	a5, a4, a5
0x80003268: ff f0 07 13 addi	a4, zero, -1
0x8000326c: 3a e7 ac 23 sw	a4, 952(a5)
0x80003270: 00 10 07 13 addi	a4, zero, 1
0x80003274: 3a e7 ae 23 sw	a4, 956(a5)
0x80003278: 3b 87 a6 03 lw	a2, 952(a5)
0x8000327c: 3b c7 a6 83 lw	a3, 956(a5)
0x80003280: ff e0 07 13 addi	a4, zero, -2
0x80003284: 40 d6 06 b3 sub	a3, a2, a3
0x80003288: 06 e6 8e 63 beq	a3, a4, 0x80003304
0x80003304: 00 00 57 37 lui	a4, 5
0x80003308: ff ff d7 b7 lui	a5, 1048573
0x8000330c: 19 07 07 13 addi	a4, a4, 400
0x80003310: 00 f7 07 33 add	a4, a4, a5
0x80003314: 01 01 07 93 addi	a5, sp, 16
0x80003318: 00 f7 07 b3 add	a5, a4, a5
0x8000331c: ff f0 07 13 addi	a4, zero, -1
0x80003320: 3c e7 a0 23 sw	a4, 960(a5)
0x80003324: 00 20 07 13 addi	a4, zero, 2
0x80003328: 3c e7 a2 23 sw	a4, 964(a5)
0x8000332c: 3c 07 a6 03 lw	a2, 960(a5)
0x80003330: 3c 47 a6 83 lw	a3, 964(a5)
0x80003334: ff d0 07 13 addi	a4, zero, -3
0x80003338: 40 d6 06 b3 sub	a3, a2, a3
0x8000333c: 06 e6 8e 63 beq	a3, a4, 0x800033b8
0x800033b8: 00 00 57 37 lui	a4, 5
0x800033bc: ff ff d7 b7 lui	a5, 1048573
0x800033c0: 19 07 07 13 addi	a4, a4, 400
0x800033c4: 00 f7 07 33 add	a4, a4, a5
0x800033c8: 01 01 07 93 addi	a5, sp, 16
0x800033cc: 00 f7 07 b3 add	a5, a4, a5
0x800033d0: ff f0 06 93 addi	a3, zero, -1
0x800033d4: 80 00 07 37 lui	a4, 524288
0x800033d8: 3c d7 a4 23 sw	a3, 968(a5)
0x800033dc: ff e7 46 93 xori	a3, a4, -2
0x800033e0: 3c d7 a6 23 sw	a3, 972(a5)
0x800033e4: 3c 87 a6 03 lw	a2, 968(a5)
0x800033e8: 3c c7 a6 83 lw	a3, 972(a5)
0x800033ec: 00 17 07 13 addi	a4, a4, 1
0x800033f0: 40 d6 06 b3 sub	a3, a2, a3
0x800033f4: 08 e6 80 63 beq	a3, a4, 0x80003474
0x80003474: 00 00 57 37 lui	a4, 5
0x80003478: ff ff d7 b7 lui	a5, 1048573
0x8000347c: 19 07 07 13 addi	a4, a4, 400
0x80003480: 00 f7 07 33 add	a4, a4, a5
0x80003484: 01 01 07 93 addi	a5, sp, 16
0x80003488: 00 f7 07 b3 add	a5, a4, a5
0x8000348c: ff f0 06 93 addi	a3, zero, -1
0x80003490: 80 00 07 37 lui	a4, 524288
0x80003494: 3c d7 a8 23 sw	a3, 976(a5)
0x80003498: ff f7 46 93 xori	a3, a4, -1
0x8000349c: 3c d7 aa 23 sw	a3, 980(a5)
0x800034a0: 3d 07 a6 03 lw	a2, 976(a5)
0x800034a4: 3d 47 a6 83 lw	a3, 980(a5)
0x800034a8: 40 d6 06 b3 sub	a3, a2, a3
0x800034ac: 08 e6 80 63 beq	a3, a4, 0x8000352c
0x8000352c: 00 00 57 37 lui	a4, 5
0x80003530: ff ff d7 b7 lui	a5, 1048573
0x80003534: 19 07 07 13 addi	a4, a4, 400
0x80003538: 00 f7 07 33 add	a4, a4, a5
0x8000353c: 01 01 07 93 addi	a5, sp, 16
0x80003540: 00 f7 07 b3 add	a5, a4, a5
0x80003544: 3c 07 ac 23 sw	zero, 984(a5)
0x80003548: 3c 07 ae 23 sw	zero, 988(a5)
0x8000354c: 3d 87 a6 83 lw	a3, 984(a5)
0x80003550: 3d c7 a7 03 lw	a4, 988(a5)
0x80003554: 06 e6 8c 63 beq	a3, a4, 0x800035cc
0x800035cc: 00 00 57 37 lui	a4, 5
0x800035d0: ff ff d7 b7 lui	a5, 1048573
0x800035d4: 19 07 07 13 addi	a4, a4, 400
0x800035d8: 00 f7 07 33 add	a4, a4, a5
0x800035dc: 01 01 07 93 addi	a5, sp, 16
0x800035e0: 00 f7 07 b3 add	a5, a4, a5
0x800035e4: 3e 07 a0 23 sw	zero, 992(a5)
0x800035e8: 00 10 07 13 addi	a4, zero, 1
0x800035ec: 3e e7 a2 23 sw	a4, 996(a5)
0x800035f0: 3e 07 a6 03 lw	a2, 992(a5)
0x800035f4: 3e 47 a6 83 lw	a3, 996(a5)
0x800035f8: ff f0 07 13 addi	a4, zero, -1
0x800035fc: 40 d6 06 b3 sub	a3, a2, a3
0x80003600: 06 e6 8e 63 beq	a3, a4, 0x8000367c
0x8000367c: 00 00 57 37 lui	a4, 5
0x80003680: ff ff d7 b7 lui	a5, 1048573
0x80003684: 19 07 07 13 addi	a4, a4, 400
0x80003688: 00 f7 07 33 add	a4, a4, a5
0x8000368c: 01 01 07 93 addi	a5, sp, 16
0x80003690: 00 f7 07 b3 add	a5, a4, a5
0x80003694: 3e 07 a4 23 sw	zero, 1000(a5)
0x80003698: 00 20 07 13 addi	a4, zero, 2
0x8000369c: 3e e7 a6 23 sw	a4, 1004(a5)
0x800036a0: 3e 87 a6 03 lw	a2, 1000(a5)
0x800036a4: 3e c7 a6 83 lw	a3, 1004(a5)
0x800036a8: ff e0 07 13 addi	a4, zero, -2
0x800036ac: 40 d6 06 b3 sub	a3, a2, a3
0x800036b0: 06 e6 8e 63 beq	a3, a4, 0x8000372c
0x8000372c: 00 00 57 37 lui	a4, 5
0x80003730: ff ff d7 b7 lui	a5, 1048573
0x80003734: 19 07 07 13 addi	a4, a4, 400
0x80003738: 00 f7 07 33 add	a4, a4, a5
0x8000373c: 01 01 07 93 addi	a5, sp, 16
0x80003740: 00 f7 07 b3 add	a5, a4, a5
0x80003744: 80 00 07 37 lui	a4, 524288
0x80003748: 3e 07 a8 23 sw	zero, 1008(a5)
0x8000374c: ff e7 46 93 xori	a3, a4, -2
0x80003750: 3e d7 aa 23 sw	a3, 1012(a5)
0x80003754: 3f 07 a6 03 lw	a2, 1008(a5)
0x80003758: 3f 47 a6 83 lw	a3, 1012(a5)
0x8000375c: 00 27 07 13 addi	a4, a4, 2
0x80003760: 40 d6 06 b3 sub	a3, a2, a3
0x80003764: 08 e6 80 63 beq	a3, a4, 0x800037e4
0x800037e4: 00 00 57 37 lui	a4, 5
0x800037e8: ff ff d7 b7 lui	a5, 1048573
0x800037ec: 19 07 07 13 addi	a4, a4, 400
0x800037f0: 00 f7 07 33 add	a4, a4, a5
0x800037f4: 01 01 07 93 addi	a5, sp, 16
0x800037f8: 00 f7 07 b3 add	a5, a4, a5
0x800037fc: 80 00 07 37 lui	a4, 524288
0x80003800: 3e 07 ac 23 sw	zero, 1016(a5)
0x80003804: ff f7 46 93 xori	a3, a4, -1
0x80003808: 3e d7 ae 23 sw	a3, 1020(a5)
0x8000380c: 3f 87 a6 03 lw	a2, 1016(a5)
0x80003810: 3f c7 a6 83 lw	a3, 1020(a5)
0x80003814: 00 17 07 13 addi	a4, a4, 1
0x80003818: 40 d6 06 b3 sub	a3, a2, a3
0x8000381c: 08 e6 80 63 beq	a3, a4, 0x8000389c
0x8000389c: 00 00 57 37 lui	a4, 5
0x800038a0: ff ff d7 b7 lui	a5, 1048573
0x800038a4: 19 07 07 13 addi	a4, a4, 400
0x800038a8: 00 f7 07 33 add	a4, a4, a5
0x800038ac: 01 01 07 93 addi	a5, sp, 16
0x800038b0: 00 f7 07 b3 add	a5, a4, a5
0x800038b4: 00 10 07 13 addi	a4, zero, 1
0x800038b8: 40 e7 a0 23 sw	a4, 1024(a5)
0x800038bc: 40 e7 a2 23 sw	a4, 1028(a5)
0x800038c0: 40 07 a6 83 lw	a3, 1024(a5)
0x800038c4: 40 47 a7 03 lw	a4, 1028(a5)
0x800038c8: 06 e6 8c 63 beq	a3, a4, 0x80003940
0x80003940: 00 00 57 37 lui	a4, 5
0x80003944: ff ff d7 b7 lui	a5, 1048573
0x80003948: 19 07 07 13 addi	a4, a4, 400
0x8000394c: 00 f7 07 33 add	a4, a4, a5
0x80003950: 01 01 07 93 addi	a5, sp, 16
0x80003954: 00 f7 07 b3 add	a5, a4, a5
0x80003958: 00 10 07 13 addi	a4, zero, 1
0x8000395c: 40 e7 a4 23 sw	a4, 1032(a5)
0x80003960: 00 20 07 13 addi	a4, zero, 2
0x80003964: 40 e7 a6 23 sw	a4, 1036(a5)
0x80003968: 40 87 a6 03 lw	a2, 1032(a5)
0x8000396c: 40 c7 a6 83 lw	a3, 1036(a5)
0x80003970: ff f0 07 13 addi	a4, zero, -1
0x80003974: 40 d6 06 b3 sub	a3, a2, a3
0x80003978: 06 e6 8e 63 beq	a3, a4, 0x800039f4
0x800039f4: 00 00 57 37 lui	a4, 5
0x800039f8: ff ff d7 b7 lui	a5, 1048573
0x800039fc: 19 07 07 13 addi	a4, a4, 400
0x80003a00: 00 f7 07 33 add	a4, a4, a5
0x80003a04: 01 01 07 93 addi	a5, sp, 16
0x80003a08: 00 f7 07 b3 add	a5, a4, a5
0x80003a0c: 00 10 06 93 addi	a3, zero, 1
0x80003a10: 80 00 07 37 lui	a4, 524288
0x80003a14: 40 d7 a8 23 sw	a3, 1040(a5)
0x80003a18: ff e7 46 93 xori	a3, a4, -2
0x80003a1c: 40 d7 aa 23 sw	a3, 1044(a5)
0x80003a20: 41 07 a6 03 lw	a2, 1040(a5)
0x80003a24: 41 47 a6 83 lw	a3, 1044(a5)
0x80003a28: 00 37 07 13 addi	a4, a4, 3
0x80003a2c: 40 d6 06 b3 sub	a3, a2, a3
0x80003a30: 08 e6 80 63 beq	a3, a4, 0x80003ab0
0x80003ab0: 00 00 57 37 lui	a4, 5
0x80003ab4: ff ff d7 b7 lui	a5, 1048573
0x80003ab8: 19 07 07 13 addi	a4, a4, 400
0x80003abc: 00 f7 07 33 add	a4, a4, a5
0x80003ac0: 01 01 07 93 addi	a5, sp, 16
0x80003ac4: 00 f7 07 b3 add	a5, a4, a5
0x80003ac8: 00 10 06 93 addi	a3, zero, 1
0x80003acc: 80 00 07 37 lui	a4, 524288
0x80003ad0: 40 d7 ac 23 sw	a3, 1048(a5)
0x80003ad4: ff f7 46 93 xori	a3, a4, -1
0x80003ad8: 40 d7 ae 23 sw	a3, 1052(a5)
0x80003adc: 41 87 a6 03 lw	a2, 1048(a5)
0x80003ae0: 41 c7 a6 83 lw	a3, 1052(a5)
0x80003ae4: 00 27 07 13 addi	a4, a4, 2
0x80003ae8: 40 d6 06 b3 sub	a3, a2, a3
0x80003aec: 08 e6 80 63 beq	a3, a4, 0x80003b6c
0x80003b6c: 00 00 57 37 lui	a4, 5
0x80003b70: ff ff d7 b7 lui	a5, 1048573
0x80003b74: 19 07 07 13 addi	a4, a4, 400
0x80003b78: 00 f7 07 33 add	a4, a4, a5
0x80003b7c: 01 01 07 93 addi	a5, sp, 16
0x80003b80: 00 f7 07 b3 add	a5, a4, a5
0x80003b84: 00 20 07 13 addi	a4, zero, 2
0x80003b88: 42 e7 a0 23 sw	a4, 1056(a5)
0x80003b8c: 42 e7 a2 23 sw	a4, 1060(a5)
0x80003b90: 42 07 a6 83 lw	a3, 1056(a5)
0x80003b94: 42 47 a7 03 lw	a4, 1060(a5)
0x80003b98: 06 e6 8c 63 beq	a3, a4, 0x80003c10
0x80003c10: 00 00 57 37 lui	a4, 5
0x80003c14: ff ff d7 b7 lui	a5, 1048573
0x80003c18: 19 07 07 13 addi	a4, a4, 400
0x80003c1c: 00 f7 07 33 add	a4, a4, a5
0x80003c20: 01 01 07 93 addi	a5, sp, 16
0x80003c24: 00 f7 07 b3 add	a5, a4, a5
0x80003c28: 00 20 06 93 addi	a3, zero, 2
0x80003c2c: 80 00 07 37 lui	a4, 524288
0x80003c30: 42 d7 a4 23 sw	a3, 1064(a5)
0x80003c34: ff e7 46 93 xori	a3, a4, -2
0x80003c38: 42 d7 a6 23 sw	a3, 1068(a5)
0x80003c3c: 42 87 a6 03 lw	a2, 1064(a5)
0x80003c40: 42 c7 a6 83 lw	a3, 1068(a5)
0x80003c44: 00 47 07 13 addi	a4, a4, 4
0x80003c48: 40 d6 06 b3 sub	a3, a2, a3
0x80003c4c: 08 e6 80 63 beq	a3, a4, 0x80003ccc
0x80003ccc: 00 00 57 37 lui	a4, 5
0x80003cd0: ff ff d7 b7 lui	a5, 1048573
0x80003cd4: 19 07 07 13 addi	a4, a4, 400
0x80003cd8: 00 f7 07 33 add	a4, a4, a5
0x80003cdc: 01 01 07 93 addi	a5, sp, 16
0x80003ce0: 00 f7 07 b3 add	a5, a4, a5
0x80003ce4: 00 20 06 93 addi	a3, zero, 2
0x80003ce8: 80 00 07 37 lui	a4, 524288
0x80003cec: 42 d7 a8 23 sw	a3, 1072(a5)
0x80003cf0: ff f7 46 93 xori	a3, a4, -1
0x80003cf4: 42 d7 aa 23 sw	a3, 1076(a5)
0x80003cf8: 43 07 a6 03 lw	a2, 1072(a5)
0x80003cfc: 43 47 a6 83 lw	a3, 1076(a5)
0x80003d00: 00 37 07 13 addi	a4, a4, 3
0x80003d04: 40 d6 06 b3 sub	a3, a2, a3
0x80003d08: 08 e6 80 63 beq	a3, a4, 0x80003d88
0x80003d88: 00 00 57 37 lui	a4, 5
0x80003d8c: ff ff d7 b7 lui	a5, 1048573
0x80003d90: 19 07 07 13 addi	a4, a4, 400
0x80003d94: 00 f7 07 33 add	a4, a4, a5
0x80003d98: 01 01 07 93 addi	a5, sp, 16
0x80003d9c: 00 f7 07 b3 add	a5, a4, a5
0x80003da0: 80 00 07 37 lui	a4, 524288
0x80003da4: ff e7 47 13 xori	a4, a4, -2
0x80003da8: 42 e7 ac 23 sw	a4, 1080(a5)
0x80003dac: 42 e7 ae 23 sw	a4, 1084(a5)
0x80003db0: 43 87 a6 83 lw	a3, 1080(a5)
0x80003db4: 43 c7 a7 03 lw	a4, 1084(a5)
0x80003db8: 06 e6 8e 63 beq	a3, a4, 0x80003e34
0x80003e34: 00 00 56 b7 lui	a3, 5
0x80003e38: ff ff d7 b7 lui	a5, 1048573
0x80003e3c: 19 06 86 93 addi	a3, a3, 400
0x80003e40: 00 f6 86 b3 add	a3, a3, a5
0x80003e44: 80 00 07 37 lui	a4, 524288
0x80003e48: 01 01 07 93 addi	a5, sp, 16
0x80003e4c: 00 f6 87 b3 add	a5, a3, a5
0x80003e50: ff e7 46 93 xori	a3, a4, -2
0x80003e54: 44 d7 a0 23 sw	a3, 1088(a5)
0x80003e58: ff f7 47 13 xori	a4, a4, -1
0x80003e5c: 44 e7 a2 23 sw	a4, 1092(a5)
0x80003e60: 44 07 a6 03 lw	a2, 1088(a5)
0x80003e64: 44 47 a6 83 lw	a3, 1092(a5)
0x80003e68: ff f0 07 13 addi	a4, zero, -1
0x80003e6c: 40 d6 06 b3 sub	a3, a2, a3
0x80003e70: 08 e6 80 63 beq	a3, a4, 0x80003ef0
0x80003ef0: 00 00 57 37 lui	a4, 5
0x80003ef4: ff ff d7 b7 lui	a5, 1048573
0x80003ef8: 19 07 07 13 addi	a4, a4, 400
0x80003efc: 00 f7 07 33 add	a4, a4, a5
0x80003f00: 01 01 07 93 addi	a5, sp, 16
0x80003f04: 00 f7 07 b3 add	a5, a4, a5
0x80003f08: 80 00 07 37 lui	a4, 524288
0x80003f0c: ff f7 47 13 xori	a4, a4, -1
0x80003f10: 44 e7 a4 23 sw	a4, 1096(a5)
0x80003f14: 44 e7 a6 23 sw	a4, 1100(a5)
0x80003f18: 44 87 a6 83 lw	a3, 1096(a5)
0x80003f1c: 44 c7 a7 03 lw	a4, 1100(a5)
0x80003f20: 06 e6 8e 63 beq	a3, a4, 0x80003f9c
0x80003f9c: 00 00 57 37 lui	a4, 5
0x80003fa0: ff ff d7 b7 lui	a5, 1048573
0x80003fa4: 19 07 07 13 addi	a4, a4, 400
0x80003fa8: 00 f7 07 33 add	a4, a4, a5
0x80003fac: 01 01 07 93 addi	a5, sp, 16
0x80003fb0: 00 f7 07 b3 add	a5, a4, a5
0x80003fb4: 80 00 07 37 lui	a4, 524288
0x80003fb8: 44 e7 a8 23 sw	a4, 1104(a5)
0x80003fbc: 44 e7 aa 23 sw	a4, 1108(a5)
0x80003fc0: 45 07 a6 83 lw	a3, 1104(a5)
0x80003fc4: 45 47 a7 03 lw	a4, 1108(a5)
0x80003fc8: 06 e6 8c 63 beq	a3, a4, 0x80004040
0x80004040: 00 00 57 37 lui	a4, 5
0x80004044: ff ff d7 b7 lui	a5, 1048573
0x80004048: 19 07 07 13 addi	a4, a4, 400
0x8000404c: 00 f7 07 33 add	a4, a4, a5
0x80004050: 01 01 07 93 addi	a5, sp, 16
0x80004054: 00 f7 07 b3 add	a5, a4, a5
0x80004058: 80 00 07 37 lui	a4, 524288
0x8000405c: 44 e7 ac 23 sw	a4, 1112(a5)
0x80004060: 00 17 07 13 addi	a4, a4, 1
0x80004064: 44 e7 ae 23 sw	a4, 1116(a5)
0x80004068: 45 87 a6 03 lw	a2, 1112(a5)
0x8000406c: 45 c7 a6 83 lw	a3, 1116(a5)
0x80004070: 00 10 07 13 addi	a4, zero, 1
0x80004074: 00 d6 46 b3 xor	a3, a2, a3
0x80004078: 08 e6 80 63 beq	a3, a4, 0x800040f8
0x800040f8: 00 00 57 37 lui	a4, 5
0x800040fc: ff ff d7 b7 lui	a5, 1048573
0x80004100: 19 07 07 13 addi	a4, a4, 400
0x80004104: 00 f7 07 33 add	a4, a4, a5
0x80004108: 01 01 07 93 addi	a5, sp, 16
0x8000410c: 00 f7 07 b3 add	a5, a4, a5
0x80004110: 80 00 07 37 lui	a4, 524288
0x80004114: 46 e7 a0 23 sw	a4, 1120(a5)
0x80004118: ff e0 06 93 addi	a3, zero, -2
0x8000411c: 46 d7 a2 23 sw	a3, 1124(a5)
0x80004120: 46 07 a6 03 lw	a2, 1120(a5)
0x80004124: 46 47 a6 83 lw	a3, 1124(a5)
0x80004128: ff e7 47 13 xori	a4, a4, -2
0x8000412c: 00 d6 46 b3 xor	a3, a2, a3
0x80004130: 08 e6 80 63 beq	a3, a4, 0x800041b0
0x800041b0: 00 00 57 37 lui	a4, 5
0x800041b4: ff ff d7 b7 lui	a5, 1048573
0x800041b8: 19 07 07 13 addi	a4, a4, 400
0x800041bc: 00 f7 07 33 add	a4, a4, a5
0x800041c0: 01 01 07 93 addi	a5, sp, 16
0x800041c4: 00 f7 07 b3 add	a5, a4, a5
0x800041c8: 80 00 07 37 lui	a4, 524288
0x800041cc: 46 e7 a4 23 sw	a4, 1128(a5)
0x800041d0: ff f0 06 93 addi	a3, zero, -1
0x800041d4: 46 d7 a6 23 sw	a3, 1132(a5)
0x800041d8: 46 87 a6 03 lw	a2, 1128(a5)
0x800041dc: 46 c7 a6 83 lw	a3, 1132(a5)
0x800041e0: ff f7 47 13 xori	a4, a4, -1
0x800041e4: 00 d6 46 b3 xor	a3, a2, a3
0x800041e8: 08 e6 80 63 beq	a3, a4, 0x80004268
0x80004268: 00 00 57 37 lui	a4, 5
0x8000426c: ff ff d7 b7 lui	a5, 1048573
0x80004270: 19 07 07 13 addi	a4, a4, 400
0x80004274: 00 f7 07 33 add	a4, a4, a5
0x80004278: 01 01 07 93 addi	a5, sp, 16
0x8000427c: 00 f7 07 b3 add	a5, a4, a5
0x80004280: 80 00 07 37 lui	a4, 524288
0x80004284: 46 e7 a8 23 sw	a4, 1136(a5)
0x80004288: 46 07 aa 23 sw	zero, 1140(a5)
0x8000428c: 47 07 a6 03 lw	a2, 1136(a5)
0x80004290: 47 47 a6 83 lw	a3, 1140(a5)
0x80004294: 00 d6 46 b3 xor	a3, a2, a3
0x80004298: 06 e6 8e 63 beq	a3, a4, 0x80004314
0x80004314: 00 00 57 37 lui	a4, 5
0x80004318: ff ff d7 b7 lui	a5, 1048573
0x8000431c: 19 07 07 13 addi	a4, a4, 400
0x80004320: 00 f7 07 33 add	a4, a4, a5
0x80004324: 01 01 07 93 addi	a5, sp, 16
0x80004328: 00 f7 07 b3 add	a5, a4, a5
0x8000432c: 80 00 07 37 lui	a4, 524288
0x80004330: 46 e7 ac 23 sw	a4, 1144(a5)
0x80004334: 00 10 06 93 addi	a3, zero, 1
0x80004338: 46 d7 ae 23 sw	a3, 1148(a5)
0x8000433c: 47 87 a6 03 lw	a2, 1144(a5)
0x80004340: 47 c7 a6 83 lw	a3, 1148(a5)
0x80004344: 00 17 07 13 addi	a4, a4, 1
0x80004348: 00 d6 46 b3 xor	a3, a2, a3
0x8000434c: 08 e6 80 63 beq	a3, a4, 0x800043cc
0x800043cc: 00 00 57 37 lui	a4, 5
0x800043d0: ff ff d7 b7 lui	a5, 1048573
0x800043d4: 19 07 07 13 addi	a4, a4, 400
0x800043d8: 00 f7 07 33 add	a4, a4, a5
0x800043dc: 01 01 07 93 addi	a5, sp, 16
0x800043e0: 00 f7 07 b3 add	a5, a4, a5
0x800043e4: 80 00 07 37 lui	a4, 524288
0x800043e8: 48 e7 a0 23 sw	a4, 1152(a5)
0x800043ec: 00 20 06 93 addi	a3, zero, 2
0x800043f0: 48 d7 a2 23 sw	a3, 1156(a5)
0x800043f4: 48 07 a6 03 lw	a2, 1152(a5)
0x800043f8: 48 47 a6 83 lw	a3, 1156(a5)
0x800043fc: 00 27 07 13 addi	a4, a4, 2
0x80004400: 00 d6 46 b3 xor	a3, a2, a3
0x80004404: 08 e6 80 63 beq	a3, a4, 0x80004484
0x80004484: 00 00 57 37 lui	a4, 5
0x80004488: ff ff d7 b7 lui	a5, 1048573
0x8000448c: 19 07 07 13 addi	a4, a4, 400
0x80004490: 00 f7 07 33 add	a4, a4, a5
0x80004494: 01 01 07 93 addi	a5, sp, 16
0x80004498: 00 f7 07 b3 add	a5, a4, a5
0x8000449c: 80 00 07 37 lui	a4, 524288
0x800044a0: 48 e7 a4 23 sw	a4, 1160(a5)
0x800044a4: ff e7 47 13 xori	a4, a4, -2
0x800044a8: 48 e7 a6 23 sw	a4, 1164(a5)
0x800044ac: 48 87 a6 03 lw	a2, 1160(a5)
0x800044b0: 48 c7 a6 83 lw	a3, 1164(a5)
0x800044b4: ff e0 07 13 addi	a4, zero, -2
0x800044b8: 00 d6 46 b3 xor	a3, a2, a3
0x800044bc: 08 e6 80 63 beq	a3, a4, 0x8000453c
0x8000453c: 00 00 57 37 lui	a4, 5
0x80004540: ff ff d7 b7 lui	a5, 1048573
0x80004544: 19 07 07 13 addi	a4, a4, 400
0x80004548: 00 f7 07 33 add	a4, a4, a5
0x8000454c: 01 01 07 93 addi	a5, sp, 16
0x80004550: 00 f7 07 b3 add	a5, a4, a5
0x80004554: 80 00 07 37 lui	a4, 524288
0x80004558: 48 e7 a8 23 sw	a4, 1168(a5)
0x8000455c: ff f7 47 13 xori	a4, a4, -1
0x80004560: 48 e7 aa 23 sw	a4, 1172(a5)
0x80004564: 49 07 a6 03 lw	a2, 1168(a5)
0x80004568: 49 47 a6 83 lw	a3, 1172(a5)
0x8000456c: ff f0 07 13 addi	a4, zero, -1
0x80004570: 00 d6 46 b3 xor	a3, a2, a3
0x80004574: 08 e6 80 63 beq	a3, a4, 0x800045f4
0x800045f4: 00 00 57 37 lui	a4, 5
0x800045f8: ff ff d7 b7 lui	a5, 1048573
0x800045fc: 19 07 07 13 addi	a4, a4, 400
0x80004600: 00 f7 07 33 add	a4, a4, a5
0x80004604: 01 01 07 93 addi	a5, sp, 16
0x80004608: 00 f7 07 b3 add	a5, a4, a5
0x8000460c: 80 00 07 37 lui	a4, 524288
0x80004610: 00 17 07 13 addi	a4, a4, 1
0x80004614: 48 e7 ac 23 sw	a4, 1176(a5)
0x80004618: 48 e7 ae 23 sw	a4, 1180(a5)
0x8000461c: 49 87 a6 83 lw	a3, 1176(a5)
0x80004620: 49 c7 a7 03 lw	a4, 1180(a5)
0x80004624: 06 e6 8e 63 beq	a3, a4, 0x800046a0
0x800046a0: 00 00 56 b7 lui	a3, 5
0x800046a4: ff ff d7 b7 lui	a5, 1048573
0x800046a8: 19 06 86 93 addi	a3, a3, 400
0x800046ac: 00 f6 86 b3 add	a3, a3, a5
0x800046b0: 80 00 07 37 lui	a4, 524288
0x800046b4: 01 01 07 93 addi	a5, sp, 16
0x800046b8: 00 f6 87 b3 add	a5, a3, a5
0x800046bc: 00 17 06 93 addi	a3, a4, 1
0x800046c0: 4a d7 a0 23 sw	a3, 1184(a5)
0x800046c4: ff e0 06 93 addi	a3, zero, -2
0x800046c8: 4a d7 a2 23 sw	a3, 1188(a5)
0x800046cc: 4a 07 a6 03 lw	a2, 1184(a5)
0x800046d0: 4a 47 a6 83 lw	a3, 1188(a5)
0x800046d4: ff f7 47 13 xori	a4, a4, -1
0x800046d8: 00 d6 46 b3 xor	a3, a2, a3
0x800046dc: 08 e6 80 63 beq	a3, a4, 0x8000475c
0x8000475c: 00 00 56 b7 lui	a3, 5
0x80004760: ff ff d7 b7 lui	a5, 1048573
0x80004764: 19 06 86 93 addi	a3, a3, 400
0x80004768: 00 f6 86 b3 add	a3, a3, a5
0x8000476c: 80 00 07 37 lui	a4, 524288
0x80004770: 01 01 07 93 addi	a5, sp, 16
0x80004774: 00 f6 87 b3 add	a5, a3, a5
0x80004778: 00 17 06 93 addi	a3, a4, 1
0x8000477c: 4a d7 a4 23 sw	a3, 1192(a5)
0x80004780: ff f0 06 93 addi	a3, zero, -1
0x80004784: 4a d7 a6 23 sw	a3, 1196(a5)
0x80004788: 4a 87 a6 03 lw	a2, 1192(a5)
0x8000478c: 4a c7 a6 83 lw	a3, 1196(a5)
0x80004790: ff e7 47 13 xori	a4, a4, -2
0x80004794: 00 d6 46 b3 xor	a3, a2, a3
0x80004798: 08 e6 80 63 beq	a3, a4, 0x80004818
0x80004818: 00 00 57 37 lui	a4, 5
0x8000481c: ff ff d7 b7 lui	a5, 1048573
0x80004820: 19 07 07 13 addi	a4, a4, 400
0x80004824: 00 f7 07 33 add	a4, a4, a5
0x80004828: 01 01 07 93 addi	a5, sp, 16
0x8000482c: 00 f7 07 b3 add	a5, a4, a5
0x80004830: 80 00 07 37 lui	a4, 524288
0x80004834: 00 17 07 13 addi	a4, a4, 1
0x80004838: 4a e7 a8 23 sw	a4, 1200(a5)
0x8000483c: 4a 07 aa 23 sw	zero, 1204(a5)
0x80004840: 4b 07 a6 03 lw	a2, 1200(a5)
0x80004844: 4b 47 a6 83 lw	a3, 1204(a5)
0x80004848: 00 d6 46 b3 xor	a3, a2, a3
0x8000484c: 08 e6 80 63 beq	a3, a4, 0x800048cc
0x800048cc: 00 00 56 b7 lui	a3, 5
0x800048d0: ff ff d7 b7 lui	a5, 1048573
0x800048d4: 19 06 86 93 addi	a3, a3, 400
0x800048d8: 00 f6 86 b3 add	a3, a3, a5
0x800048dc: 80 00 07 37 lui	a4, 524288
0x800048e0: 01 01 07 93 addi	a5, sp, 16
0x800048e4: 00 f6 87 b3 add	a5, a3, a5
0x800048e8: 00 17 06 93 addi	a3, a4, 1
0x800048ec: 4a d7 ac 23 sw	a3, 1208(a5)
0x800048f0: 00 10 06 93 addi	a3, zero, 1
0x800048f4: 4a d7 ae 23 sw	a3, 1212(a5)
0x800048f8: 4b 87 a6 03 lw	a2, 1208(a5)
0x800048fc: 4b c7 a6 83 lw	a3, 1212(a5)
0x80004900: 00 d6 46 b3 xor	a3, a2, a3
0x80004904: 08 e6 80 63 beq	a3, a4, 0x80004984
0x80004984: 00 00 56 b7 lui	a3, 5
0x80004988: ff ff d7 b7 lui	a5, 1048573
0x8000498c: 19 06 86 93 addi	a3, a3, 400
0x80004990: 00 f6 86 b3 add	a3, a3, a5
0x80004994: 80 00 07 37 lui	a4, 524288
0x80004998: 01 01 07 93 addi	a5, sp, 16
0x8000499c: 00 f6 87 b3 add	a5, a3, a5
0x800049a0: 00 17 06 93 addi	a3, a4, 1
0x800049a4: 4c d7 a0 23 sw	a3, 1216(a5)
0x800049a8: 00 20 06 93 addi	a3, zero, 2
0x800049ac: 4c d7 a2 23 sw	a3, 1220(a5)
0x800049b0: 4c 07 a6 03 lw	a2, 1216(a5)
0x800049b4: 4c 47 a6 83 lw	a3, 1220(a5)
0x800049b8: 00 37 07 13 addi	a4, a4, 3
0x800049bc: 00 d6 46 b3 xor	a3, a2, a3
0x800049c0: 08 e6 80 63 beq	a3, a4, 0x80004a40
0x80004a40: 00 00 56 b7 lui	a3, 5
0x80004a44: ff ff d7 b7 lui	a5, 1048573
0x80004a48: 19 06 86 93 addi	a3, a3, 400
0x80004a4c: 00 f6 86 b3 add	a3, a3, a5
0x80004a50: 80 00 07 37 lui	a4, 524288
0x80004a54: 01 01 07 93 addi	a5, sp, 16
0x80004a58: 00 f6 87 b3 add	a5, a3, a5
0x80004a5c: 00 17 06 93 addi	a3, a4, 1
0x80004a60: 4c d7 a4 23 sw	a3, 1224(a5)
0x80004a64: ff e7 47 13 xori	a4, a4, -2
0x80004a68: 4c e7 a6 23 sw	a4, 1228(a5)
0x80004a6c: 4c 87 a6 03 lw	a2, 1224(a5)
0x80004a70: 4c c7 a6 83 lw	a3, 1228(a5)
0x80004a74: ff f0 07 13 addi	a4, zero, -1
0x80004a78: 00 d6 46 b3 xor	a3, a2, a3
0x80004a7c: 08 e6 80 63 beq	a3, a4, 0x80004afc
0x80004afc: 00 00 56 b7 lui	a3, 5
0x80004b00: ff ff d7 b7 lui	a5, 1048573
0x80004b04: 19 06 86 93 addi	a3, a3, 400
0x80004b08: 00 f6 86 b3 add	a3, a3, a5
0x80004b0c: 80 00 07 37 lui	a4, 524288
0x80004b10: 01 01 07 93 addi	a5, sp, 16
0x80004b14: 00 f6 87 b3 add	a5, a3, a5
0x80004b18: 00 17 06 93 addi	a3, a4, 1
0x80004b1c: 4c d7 a8 23 sw	a3, 1232(a5)
0x80004b20: ff f7 47 13 xori	a4, a4, -1
0x80004b24: 4c e7 aa 23 sw	a4, 1236(a5)
0x80004b28: 4d 07 a6 03 lw	a2, 1232(a5)
0x80004b2c: 4d 47 a6 83 lw	a3, 1236(a5)
0x80004b30: ff e0 07 13 addi	a4, zero, -2
0x80004b34: 00 d6 46 b3 xor	a3, a2, a3
0x80004b38: 08 e6 80 63 beq	a3, a4, 0x80004bb8
0x80004bb8: 00 00 57 37 lui	a4, 5
0x80004bbc: ff ff d7 b7 lui	a5, 1048573
0x80004bc0: 19 07 07 13 addi	a4, a4, 400
0x80004bc4: 00 f7 07 33 add	a4, a4, a5
0x80004bc8: 01 01 07 93 addi	a5, sp, 16
0x80004bcc: 00 f7 07 b3 add	a5, a4, a5
0x80004bd0: ff e0 07 13 addi	a4, zero, -2
0x80004bd4: 4c e7 ac 23 sw	a4, 1240(a5)
0x80004bd8: 4c e7 ae 23 sw	a4, 1244(a5)
0x80004bdc: 4d 87 a6 83 lw	a3, 1240(a5)
0x80004be0: 4d c7 a7 03 lw	a4, 1244(a5)
0x80004be4: 06 e6 8c 63 beq	a3, a4, 0x80004c5c
0x80004c5c: 00 00 57 37 lui	a4, 5
0x80004c60: ff ff d7 b7 lui	a5, 1048573
0x80004c64: 19 07 07 13 addi	a4, a4, 400
0x80004c68: 00 f7 07 33 add	a4, a4, a5
0x80004c6c: 01 01 07 93 addi	a5, sp, 16
0x80004c70: 00 f7 07 b3 add	a5, a4, a5
0x80004c74: ff e0 07 13 addi	a4, zero, -2
0x80004c78: 4e e7 a0 23 sw	a4, 1248(a5)
0x80004c7c: ff f0 07 13 addi	a4, zero, -1
0x80004c80: 4e e7 a2 23 sw	a4, 1252(a5)
0x80004c84: 4e 07 a6 03 lw	a2, 1248(a5)
0x80004c88: 4e 47 a6 83 lw	a3, 1252(a5)
0x80004c8c: 00 10 07 13 addi	a4, zero, 1
0x80004c90: 00 d6 46 b3 xor	a3, a2, a3
0x80004c94: 06 e6 8e 63 beq	a3, a4, 0x80004d10
0x80004d10: 00 00 57 37 lui	a4, 5
0x80004d14: ff ff d7 b7 lui	a5, 1048573
0x80004d18: 19 07 07 13 addi	a4, a4, 400
0x80004d1c: 00 f7 07 33 add	a4, a4, a5
0x80004d20: 01 01 07 93 addi	a5, sp, 16
0x80004d24: 00 f7 07 b3 add	a5, a4, a5
0x80004d28: ff e0 07 13 addi	a4, zero, -2
0x80004d2c: 4e e7 a4 23 sw	a4, 1256(a5)
0x80004d30: 4e 07 a6 23 sw	zero, 1260(a5)
0x80004d34: 4e 87 a6 03 lw	a2, 1256(a5)
0x80004d38: 4e c7 a6 83 lw	a3, 1260(a5)
0x80004d3c: 00 d6 46 b3 xor	a3, a2, a3
0x80004d40: 06 e6 8e 63 beq	a3, a4, 0x80004dbc
0x80004dbc: 00 00 57 37 lui	a4, 5
0x80004dc0: ff ff d7 b7 lui	a5, 1048573
0x80004dc4: 19 07 07 13 addi	a4, a4, 400
0x80004dc8: 00 f7 07 33 add	a4, a4, a5
0x80004dcc: 01 01 07 93 addi	a5, sp, 16
0x80004dd0: 00 f7 07 b3 add	a5, a4, a5
0x80004dd4: ff e0 07 13 addi	a4, zero, -2
0x80004dd8: 4e e7 a8 23 sw	a4, 1264(a5)
0x80004ddc: 00 10 07 13 addi	a4, zero, 1
0x80004de0: 4e e7 aa 23 sw	a4, 1268(a5)
0x80004de4: 4f 07 a6 03 lw	a2, 1264(a5)
0x80004de8: 4f 47 a6 83 lw	a3, 1268(a5)
0x80004dec: ff f0 07 13 addi	a4, zero, -1
0x80004df0: 00 d6 46 b3 xor	a3, a2, a3
0x80004df4: 06 e6 8e 63 beq	a3, a4, 0x80004e70
0x80004e70: 00 00 57 37 lui	a4, 5
0x80004e74: ff ff d7 b7 lui	a5, 1048573
0x80004e78: 19 07 07 13 addi	a4, a4, 400
0x80004e7c: 00 f7 07 33 add	a4, a4, a5
0x80004e80: 01 01 07 93 addi	a5, sp, 16
0x80004e84: 00 f7 07 b3 add	a5, a4, a5
0x80004e88: ff e0 07 13 addi	a4, zero, -2
0x80004e8c: 4e e7 ac 23 sw	a4, 1272(a5)
0x80004e90: 00 20 07 13 addi	a4, zero, 2
0x80004e94: 4e e7 ae 23 sw	a4, 1276(a5)
0x80004e98: 4f 87 a6 03 lw	a2, 1272(a5)
0x80004e9c: 4f c7 a6 83 lw	a3, 1276(a5)
0x80004ea0: ff c0 07 13 addi	a4, zero, -4
0x80004ea4: 00 d6 46 b3 xor	a3, a2, a3
0x80004ea8: 06 e6 8e 63 beq	a3, a4, 0x80004f24
0x80004f24: 00 00 57 37 lui	a4, 5
0x80004f28: ff ff d7 b7 lui	a5, 1048573
0x80004f2c: 19 07 07 13 addi	a4, a4, 400
0x80004f30: 00 f7 07 33 add	a4, a4, a5
0x80004f34: 01 01 07 93 addi	a5, sp, 16
0x80004f38: 00 f7 07 b3 add	a5, a4, a5
0x80004f3c: ff e0 06 93 addi	a3, zero, -2
0x80004f40: 80 00 07 37 lui	a4, 524288
0x80004f44: 50 d7 a0 23 sw	a3, 1280(a5)
0x80004f48: ff e7 46 93 xori	a3, a4, -2
0x80004f4c: 50 d7 a2 23 sw	a3, 1284(a5)
0x80004f50: 50 07 a6 03 lw	a2, 1280(a5)
0x80004f54: 50 47 a6 83 lw	a3, 1284(a5)
0x80004f58: 00 d6 46 b3 xor	a3, a2, a3
0x80004f5c: 08 e6 80 63 beq	a3, a4, 0x80004fdc
0x80004fdc: 00 00 57 37 lui	a4, 5
0x80004fe0: ff ff d7 b7 lui	a5, 1048573
0x80004fe4: 19 07 07 13 addi	a4, a4, 400
0x80004fe8: 00 f7 07 33 add	a4, a4, a5
0x80004fec: 01 01 07 93 addi	a5, sp, 16
0x80004ff0: 00 f7 07 b3 add	a5, a4, a5
0x80004ff4: ff e0 06 93 addi	a3, zero, -2
0x80004ff8: 80 00 07 37 lui	a4, 524288
0x80004ffc: 50 d7 a4 23 sw	a3, 1288(a5)
0x80005000: ff f7 46 93 xori	a3, a4, -1
0x80005004: 50 d7 a6 23 sw	a3, 1292(a5)
0x80005008: 50 87 a6 03 lw	a2, 1288(a5)
0x8000500c: 50 c7 a6 83 lw	a3, 1292(a5)
0x80005010: 00 17 07 13 addi	a4, a4, 1
0x80005014: 00 d6 46 b3 xor	a3, a2, a3
0x80005018: 08 e6 80 63 beq	a3, a4, 0x80005098
0x80005098: 00 00 57 37 lui	a4, 5
0x8000509c: ff ff d7 b7 lui	a5, 1048573
0x800050a0: 19 07 07 13 addi	a4, a4, 400
0x800050a4: 00 f7 07 33 add	a4, a4, a5
0x800050a8: 01 01 07 93 addi	a5, sp, 16
0x800050ac: 00 f7 07 b3 add	a5, a4, a5
0x800050b0: ff f0 07 13 addi	a4, zero, -1
0x800050b4: 50 e7 a8 23 sw	a4, 1296(a5)
0x800050b8: 50 e7 aa 23 sw	a4, 1300(a5)
0x800050bc: 51 07 a6 83 lw	a3, 1296(a5)
0x800050c0: 51 47 a7 03 lw	a4, 1300(a5)
0x800050c4: 06 e6 8c 63 beq	a3, a4, 0x8000513c
0x8000513c: 00 00 57 37 lui	a4, 5
0x80005140: ff ff d7 b7 lui	a5, 1048573
0x80005144: 19 07 07 13 addi	a4, a4, 400
0x80005148: 00 f7 07 33 add	a4, a4, a5
0x8000514c: 01 01 07 93 addi	a5, sp, 16
0x80005150: 00 f7 07 b3 add	a5, a4, a5
0x80005154: ff f0 07 13 addi	a4, zero, -1
0x80005158: 50 e7 ac 23 sw	a4, 1304(a5)
0x8000515c: 50 07 ae 23 sw	zero, 1308(a5)
0x80005160: 51 87 a6 03 lw	a2, 1304(a5)
0x80005164: 51 c7 a6 83 lw	a3, 1308(a5)
0x80005168: 00 d6 46 b3 xor	a3, a2, a3
0x8000516c: 06 e6 8e 63 beq	a3, a4, 0x800051e8
0x800051e8: 00 00 57 37 lui	a4, 5
0x800051ec: ff ff d7 b7 lui	a5, 1048573
0x800051f0: 19 07 07 13 addi	a4, a4, 400
0x800051f4: 00 f7 07 33 add	a4, a4, a5
0x800051f8: 01 01 07 93 addi	a5, sp, 16
0x800051fc: 00 f7 07 b3 add	a5, a4, a5
0x80005200: ff f0 07 13 addi	a4, zero, -1
0x80005204: 52 e7 a0 23 sw	a4, 1312(a5)
0x80005208: 00 10 07 13 addi	a4, zero, 1
0x8000520c: 52 e7 a2 23 sw	a4, 1316(a5)
0x80005210: 52 07 a6 03 lw	a2, 1312(a5)
0x80005214: 52 47 a6 83 lw	a3, 1316(a5)
0x80005218: ff e0 07 13 addi	a4, zero, -2
0x8000521c: 00 d6 46 b3 xor	a3, a2, a3
0x80005220: 06 e6 8e 63 beq	a3, a4, 0x8000529c
0x8000529c: 00 00 57 37 lui	a4, 5
0x800052a0: ff ff d7 b7 lui	a5, 1048573
0x800052a4: 19 07 07 13 addi	a4, a4, 400
0x800052a8: 00 f7 07 33 add	a4, a4, a5
0x800052ac: 01 01 07 93 addi	a5, sp, 16
0x800052b0: 00 f7 07 b3 add	a5, a4, a5
0x800052b4: ff f0 07 13 addi	a4, zero, -1
0x800052b8: 52 e7 a4 23 sw	a4, 1320(a5)
0x800052bc: 00 20 07 13 addi	a4, zero, 2
0x800052c0: 52 e7 a6 23 sw	a4, 1324(a5)
0x800052c4: 52 87 a6 03 lw	a2, 1320(a5)
0x800052c8: 52 c7 a6 83 lw	a3, 1324(a5)
0x800052cc: ff d0 07 13 addi	a4, zero, -3
0x800052d0: 00 d6 46 b3 xor	a3, a2, a3
0x800052d4: 06 e6 8e 63 beq	a3, a4, 0x80005350
0x80005350: 00 00 57 37 lui	a4, 5
0x80005354: ff ff d7 b7 lui	a5, 1048573
0x80005358: 19 07 07 13 addi	a4, a4, 400
0x8000535c: 00 f7 07 33 add	a4, a4, a5
0x80005360: 01 01 07 93 addi	a5, sp, 16
0x80005364: 00 f7 07 b3 add	a5, a4, a5
0x80005368: ff f0 06 93 addi	a3, zero, -1
0x8000536c: 80 00 07 37 lui	a4, 524288
0x80005370: 52 d7 a8 23 sw	a3, 1328(a5)
0x80005374: ff e7 46 93 xori	a3, a4, -2
0x80005378: 52 d7 aa 23 sw	a3, 1332(a5)
0x8000537c: 53 07 a6 03 lw	a2, 1328(a5)
0x80005380: 53 47 a6 83 lw	a3, 1332(a5)
0x80005384: 00 17 07 13 addi	a4, a4, 1
0x80005388: 00 d6 46 b3 xor	a3, a2, a3
0x8000538c: 08 e6 80 63 beq	a3, a4, 0x8000540c
0x8000540c: 00 00 57 37 lui	a4, 5
0x80005410: ff ff d7 b7 lui	a5, 1048573
0x80005414: 19 07 07 13 addi	a4, a4, 400
0x80005418: 00 f7 07 33 add	a4, a4, a5
0x8000541c: 01 01 07 93 addi	a5, sp, 16
0x80005420: 00 f7 07 b3 add	a5, a4, a5
0x80005424: ff f0 06 93 addi	a3, zero, -1
0x80005428: 80 00 07 37 lui	a4, 524288
0x8000542c: 52 d7 ac 23 sw	a3, 1336(a5)
0x80005430: ff f7 46 93 xori	a3, a4, -1
0x80005434: 52 d7 ae 23 sw	a3, 1340(a5)
0x80005438: 53 87 a6 03 lw	a2, 1336(a5)
0x8000543c: 53 c7 a6 83 lw	a3, 1340(a5)
0x80005440: 00 d6 46 b3 xor	a3, a2, a3
0x80005444: 08 e6 80 63 beq	a3, a4, 0x800054c4
0x800054c4: 00 00 57 37 lui	a4, 5
0x800054c8: ff ff d7 b7 lui	a5, 1048573
0x800054cc: 19 07 07 13 addi	a4, a4, 400
0x800054d0: 00 f7 07 33 add	a4, a4, a5
0x800054d4: 01 01 07 93 addi	a5, sp, 16
0x800054d8: 00 f7 07 b3 add	a5, a4, a5
0x800054dc: 54 07 a0 23 sw	zero, 1344(a5)
0x800054e0: 54 07 a2 23 sw	zero, 1348(a5)
0x800054e4: 54 07 a6 83 lw	a3, 1344(a5)
0x800054e8: 54 47 a7 03 lw	a4, 1348(a5)
0x800054ec: 06 e6 8c 63 beq	a3, a4, 0x80005564
0x80005564: 00 00 57 37 lui	a4, 5
0x80005568: ff ff d7 b7 lui	a5, 1048573
0x8000556c: 19 07 07 13 addi	a4, a4, 400
0x80005570: 00 f7 07 33 add	a4, a4, a5
0x80005574: 01 01 07 93 addi	a5, sp, 16
0x80005578: 00 f7 07 b3 add	a5, a4, a5
0x8000557c: 54 07 a4 23 sw	zero, 1352(a5)
0x80005580: 00 10 07 13 addi	a4, zero, 1
0x80005584: 54 e7 a6 23 sw	a4, 1356(a5)
0x80005588: 54 87 a6 03 lw	a2, 1352(a5)
0x8000558c: 54 c7 a6 83 lw	a3, 1356(a5)
0x80005590: 00 d6 46 b3 xor	a3, a2, a3
0x80005594: 06 e6 8e 63 beq	a3, a4, 0x80005610
0x80005610: 00 00 57 37 lui	a4, 5
0x80005614: ff ff d7 b7 lui	a5, 1048573
0x80005618: 19 07 07 13 addi	a4, a4, 400
0x8000561c: 00 f7 07 33 add	a4, a4, a5
0x80005620: 01 01 07 93 addi	a5, sp, 16
0x80005624: 00 f7 07 b3 add	a5, a4, a5
0x80005628: 54 07 a8 23 sw	zero, 1360(a5)
0x8000562c: 00 20 07 13 addi	a4, zero, 2
0x80005630: 54 e7 aa 23 sw	a4, 1364(a5)
0x80005634: 55 07 a6 03 lw	a2, 1360(a5)
0x80005638: 55 47 a6 83 lw	a3, 1364(a5)
0x8000563c: 00 d6 46 b3 xor	a3, a2, a3
0x80005640: 06 e6 8e 63 beq	a3, a4, 0x800056bc
0x800056bc: 00 00 57 37 lui	a4, 5
0x800056c0: ff ff d7 b7 lui	a5, 1048573
0x800056c4: 19 07 07 13 addi	a4, a4, 400
0x800056c8: 00 f7 07 33 add	a4, a4, a5
0x800056cc: 01 01 07 93 addi	a5, sp, 16
0x800056d0: 00 f7 07 b3 add	a5, a4, a5
0x800056d4: 80 00 07 37 lui	a4, 524288
0x800056d8: 54 07 ac 23 sw	zero, 1368(a5)
0x800056dc: ff e7 47 13 xori	a4, a4, -2
0x800056e0: 54 e7 ae 23 sw	a4, 1372(a5)
0x800056e4: 55 87 a6 03 lw	a2, 1368(a5)
0x800056e8: 55 c7 a6 83 lw	a3, 1372(a5)
0x800056ec: 00 d6 46 b3 xor	a3, a2, a3
0x800056f0: 08 e6 80 63 beq	a3, a4, 0x80005770
0x80005770: 00 00 57 37 lui	a4, 5
0x80005774: ff ff d7 b7 lui	a5, 1048573
0x80005778: 19 07 07 13 addi	a4, a4, 400
0x8000577c: 00 f7 07 33 add	a4, a4, a5
0x80005780: 01 01 07 93 addi	a5, sp, 16
0x80005784: 00 f7 07 b3 add	a5, a4, a5
0x80005788: 80 00 07 37 lui	a4, 524288
0x8000578c: 56 07 a0 23 sw	zero, 1376(a5)
0x80005790: ff f7 47 13 xori	a4, a4, -1
0x80005794: 56 e7 a2 23 sw	a4, 1380(a5)
0x80005798: 56 07 a6 03 lw	a2, 1376(a5)
0x8000579c: 56 47 a6 83 lw	a3, 1380(a5)
0x800057a0: 00 d6 46 b3 xor	a3, a2, a3
0x800057a4: 08 e6 80 63 beq	a3, a4, 0x80005824
0x80005824: 00 00 57 37 lui	a4, 5
0x80005828: ff ff d7 b7 lui	a5, 1048573
0x8000582c: 19 07 07 13 addi	a4, a4, 400
0x80005830: 00 f7 07 33 add	a4, a4, a5
0x80005834: 01 01 07 93 addi	a5, sp, 16
0x80005838: 00 f7 07 b3 add	a5, a4, a5
0x8000583c: 00 10 07 13 addi	a4, zero, 1
0x80005840: 56 e7 a4 23 sw	a4, 1384(a5)
0x80005844: 56 e7 a6 23 sw	a4, 1388(a5)
0x80005848: 56 87 a6 83 lw	a3, 1384(a5)
0x8000584c: 56 c7 a7 03 lw	a4, 1388(a5)
0x80005850: 06 e6 8c 63 beq	a3, a4, 0x800058c8
0x800058c8: 00 00 57 37 lui	a4, 5
0x800058cc: ff ff d7 b7 lui	a5, 1048573
0x800058d0: 19 07 07 13 addi	a4, a4, 400
0x800058d4: 00 f7 07 33 add	a4, a4, a5
0x800058d8: 01 01 07 93 addi	a5, sp, 16
0x800058dc: 00 f7 07 b3 add	a5, a4, a5
0x800058e0: 00 10 07 13 addi	a4, zero, 1
0x800058e4: 56 e7 a8 23 sw	a4, 1392(a5)
0x800058e8: 00 20 07 13 addi	a4, zero, 2
0x800058ec: 56 e7 aa 23 sw	a4, 1396(a5)
0x800058f0: 57 07 a6 03 lw	a2, 1392(a5)
0x800058f4: 57 47 a6 83 lw	a3, 1396(a5)
0x800058f8: 00 30 07 13 addi	a4, zero, 3
0x800058fc: 00 d6 46 b3 xor	a3, a2, a3
0x80005900: 06 e6 8e 63 beq	a3, a4, 0x8000597c
0x8000597c: 00 00 57 37 lui	a4, 5
0x80005980: ff ff d7 b7 lui	a5, 1048573
0x80005984: 19 07 07 13 addi	a4, a4, 400
0x80005988: 00 f7 07 33 add	a4, a4, a5
0x8000598c: 01 01 07 93 addi	a5, sp, 16
0x80005990: 00 f7 07 b3 add	a5, a4, a5
0x80005994: 00 10 06 93 addi	a3, zero, 1
0x80005998: 80 00 07 37 lui	a4, 524288
0x8000599c: 56 d7 ac 23 sw	a3, 1400(a5)
0x800059a0: ff e7 46 93 xori	a3, a4, -2
0x800059a4: 56 d7 ae 23 sw	a3, 1404(a5)
0x800059a8: 57 87 a6 03 lw	a2, 1400(a5)
0x800059ac: 57 c7 a6 83 lw	a3, 1404(a5)
0x800059b0: ff f7 47 13 xori	a4, a4, -1
0x800059b4: 00 d6 46 b3 xor	a3, a2, a3
0x800059b8: 08 e6 80 63 beq	a3, a4, 0x80005a38
0x80005a38: 00 00 57 37 lui	a4, 5
0x80005a3c: ff ff d7 b7 lui	a5, 1048573
0x80005a40: 19 07 07 13 addi	a4, a4, 400
0x80005a44: 00 f7 07 33 add	a4, a4, a5
0x80005a48: 01 01 07 93 addi	a5, sp, 16
0x80005a4c: 00 f7 07 b3 add	a5, a4, a5
0x80005a50: 00 10 06 93 addi	a3, zero, 1
0x80005a54: 80 00 07 37 lui	a4, 524288
0x80005a58: 58 d7 a0 23 sw	a3, 1408(a5)
0x80005a5c: ff f7 46 93 xori	a3, a4, -1
0x80005a60: 58 d7 a2 23 sw	a3, 1412(a5)
0x80005a64: 58 07 a6 03 lw	a2, 1408(a5)
0x80005a68: 58 47 a6 83 lw	a3, 1412(a5)
0x80005a6c: ff e7 47 13 xori	a4, a4, -2
0x80005a70: 00 d6 46 b3 xor	a3, a2, a3
0x80005a74: 08 e6 80 63 beq	a3, a4, 0x80005af4
0x80005af4: 00 00 57 37 lui	a4, 5
0x80005af8: ff ff d7 b7 lui	a5, 1048573
0x80005afc: 19 07 07 13 addi	a4, a4, 400
0x80005b00: 00 f7 07 33 add	a4, a4, a5
0x80005b04: 01 01 07 93 addi	a5, sp, 16
0x80005b08: 00 f7 07 b3 add	a5, a4, a5
0x80005b0c: 00 20 07 13 addi	a4, zero, 2
0x80005b10: 58 e7 a4 23 sw	a4, 1416(a5)
0x80005b14: 58 e7 a6 23 sw	a4, 1420(a5)
0x80005b18: 58 87 a6 83 lw	a3, 1416(a5)
0x80005b1c: 58 c7 a7 03 lw	a4, 1420(a5)
0x80005b20: 06 e6 8c 63 beq	a3, a4, 0x80005b98
0x80005b98: 00 00 57 37 lui	a4, 5
0x80005b9c: ff ff d7 b7 lui	a5, 1048573
0x80005ba0: 19 07 07 13 addi	a4, a4, 400
0x80005ba4: 00 f7 07 33 add	a4, a4, a5
0x80005ba8: 01 01 07 93 addi	a5, sp, 16
0x80005bac: 00 f7 07 b3 add	a5, a4, a5
0x80005bb0: 00 20 06 93 addi	a3, zero, 2
0x80005bb4: 80 00 07 37 lui	a4, 524288
0x80005bb8: 58 d7 a8 23 sw	a3, 1424(a5)
0x80005bbc: ff e7 46 93 xori	a3, a4, -2
0x80005bc0: 58 d7 aa 23 sw	a3, 1428(a5)
0x80005bc4: 59 07 a6 03 lw	a2, 1424(a5)
0x80005bc8: 59 47 a6 83 lw	a3, 1428(a5)
0x80005bcc: ff c7 47 13 xori	a4, a4, -4
0x80005bd0: 00 d6 46 b3 xor	a3, a2, a3
0x80005bd4: 08 e6 80 63 beq	a3, a4, 0x80005c54
0x80005c54: 00 00 57 37 lui	a4, 5
0x80005c58: ff ff d7 b7 lui	a5, 1048573
0x80005c5c: 19 07 07 13 addi	a4, a4, 400
0x80005c60: 00 f7 07 33 add	a4, a4, a5
0x80005c64: 01 01 07 93 addi	a5, sp, 16
0x80005c68: 00 f7 07 b3 add	a5, a4, a5
0x80005c6c: 00 20 06 93 addi	a3, zero, 2
0x80005c70: 80 00 07 37 lui	a4, 524288
0x80005c74: 58 d7 ac 23 sw	a3, 1432(a5)
0x80005c78: ff f7 46 93 xori	a3, a4, -1
0x80005c7c: 58 d7 ae 23 sw	a3, 1436(a5)
0x80005c80: 59 87 a6 03 lw	a2, 1432(a5)
0x80005c84: 59 c7 a6 83 lw	a3, 1436(a5)
0x80005c88: ff d7 47 13 xori	a4, a4, -3
0x80005c8c: 00 d6 46 b3 xor	a3, a2, a3
0x80005c90: 08 e6 80 63 beq	a3, a4, 0x80005d10
0x80005d10: 00 00 57 37 lui	a4, 5
0x80005d14: ff ff d7 b7 lui	a5, 1048573
0x80005d18: 19 07 07 13 addi	a4, a4, 400
0x80005d1c: 00 f7 07 33 add	a4, a4, a5
0x80005d20: 01 01 07 93 addi	a5, sp, 16
0x80005d24: 00 f7 07 b3 add	a5, a4, a5
0x80005d28: 80 00 07 37 lui	a4, 524288
0x80005d2c: ff e7 47 13 xori	a4, a4, -2
0x80005d30: 5a e7 a0 23 sw	a4, 1440(a5)
0x80005d34: 5a e7 a2 23 sw	a4, 1444(a5)
0x80005d38: 5a 07 a6 83 lw	a3, 1440(a5)
0x80005d3c: 5a 47 a7 03 lw	a4, 1444(a5)
0x80005d40: 06 e6 8e 63 beq	a3, a4, 0x80005dbc
0x80005dbc: 00 00 56 b7 lui	a3, 5
0x80005dc0: ff ff d7 b7 lui	a5, 1048573
0x80005dc4: 19 06 86 93 addi	a3, a3, 400
0x80005dc8: 00 f6 86 b3 add	a3, a3, a5
0x80005dcc: 80 00 07 37 lui	a4, 524288
0x80005dd0: 01 01 07 93 addi	a5, sp, 16
0x80005dd4: 00 f6 87 b3 add	a5, a3, a5
0x80005dd8: ff e7 46 93 xori	a3, a4, -2
0x80005ddc: 5a d7 a4 23 sw	a3, 1448(a5)
0x80005de0: ff f7 47 13 xori	a4, a4, -1
0x80005de4: 5a e7 a6 23 sw	a4, 1452(a5)
0x80005de8: 5a 87 a6 03 lw	a2, 1448(a5)
0x80005dec: 5a c7 a6 83 lw	a3, 1452(a5)
0x80005df0: 00 10 07 13 addi	a4, zero, 1
0x80005df4: 00 d6 46 b3 xor	a3, a2, a3
0x80005df8: 08 e6 80 63 beq	a3, a4, 0x80005e78
0x80005e78: 00 00 57 37 lui	a4, 5
0x80005e7c: ff ff d7 b7 lui	a5, 1048573
0x80005e80: 19 07 07 13 addi	a4, a4, 400
0x80005e84: 00 f7 07 33 add	a4, a4, a5
0x80005e88: 01 01 07 93 addi	a5, sp, 16
0x80005e8c: 00 f7 07 b3 add	a5, a4, a5
0x80005e90: 80 00 07 37 lui	a4, 524288
0x80005e94: ff f7 47 13 xori	a4, a4, -1
0x80005e98: 5a e7 a8 23 sw	a4, 1456(a5)
0x80005e9c: 5a e7 aa 23 sw	a4, 1460(a5)
0x80005ea0: 5b 07 a6 83 lw	a3, 1456(a5)
0x80005ea4: 5b 47 a7 03 lw	a4, 1460(a5)
0x80005ea8: 06 e6 8e 63 beq	a3, a4, 0x80005f24
0x80005f24: 00 00 57 37 lui	a4, 5
0x80005f28: ff ff d7 b7 lui	a5, 1048573
0x80005f2c: 19 07 07 13 addi	a4, a4, 400
0x80005f30: 00 f7 07 33 add	a4, a4, a5
0x80005f34: 01 01 07 93 addi	a5, sp, 16
0x80005f38: 00 f7 07 b3 add	a5, a4, a5
0x80005f3c: 80 00 07 37 lui	a4, 524288
0x80005f40: 5a e7 ac 23 sw	a4, 1464(a5)
0x80005f44: 5a e7 ae 23 sw	a4, 1468(a5)
0x80005f48: 5b 87 a6 03 lw	a2, 1464(a5)
0x80005f4c: 5b c7 a6 83 lw	a3, 1468(a5)
0x80005f50: 00 d6 76 b3 and	a3, a2, a3
0x80005f54: 06 e6 8e 63 beq	a3, a4, 0x80005fd0
0x80005fd0: 00 00 57 37 lui	a4, 5
0x80005fd4: ff ff d7 b7 lui	a5, 1048573
0x80005fd8: 19 07 07 13 addi	a4, a4, 400
0x80005fdc: 00 f7 07 33 add	a4, a4, a5
0x80005fe0: 01 01 07 93 addi	a5, sp, 16
0x80005fe4: 00 f7 07 b3 add	a5, a4, a5
0x80005fe8: 80 00 07 37 lui	a4, 524288
0x80005fec: 5c e7 a0 23 sw	a4, 1472(a5)
0x80005ff0: 00 17 06 93 addi	a3, a4, 1
0x80005ff4: 5c d7 a2 23 sw	a3, 1476(a5)
0x80005ff8: 5c 07 a6 03 lw	a2, 1472(a5)
0x80005ffc: 5c 47 a6 83 lw	a3, 1476(a5)
0x80006000: 00 d6 76 b3 and	a3, a2, a3
0x80006004: 08 e6 80 63 beq	a3, a4, 0x80006084
0x80006084: 00 00 57 37 lui	a4, 5
0x80006088: ff ff d7 b7 lui	a5, 1048573
0x8000608c: 19 07 07 13 addi	a4, a4, 400
0x80006090: 00 f7 07 33 add	a4, a4, a5
0x80006094: 01 01 07 93 addi	a5, sp, 16
0x80006098: 00 f7 07 b3 add	a5, a4, a5
0x8000609c: 80 00 07 37 lui	a4, 524288
0x800060a0: 5c e7 a4 23 sw	a4, 1480(a5)
0x800060a4: ff e0 06 93 addi	a3, zero, -2
0x800060a8: 5c d7 a6 23 sw	a3, 1484(a5)
0x800060ac: 5c 87 a6 03 lw	a2, 1480(a5)
0x800060b0: 5c c7 a6 83 lw	a3, 1484(a5)
0x800060b4: 00 d6 76 b3 and	a3, a2, a3
0x800060b8: 06 e6 8e 63 beq	a3, a4, 0x80006134
0x80006134: 00 00 57 37 lui	a4, 5
0x80006138: ff ff d7 b7 lui	a5, 1048573
0x8000613c: 19 07 07 13 addi	a4, a4, 400
0x80006140: 00 f7 07 33 add	a4, a4, a5
0x80006144: 01 01 07 93 addi	a5, sp, 16
0x80006148: 00 f7 07 b3 add	a5, a4, a5
0x8000614c: 80 00 07 37 lui	a4, 524288
0x80006150: 5c e7 a8 23 sw	a4, 1488(a5)
0x80006154: ff f0 06 93 addi	a3, zero, -1
0x80006158: 5c d7 aa 23 sw	a3, 1492(a5)
0x8000615c: 5d 07 a6 03 lw	a2, 1488(a5)
0x80006160: 5d 47 a6 83 lw	a3, 1492(a5)
0x80006164: 00 d6 76 b3 and	a3, a2, a3
0x80006168: 06 e6 8e 63 beq	a3, a4, 0x800061e4
0x800061e4: 00 00 57 37 lui	a4, 5
0x800061e8: ff ff d7 b7 lui	a5, 1048573
0x800061ec: 19 07 07 13 addi	a4, a4, 400
0x800061f0: 00 f7 07 33 add	a4, a4, a5
0x800061f4: 01 01 07 93 addi	a5, sp, 16
0x800061f8: 00 f7 07 b3 add	a5, a4, a5
0x800061fc: 80 00 07 37 lui	a4, 524288
0x80006200: 5c e7 ac 23 sw	a4, 1496(a5)
0x80006204: 5c 07 ae 23 sw	zero, 1500(a5)
0x80006208: 5d 87 a6 83 lw	a3, 1496(a5)
0x8000620c: 5d c7 a7 03 lw	a4, 1500(a5)
0x80006210: 00 e6 f7 33 and	a4, a3, a4
0x80006214: 06 07 0e 63 beq	a4, zero, 0x80006290
0x80006290: 00 00 57 37 lui	a4, 5
0x80006294: ff ff d7 b7 lui	a5, 1048573
0x80006298: 19 07 07 13 addi	a4, a4, 400
0x8000629c: 00 f7 07 33 add	a4, a4, a5
0x800062a0: 01 01 07 93 addi	a5, sp, 16
0x800062a4: 00 f7 07 b3 add	a5, a4, a5
0x800062a8: 80 00 07 37 lui	a4, 524288
0x800062ac: 5e e7 a0 23 sw	a4, 1504(a5)
0x800062b0: 00 10 07 13 addi	a4, zero, 1
0x800062b4: 5e e7 a2 23 sw	a4, 1508(a5)
0x800062b8: 5e 07 a6 83 lw	a3, 1504(a5)
0x800062bc: 5e 47 a7 03 lw	a4, 1508(a5)
0x800062c0: 00 e6 f7 33 and	a4, a3, a4
0x800062c4: 06 07 0e 63 beq	a4, zero, 0x80006340
0x80006340: 00 00 57 37 lui	a4, 5
0x80006344: ff ff d7 b7 lui	a5, 1048573
0x80006348: 19 07 07 13 addi	a4, a4, 400
0x8000634c: 00 f7 07 33 add	a4, a4, a5
0x80006350: 01 01 07 93 addi	a5, sp, 16
0x80006354: 00 f7 07 b3 add	a5, a4, a5
0x80006358: 80 00 07 37 lui	a4, 524288
0x8000635c: 5e e7 a4 23 sw	a4, 1512(a5)
0x80006360: 00 20 07 13 addi	a4, zero, 2
0x80006364: 5e e7 a6 23 sw	a4, 1516(a5)
0x80006368: 5e 87 a6 83 lw	a3, 1512(a5)
0x8000636c: 5e c7 a7 03 lw	a4, 1516(a5)
0x80006370: 00 e6 f7 33 and	a4, a3, a4
0x80006374: 06 07 0e 63 beq	a4, zero, 0x800063f0
0x800063f0: 00 00 57 37 lui	a4, 5
0x800063f4: ff ff d7 b7 lui	a5, 1048573
0x800063f8: 19 07 07 13 addi	a4, a4, 400
0x800063fc: 00 f7 07 33 add	a4, a4, a5
0x80006400: 01 01 07 93 addi	a5, sp, 16
0x80006404: 00 f7 07 b3 add	a5, a4, a5
0x80006408: 80 00 07 37 lui	a4, 524288
0x8000640c: 5e e7 a8 23 sw	a4, 1520(a5)
0x80006410: ff e7 47 13 xori	a4, a4, -2
0x80006414: 5e e7 aa 23 sw	a4, 1524(a5)
0x80006418: 5f 07 a6 83 lw	a3, 1520(a5)
0x8000641c: 5f 47 a7 03 lw	a4, 1524(a5)
0x80006420: 00 e6 f7 33 and	a4, a3, a4
0x80006424: 08 07 00 63 beq	a4, zero, 0x800064a4
0x800064a4: 00 00 57 37 lui	a4, 5
0x800064a8: ff ff d7 b7 lui	a5, 1048573
0x800064ac: 19 07 07 13 addi	a4, a4, 400
0x800064b0: 00 f7 07 33 add	a4, a4, a5
0x800064b4: 01 01 07 93 addi	a5, sp, 16
0x800064b8: 00 f7 07 b3 add	a5, a4, a5
0x800064bc: 80 00 07 37 lui	a4, 524288
0x800064c0: 5e e7 ac 23 sw	a4, 1528(a5)
0x800064c4: ff f7 47 13 xori	a4, a4, -1
0x800064c8: 5e e7 ae 23 sw	a4, 1532(a5)
0x800064cc: 5f 87 a6 83 lw	a3, 1528(a5)
0x800064d0: 5f c7 a7 03 lw	a4, 1532(a5)
0x800064d4: 00 e6 f7 33 and	a4, a3, a4
0x800064d8: 08 07 00 63 beq	a4, zero, 0x80006558
0x80006558: 00 00 57 37 lui	a4, 5
0x8000655c: ff ff d7 b7 lui	a5, 1048573
0x80006560: 19 07 07 13 addi	a4, a4, 400
0x80006564: 00 f7 07 33 add	a4, a4, a5
0x80006568: 01 01 07 93 addi	a5, sp, 16
0x8000656c: 00 f7 07 b3 add	a5, a4, a5
0x80006570: 80 00 07 37 lui	a4, 524288
0x80006574: 00 17 07 13 addi	a4, a4, 1
0x80006578: 60 e7 a0 23 sw	a4, 1536(a5)
0x8000657c: 60 e7 a2 23 sw	a4, 1540(a5)
0x80006580: 60 07 a6 03 lw	a2, 1536(a5)
0x80006584: 60 47 a6 83 lw	a3, 1540(a5)
0x80006588: 00 d6 76 b3 and	a3, a2, a3
0x8000658c: 08 e6 80 63 beq	a3, a4, 0x8000660c
0x8000660c: 00 00 56 b7 lui	a3, 5
0x80006610: ff ff d7 b7 lui	a5, 1048573
0x80006614: 19 06 86 93 addi	a3, a3, 400
0x80006618: 00 f6 86 b3 add	a3, a3, a5
0x8000661c: 80 00 07 37 lui	a4, 524288
0x80006620: 01 01 07 93 addi	a5, sp, 16
0x80006624: 00 f6 87 b3 add	a5, a3, a5
0x80006628: 00 17 06 93 addi	a3, a4, 1
0x8000662c: 60 d7 a4 23 sw	a3, 1544(a5)
0x80006630: ff e0 06 93 addi	a3, zero, -2
0x80006634: 60 d7 a6 23 sw	a3, 1548(a5)
0x80006638: 60 87 a6 03 lw	a2, 1544(a5)
0x8000663c: 60 c7 a6 83 lw	a3, 1548(a5)
0x80006640: 00 d6 76 b3 and	a3, a2, a3
0x80006644: 08 e6 80 63 beq	a3, a4, 0x800066c4
0x800066c4: 00 00 57 37 lui	a4, 5
0x800066c8: ff ff d7 b7 lui	a5, 1048573
0x800066cc: 19 07 07 13 addi	a4, a4, 400
0x800066d0: 00 f7 07 33 add	a4, a4, a5
0x800066d4: 01 01 07 93 addi	a5, sp, 16
0x800066d8: 00 f7 07 b3 add	a5, a4, a5
0x800066dc: 80 00 07 37 lui	a4, 524288
0x800066e0: 00 17 07 13 addi	a4, a4, 1
0x800066e4: 60 e7 a8 23 sw	a4, 1552(a5)
0x800066e8: ff f0 06 93 addi	a3, zero, -1
0x800066ec: 60 d7 aa 23 sw	a3, 1556(a5)
0x800066f0: 61 07 a6 03 lw	a2, 1552(a5)
0x800066f4: 61 47 a6 83 lw	a3, 1556(a5)
0x800066f8: 00 d6 76 b3 and	a3, a2, a3
0x800066fc: 08 e6 80 63 beq	a3, a4, 0x8000677c
0x8000677c: 00 00 57 37 lui	a4, 5
0x80006780: ff ff d7 b7 lui	a5, 1048573
0x80006784: 19 07 07 13 addi	a4, a4, 400
0x80006788: 00 f7 07 33 add	a4, a4, a5
0x8000678c: 01 01 07 93 addi	a5, sp, 16
0x80006790: 00 f7 07 b3 add	a5, a4, a5
0x80006794: 80 00 07 37 lui	a4, 524288
0x80006798: 00 17 07 13 addi	a4, a4, 1
0x8000679c: 60 e7 ac 23 sw	a4, 1560(a5)
0x800067a0: 60 07 ae 23 sw	zero, 1564(a5)
0x800067a4: 61 87 a6 83 lw	a3, 1560(a5)
0x800067a8: 61 c7 a7 03 lw	a4, 1564(a5)
0x800067ac: 00 e6 f7 33 and	a4, a3, a4
0x800067b0: 08 07 00 63 beq	a4, zero, 0x80006830
0x80006830: 00 00 57 37 lui	a4, 5
0x80006834: ff ff d7 b7 lui	a5, 1048573
0x80006838: 19 07 07 13 addi	a4, a4, 400
0x8000683c: 00 f7 07 33 add	a4, a4, a5
0x80006840: 01 01 07 93 addi	a5, sp, 16
0x80006844: 00 f7 07 b3 add	a5, a4, a5
0x80006848: 80 00 07 37 lui	a4, 524288
0x8000684c: 00 17 07 13 addi	a4, a4, 1
0x80006850: 62 e7 a0 23 sw	a4, 1568(a5)
0x80006854: 00 10 07 13 addi	a4, zero, 1
0x80006858: 62 e7 a2 23 sw	a4, 1572(a5)
0x8000685c: 62 07 a6 03 lw	a2, 1568(a5)
0x80006860: 62 47 a6 83 lw	a3, 1572(a5)
0x80006864: 00 d6 76 b3 and	a3, a2, a3
0x80006868: 08 e6 80 63 beq	a3, a4, 0x800068e8
0x800068e8: 00 00 57 37 lui	a4, 5
0x800068ec: ff ff d7 b7 lui	a5, 1048573
0x800068f0: 19 07 07 13 addi	a4, a4, 400
0x800068f4: 00 f7 07 33 add	a4, a4, a5
0x800068f8: 01 01 07 93 addi	a5, sp, 16
0x800068fc: 00 f7 07 b3 add	a5, a4, a5
0x80006900: 80 00 07 37 lui	a4, 524288
0x80006904: 00 17 07 13 addi	a4, a4, 1
0x80006908: 62 e7 a4 23 sw	a4, 1576(a5)
0x8000690c: 00 20 07 13 addi	a4, zero, 2
0x80006910: 62 e7 a6 23 sw	a4, 1580(a5)
0x80006914: 62 87 a6 83 lw	a3, 1576(a5)
0x80006918: 62 c7 a7 03 lw	a4, 1580(a5)
0x8000691c: 00 e6 f7 33 and	a4, a3, a4
0x80006920: 08 07 00 63 beq	a4, zero, 0x800069a0
0x800069a0: 00 00 56 b7 lui	a3, 5
0x800069a4: ff ff d7 b7 lui	a5, 1048573
0x800069a8: 19 06 86 93 addi	a3, a3, 400
0x800069ac: 00 f6 86 b3 add	a3, a3, a5
0x800069b0: 80 00 07 37 lui	a4, 524288
0x800069b4: 01 01 07 93 addi	a5, sp, 16
0x800069b8: 00 f6 87 b3 add	a5, a3, a5
0x800069bc: 00 17 06 93 addi	a3, a4, 1
0x800069c0: 62 d7 a8 23 sw	a3, 1584(a5)
0x800069c4: ff e7 47 13 xori	a4, a4, -2
0x800069c8: 62 e7 aa 23 sw	a4, 1588(a5)
0x800069cc: 63 07 a6 83 lw	a3, 1584(a5)
0x800069d0: 63 47 a7 03 lw	a4, 1588(a5)
0x800069d4: 00 e6 f7 33 and	a4, a3, a4
0x800069d8: 08 07 00 63 beq	a4, zero, 0x80006a58
0x80006a58: 00 00 56 b7 lui	a3, 5
0x80006a5c: ff ff d7 b7 lui	a5, 1048573
0x80006a60: 19 06 86 93 addi	a3, a3, 400
0x80006a64: 00 f6 86 b3 add	a3, a3, a5
0x80006a68: 80 00 07 37 lui	a4, 524288
0x80006a6c: 01 01 07 93 addi	a5, sp, 16
0x80006a70: 00 f6 87 b3 add	a5, a3, a5
0x80006a74: 00 17 06 93 addi	a3, a4, 1
0x80006a78: 62 d7 ac 23 sw	a3, 1592(a5)
0x80006a7c: ff f7 47 13 xori	a4, a4, -1
0x80006a80: 62 e7 ae 23 sw	a4, 1596(a5)
0x80006a84: 63 87 a6 03 lw	a2, 1592(a5)
0x80006a88: 63 c7 a6 83 lw	a3, 1596(a5)
0x80006a8c: 00 10 07 13 addi	a4, zero, 1
0x80006a90: 00 d6 76 b3 and	a3, a2, a3
0x80006a94: 08 e6 80 63 beq	a3, a4, 0x80006b14
0x80006b14: 00 00 57 37 lui	a4, 5
0x80006b18: ff ff d7 b7 lui	a5, 1048573
0x80006b1c: 19 07 07 13 addi	a4, a4, 400
0x80006b20: 00 f7 07 33 add	a4, a4, a5
0x80006b24: 01 01 07 93 addi	a5, sp, 16
0x80006b28: 00 f7 07 b3 add	a5, a4, a5
0x80006b2c: ff e0 07 13 addi	a4, zero, -2
0x80006b30: 64 e7 a0 23 sw	a4, 1600(a5)
0x80006b34: 64 e7 a2 23 sw	a4, 1604(a5)
0x80006b38: 64 07 a6 03 lw	a2, 1600(a5)
0x80006b3c: 64 47 a6 83 lw	a3, 1604(a5)
0x80006b40: 00 d6 76 b3 and	a3, a2, a3
0x80006b44: 06 e6 8e 63 beq	a3, a4, 0x80006bc0
0x80006bc0: 00 00 57 37 lui	a4, 5
0x80006bc4: ff ff d7 b7 lui	a5, 1048573
0x80006bc8: 19 07 07 13 addi	a4, a4, 400
0x80006bcc: 00 f7 07 33 add	a4, a4, a5
0x80006bd0: 01 01 07 93 addi	a5, sp, 16
0x80006bd4: 00 f7 07 b3 add	a5, a4, a5
0x80006bd8: ff e0 07 13 addi	a4, zero, -2
0x80006bdc: 64 e7 a4 23 sw	a4, 1608(a5)
0x80006be0: ff f0 06 93 addi	a3, zero, -1
0x80006be4: 64 d7 a6 23 sw	a3, 1612(a5)
0x80006be8: 64 87 a6 03 lw	a2, 1608(a5)
0x80006bec: 64 c7 a6 83 lw	a3, 1612(a5)
0x80006bf0: 00 d6 76 b3 and	a3, a2, a3
0x80006bf4: 06 e6 8e 63 beq	a3, a4, 0x80006c70
0x80006c70: 00 00 57 37 lui	a4, 5
0x80006c74: ff ff d7 b7 lui	a5, 1048573
0x80006c78: 19 07 07 13 addi	a4, a4, 400
0x80006c7c: 00 f7 07 33 add	a4, a4, a5
0x80006c80: 01 01 07 93 addi	a5, sp, 16
0x80006c84: 00 f7 07 b3 add	a5, a4, a5
0x80006c88: ff e0 07 13 addi	a4, zero, -2
0x80006c8c: 64 e7 a8 23 sw	a4, 1616(a5)
0x80006c90: 64 07 aa 23 sw	zero, 1620(a5)
0x80006c94: 65 07 a6 83 lw	a3, 1616(a5)
0x80006c98: 65 47 a7 03 lw	a4, 1620(a5)
0x80006c9c: 00 e6 f7 33 and	a4, a3, a4
0x80006ca0: 06 07 0e 63 beq	a4, zero, 0x80006d1c
0x80006d1c: 00 00 57 37 lui	a4, 5
0x80006d20: ff ff d7 b7 lui	a5, 1048573
0x80006d24: 19 07 07 13 addi	a4, a4, 400
0x80006d28: 00 f7 07 33 add	a4, a4, a5
0x80006d2c: 01 01 07 93 addi	a5, sp, 16
0x80006d30: 00 f7 07 b3 add	a5, a4, a5
0x80006d34: ff e0 07 13 addi	a4, zero, -2
0x80006d38: 64 e7 ac 23 sw	a4, 1624(a5)
0x80006d3c: 00 10 07 13 addi	a4, zero, 1
0x80006d40: 64 e7 ae 23 sw	a4, 1628(a5)
0x80006d44: 65 87 a6 83 lw	a3, 1624(a5)
0x80006d48: 65 c7 a7 03 lw	a4, 1628(a5)
0x80006d4c: 00 e6 f7 33 and	a4, a3, a4
0x80006d50: 06 07 0e 63 beq	a4, zero, 0x80006dcc
0x80006dcc: 00 00 57 37 lui	a4, 5
0x80006dd0: ff ff d7 b7 lui	a5, 1048573
0x80006dd4: 19 07 07 13 addi	a4, a4, 400
0x80006dd8: 00 f7 07 33 add	a4, a4, a5
0x80006ddc: 01 01 07 93 addi	a5, sp, 16
0x80006de0: 00 f7 07 b3 add	a5, a4, a5
0x80006de4: ff e0 07 13 addi	a4, zero, -2
0x80006de8: 66 e7 a0 23 sw	a4, 1632(a5)
0x80006dec: 00 20 07 13 addi	a4, zero, 2
0x80006df0: 66 e7 a2 23 sw	a4, 1636(a5)
0x80006df4: 66 07 a6 03 lw	a2, 1632(a5)
0x80006df8: 66 47 a6 83 lw	a3, 1636(a5)
0x80006dfc: 00 d6 76 b3 and	a3, a2, a3
0x80006e00: 06 e6 8e 63 beq	a3, a4, 0x80006e7c
0x80006e7c: 00 00 57 37 lui	a4, 5
0x80006e80: ff ff d7 b7 lui	a5, 1048573
0x80006e84: 19 07 07 13 addi	a4, a4, 400
0x80006e88: 00 f7 07 33 add	a4, a4, a5
0x80006e8c: 01 01 07 93 addi	a5, sp, 16
0x80006e90: 00 f7 07 b3 add	a5, a4, a5
0x80006e94: ff e0 07 13 addi	a4, zero, -2
0x80006e98: 66 e7 a4 23 sw	a4, 1640(a5)
0x80006e9c: 80 00 07 37 lui	a4, 524288
0x80006ea0: ff e7 47 13 xori	a4, a4, -2
0x80006ea4: 66 e7 a6 23 sw	a4, 1644(a5)
0x80006ea8: 66 87 a6 03 lw	a2, 1640(a5)
0x80006eac: 66 c7 a6 83 lw	a3, 1644(a5)
0x80006eb0: 00 d6 76 b3 and	a3, a2, a3
0x80006eb4: 08 e6 80 63 beq	a3, a4, 0x80006f34
0x80006f34: 00 00 57 37 lui	a4, 5
0x80006f38: ff ff d7 b7 lui	a5, 1048573
0x80006f3c: 19 07 07 13 addi	a4, a4, 400
0x80006f40: 00 f7 07 33 add	a4, a4, a5
0x80006f44: 01 01 07 93 addi	a5, sp, 16
0x80006f48: 00 f7 07 b3 add	a5, a4, a5
0x80006f4c: ff e0 06 93 addi	a3, zero, -2
0x80006f50: 80 00 07 37 lui	a4, 524288
0x80006f54: 66 d7 a8 23 sw	a3, 1648(a5)
0x80006f58: ff f7 46 93 xori	a3, a4, -1
0x80006f5c: 66 d7 aa 23 sw	a3, 1652(a5)
0x80006f60: 67 07 a6 03 lw	a2, 1648(a5)
0x80006f64: 67 47 a6 83 lw	a3, 1652(a5)
0x80006f68: ff e7 47 13 xori	a4, a4, -2
0x80006f6c: 00 d6 76 b3 and	a3, a2, a3
0x80006f70: 08 e6 80 63 beq	a3, a4, 0x80006ff0
0x80006ff0: 00 00 57 37 lui	a4, 5
0x80006ff4: ff ff d7 b7 lui	a5, 1048573
0x80006ff8: 19 07 07 13 addi	a4, a4, 400
0x80006ffc: 00 f7 07 33 add	a4, a4, a5
0x80007000: 01 01 07 93 addi	a5, sp, 16
0x80007004: 00 f7 07 b3 add	a5, a4, a5
0x80007008: ff f0 07 13 addi	a4, zero, -1
0x8000700c: 66 e7 ac 23 sw	a4, 1656(a5)
0x80007010: 66 e7 ae 23 sw	a4, 1660(a5)
0x80007014: 67 87 a6 03 lw	a2, 1656(a5)
0x80007018: 67 c7 a6 83 lw	a3, 1660(a5)
0x8000701c: 00 d6 76 b3 and	a3, a2, a3
0x80007020: 06 e6 8e 63 beq	a3, a4, 0x8000709c
0x8000709c: 00 00 57 37 lui	a4, 5
0x800070a0: ff ff d7 b7 lui	a5, 1048573
0x800070a4: 19 07 07 13 addi	a4, a4, 400
0x800070a8: 00 f7 07 33 add	a4, a4, a5
0x800070ac: 01 01 07 93 addi	a5, sp, 16
0x800070b0: 00 f7 07 b3 add	a5, a4, a5
0x800070b4: ff f0 07 13 addi	a4, zero, -1
0x800070b8: 68 e7 a0 23 sw	a4, 1664(a5)
0x800070bc: 68 07 a2 23 sw	zero, 1668(a5)
0x800070c0: 68 07 a6 83 lw	a3, 1664(a5)
0x800070c4: 68 47 a7 03 lw	a4, 1668(a5)
0x800070c8: 00 e6 f7 33 and	a4, a3, a4
0x800070cc: 06 07 0e 63 beq	a4, zero, 0x80007148
0x80007148: 00 00 57 37 lui	a4, 5
0x8000714c: ff ff d7 b7 lui	a5, 1048573
0x80007150: 19 07 07 13 addi	a4, a4, 400
0x80007154: 00 f7 07 33 add	a4, a4, a5
0x80007158: 01 01 07 93 addi	a5, sp, 16
0x8000715c: 00 f7 07 b3 add	a5, a4, a5
0x80007160: ff f0 07 13 addi	a4, zero, -1
0x80007164: 68 e7 a4 23 sw	a4, 1672(a5)
0x80007168: 00 10 07 13 addi	a4, zero, 1
0x8000716c: 68 e7 a6 23 sw	a4, 1676(a5)
0x80007170: 68 87 a6 03 lw	a2, 1672(a5)
0x80007174: 68 c7 a6 83 lw	a3, 1676(a5)
0x80007178: 00 d6 76 b3 and	a3, a2, a3
0x8000717c: 06 e6 8e 63 beq	a3, a4, 0x800071f8
0x800071f8: 00 00 57 37 lui	a4, 5
0x800071fc: ff ff d7 b7 lui	a5, 1048573
0x80007200: 19 07 07 13 addi	a4, a4, 400
0x80007204: 00 f7 07 33 add	a4, a4, a5
0x80007208: 01 01 07 93 addi	a5, sp, 16
0x8000720c: 00 f7 07 b3 add	a5, a4, a5
0x80007210: ff f0 07 13 addi	a4, zero, -1
0x80007214: 68 e7 a8 23 sw	a4, 1680(a5)
0x80007218: 00 20 07 13 addi	a4, zero, 2
0x8000721c: 68 e7 aa 23 sw	a4, 1684(a5)
0x80007220: 69 07 a6 03 lw	a2, 1680(a5)
0x80007224: 69 47 a6 83 lw	a3, 1684(a5)
0x80007228: 00 d6 76 b3 and	a3, a2, a3
0x8000722c: 06 e6 8e 63 beq	a3, a4, 0x800072a8
0x800072a8: 00 00 57 37 lui	a4, 5
0x800072ac: ff ff d7 b7 lui	a5, 1048573
0x800072b0: 19 07 07 13 addi	a4, a4, 400
0x800072b4: 00 f7 07 33 add	a4, a4, a5
0x800072b8: 01 01 07 93 addi	a5, sp, 16
0x800072bc: 00 f7 07 b3 add	a5, a4, a5
0x800072c0: ff f0 07 13 addi	a4, zero, -1
0x800072c4: 68 e7 ac 23 sw	a4, 1688(a5)
0x800072c8: 80 00 07 37 lui	a4, 524288
0x800072cc: ff e7 47 13 xori	a4, a4, -2
0x800072d0: 68 e7 ae 23 sw	a4, 1692(a5)
0x800072d4: 69 87 a6 03 lw	a2, 1688(a5)
0x800072d8: 69 c7 a6 83 lw	a3, 1692(a5)
0x800072dc: 00 d6 76 b3 and	a3, a2, a3
0x800072e0: 08 e6 80 63 beq	a3, a4, 0x80007360
0x80007360: 00 00 57 37 lui	a4, 5
0x80007364: ff ff d7 b7 lui	a5, 1048573
0x80007368: 19 07 07 13 addi	a4, a4, 400
0x8000736c: 00 f7 07 33 add	a4, a4, a5
0x80007370: 01 01 07 93 addi	a5, sp, 16
0x80007374: 00 f7 07 b3 add	a5, a4, a5
0x80007378: ff f0 07 13 addi	a4, zero, -1
0x8000737c: 6a e7 a0 23 sw	a4, 1696(a5)
0x80007380: 80 00 07 37 lui	a4, 524288
0x80007384: ff f7 47 13 xori	a4, a4, -1
0x80007388: 6a e7 a2 23 sw	a4, 1700(a5)
0x8000738c: 6a 07 a6 03 lw	a2, 1696(a5)
0x80007390: 6a 47 a6 83 lw	a3, 1700(a5)
0x80007394: 00 d6 76 b3 and	a3, a2, a3
0x80007398: 08 e6 80 63 beq	a3, a4, 0x80007418
0x80007418: 00 00 57 37 lui	a4, 5
0x8000741c: ff ff d7 b7 lui	a5, 1048573
0x80007420: 19 07 07 13 addi	a4, a4, 400
0x80007424: 00 f7 07 33 add	a4, a4, a5
0x80007428: 01 01 07 93 addi	a5, sp, 16
0x8000742c: 00 f7 07 b3 add	a5, a4, a5
0x80007430: 6a 07 a4 23 sw	zero, 1704(a5)
0x80007434: 6a 07 a6 23 sw	zero, 1708(a5)
0x80007438: 6a 87 a6 83 lw	a3, 1704(a5)
0x8000743c: 6a c7 a7 03 lw	a4, 1708(a5)
0x80007440: 00 e6 f7 33 and	a4, a3, a4
0x80007444: 06 07 0e 63 beq	a4, zero, 0x800074c0
0x800074c0: 00 00 57 37 lui	a4, 5
0x800074c4: ff ff d7 b7 lui	a5, 1048573
0x800074c8: 19 07 07 13 addi	a4, a4, 400
0x800074cc: 00 f7 07 33 add	a4, a4, a5
0x800074d0: 01 01 07 93 addi	a5, sp, 16
0x800074d4: 00 f7 07 b3 add	a5, a4, a5
0x800074d8: 6a 07 a8 23 sw	zero, 1712(a5)
0x800074dc: 00 10 07 13 addi	a4, zero, 1
0x800074e0: 6a e7 aa 23 sw	a4, 1716(a5)
0x800074e4: 6b 07 a6 83 lw	a3, 1712(a5)
0x800074e8: 6b 47 a7 03 lw	a4, 1716(a5)
0x800074ec: 00 e6 f7 33 and	a4, a3, a4
0x800074f0: 06 07 0e 63 beq	a4, zero, 0x8000756c
0x8000756c: 00 00 57 37 lui	a4, 5
0x80007570: ff ff d7 b7 lui	a5, 1048573
0x80007574: 19 07 07 13 addi	a4, a4, 400
0x80007578: 00 f7 07 33 add	a4, a4, a5
0x8000757c: 01 01 07 93 addi	a5, sp, 16
0x80007580: 00 f7 07 b3 add	a5, a4, a5
0x80007584: 6a 07 ac 23 sw	zero, 1720(a5)
0x80007588: 00 20 07 13 addi	a4, zero, 2
0x8000758c: 6a e7 ae 23 sw	a4, 1724(a5)
0x80007590: 6b 87 a6 83 lw	a3, 1720(a5)
0x80007594: 6b c7 a7 03 lw	a4, 1724(a5)
0x80007598: 00 e6 f7 33 and	a4, a3, a4
0x8000759c: 06 07 0e 63 beq	a4, zero, 0x80007618
0x80007618: 00 00 57 37 lui	a4, 5
0x8000761c: ff ff d7 b7 lui	a5, 1048573
0x80007620: 19 07 07 13 addi	a4, a4, 400
0x80007624: 00 f7 07 33 add	a4, a4, a5
0x80007628: 01 01 07 93 addi	a5, sp, 16
0x8000762c: 00 f7 07 b3 add	a5, a4, a5
0x80007630: 80 00 07 37 lui	a4, 524288
0x80007634: 6c 07 a0 23 sw	zero, 1728(a5)
0x80007638: ff e7 47 13 xori	a4, a4, -2
0x8000763c: 6c e7 a2 23 sw	a4, 1732(a5)
0x80007640: 6c 07 a6 83 lw	a3, 1728(a5)
0x80007644: 6c 47 a7 03 lw	a4, 1732(a5)
0x80007648: 00 e6 f7 33 and	a4, a3, a4
0x8000764c: 08 07 00 63 beq	a4, zero, 0x800076cc
0x800076cc: 00 00 57 37 lui	a4, 5
0x800076d0: ff ff d7 b7 lui	a5, 1048573
0x800076d4: 19 07 07 13 addi	a4, a4, 400
0x800076d8: 00 f7 07 33 add	a4, a4, a5
0x800076dc: 01 01 07 93 addi	a5, sp, 16
0x800076e0: 00 f7 07 b3 add	a5, a4, a5
0x800076e4: 80 00 07 37 lui	a4, 524288
0x800076e8: 6c 07 a4 23 sw	zero, 1736(a5)
0x800076ec: ff f7 47 13 xori	a4, a4, -1
0x800076f0: 6c e7 a6 23 sw	a4, 1740(a5)
0x800076f4: 6c 87 a6 83 lw	a3, 1736(a5)
0x800076f8: 6c c7 a7 03 lw	a4, 1740(a5)
0x800076fc: 00 e6 f7 33 and	a4, a3, a4
0x80007700: 08 07 00 63 beq	a4, zero, 0x80007780
0x80007780: 00 00 57 37 lui	a4, 5
0x80007784: ff ff d7 b7 lui	a5, 1048573
0x80007788: 19 07 07 13 addi	a4, a4, 400
0x8000778c: 00 f7 07 33 add	a4, a4, a5
0x80007790: 01 01 07 93 addi	a5, sp, 16
0x80007794: 00 f7 07 b3 add	a5, a4, a5
0x80007798: 00 10 07 13 addi	a4, zero, 1
0x8000779c: 6c e7 a8 23 sw	a4, 1744(a5)
0x800077a0: 6c e7 aa 23 sw	a4, 1748(a5)
0x800077a4: 6d 07 a6 03 lw	a2, 1744(a5)
0x800077a8: 6d 47 a6 83 lw	a3, 1748(a5)
0x800077ac: 00 d6 76 b3 and	a3, a2, a3
0x800077b0: 06 e6 8e 63 beq	a3, a4, 0x8000782c
0x8000782c: 00 00 57 37 lui	a4, 5
0x80007830: ff ff d7 b7 lui	a5, 1048573
0x80007834: 19 07 07 13 addi	a4, a4, 400
0x80007838: 00 f7 07 33 add	a4, a4, a5
0x8000783c: 01 01 07 93 addi	a5, sp, 16
0x80007840: 00 f7 07 b3 add	a5, a4, a5
0x80007844: 00 10 07 13 addi	a4, zero, 1
0x80007848: 6c e7 ac 23 sw	a4, 1752(a5)
0x8000784c: 00 20 07 13 addi	a4, zero, 2
0x80007850: 6c e7 ae 23 sw	a4, 1756(a5)
0x80007854: 6d 87 a6 83 lw	a3, 1752(a5)
0x80007858: 6d c7 a7 03 lw	a4, 1756(a5)
0x8000785c: 00 e6 f7 33 and	a4, a3, a4
0x80007860: 06 07 0e 63 beq	a4, zero, 0x800078dc
0x800078dc: 00 00 57 37 lui	a4, 5
0x800078e0: ff ff d7 b7 lui	a5, 1048573
0x800078e4: 19 07 07 13 addi	a4, a4, 400
0x800078e8: 00 f7 07 33 add	a4, a4, a5
0x800078ec: 01 01 07 93 addi	a5, sp, 16
0x800078f0: 00 f7 07 b3 add	a5, a4, a5
0x800078f4: 00 10 07 13 addi	a4, zero, 1
0x800078f8: 6e e7 a0 23 sw	a4, 1760(a5)
0x800078fc: 80 00 07 37 lui	a4, 524288
0x80007900: ff e7 47 13 xori	a4, a4, -2
0x80007904: 6e e7 a2 23 sw	a4, 1764(a5)
0x80007908: 6e 07 a6 83 lw	a3, 1760(a5)
0x8000790c: 6e 47 a7 03 lw	a4, 1764(a5)
0x80007910: 00 e6 f7 33 and	a4, a3, a4
0x80007914: 08 07 00 63 beq	a4, zero, 0x80007994
0x80007994: 00 00 57 37 lui	a4, 5
0x80007998: ff ff d7 b7 lui	a5, 1048573
0x8000799c: 19 07 07 13 addi	a4, a4, 400
0x800079a0: 00 f7 07 33 add	a4, a4, a5
0x800079a4: 01 01 07 93 addi	a5, sp, 16
0x800079a8: 00 f7 07 b3 add	a5, a4, a5
0x800079ac: 80 00 06 b7 lui	a3, 524288
0x800079b0: 00 10 07 13 addi	a4, zero, 1
0x800079b4: 6e e7 a4 23 sw	a4, 1768(a5)
0x800079b8: ff f6 c6 93 xori	a3, a3, -1
0x800079bc: 6e d7 a6 23 sw	a3, 1772(a5)
0x800079c0: 6e 87 a6 03 lw	a2, 1768(a5)
0x800079c4: 6e c7 a6 83 lw	a3, 1772(a5)
0x800079c8: 00 d6 76 b3 and	a3, a2, a3
0x800079cc: 08 e6 80 63 beq	a3, a4, 0x80007a4c
0x80007a4c: 00 00 57 37 lui	a4, 5
0x80007a50: ff ff d7 b7 lui	a5, 1048573
0x80007a54: 19 07 07 13 addi	a4, a4, 400
0x80007a58: 00 f7 07 33 add	a4, a4, a5
0x80007a5c: 01 01 07 93 addi	a5, sp, 16
0x80007a60: 00 f7 07 b3 add	a5, a4, a5
0x80007a64: 00 20 07 13 addi	a4, zero, 2
0x80007a68: 6e e7 a8 23 sw	a4, 1776(a5)
0x80007a6c: 6e e7 aa 23 sw	a4, 1780(a5)
0x80007a70: 6f 07 a6 03 lw	a2, 1776(a5)
0x80007a74: 6f 47 a6 83 lw	a3, 1780(a5)
0x80007a78: 00 d6 76 b3 and	a3, a2, a3
0x80007a7c: 06 e6 8e 63 beq	a3, a4, 0x80007af8
0x80007af8: 00 00 57 37 lui	a4, 5
0x80007afc: ff ff d7 b7 lui	a5, 1048573
0x80007b00: 19 07 07 13 addi	a4, a4, 400
0x80007b04: 00 f7 07 33 add	a4, a4, a5
0x80007b08: 01 01 07 93 addi	a5, sp, 16
0x80007b0c: 00 f7 07 b3 add	a5, a4, a5
0x80007b10: 80 00 06 b7 lui	a3, 524288
0x80007b14: 00 20 07 13 addi	a4, zero, 2
0x80007b18: 6e e7 ac 23 sw	a4, 1784(a5)
0x80007b1c: ff e6 c6 93 xori	a3, a3, -2
0x80007b20: 6e d7 ae 23 sw	a3, 1788(a5)
0x80007b24: 6f 87 a6 03 lw	a2, 1784(a5)
0x80007b28: 6f c7 a6 83 lw	a3, 1788(a5)
0x80007b2c: 00 d6 76 b3 and	a3, a2, a3
0x80007b30: 08 e6 80 63 beq	a3, a4, 0x80007bb0
0x80007bb0: 00 00 57 37 lui	a4, 5
0x80007bb4: ff ff d7 b7 lui	a5, 1048573
0x80007bb8: 19 07 07 13 addi	a4, a4, 400
0x80007bbc: 00 f7 07 33 add	a4, a4, a5
0x80007bc0: 01 01 07 93 addi	a5, sp, 16
0x80007bc4: 00 f7 07 b3 add	a5, a4, a5
0x80007bc8: 80 00 06 b7 lui	a3, 524288
0x80007bcc: 00 20 07 13 addi	a4, zero, 2
0x80007bd0: 70 e7 a0 23 sw	a4, 1792(a5)
0x80007bd4: ff f6 c6 93 xori	a3, a3, -1
0x80007bd8: 70 d7 a2 23 sw	a3, 1796(a5)
0x80007bdc: 70 07 a6 03 lw	a2, 1792(a5)
0x80007be0: 70 47 a6 83 lw	a3, 1796(a5)
0x80007be4: 00 d6 76 b3 and	a3, a2, a3
0x80007be8: 08 e6 80 63 beq	a3, a4, 0x80007c68
0x80007c68: 00 00 57 37 lui	a4, 5
0x80007c6c: ff ff d7 b7 lui	a5, 1048573
0x80007c70: 19 07 07 13 addi	a4, a4, 400
0x80007c74: 00 f7 07 33 add	a4, a4, a5
0x80007c78: 01 01 07 93 addi	a5, sp, 16
0x80007c7c: 00 f7 07 b3 add	a5, a4, a5
0x80007c80: 80 00 07 37 lui	a4, 524288
0x80007c84: ff e7 47 13 xori	a4, a4, -2
0x80007c88: 70 e7 a4 23 sw	a4, 1800(a5)
0x80007c8c: 70 e7 a6 23 sw	a4, 1804(a5)
0x80007c90: 70 87 a6 03 lw	a2, 1800(a5)
0x80007c94: 70 c7 a6 83 lw	a3, 1804(a5)
0x80007c98: 00 d6 76 b3 and	a3, a2, a3
0x80007c9c: 08 e6 80 63 beq	a3, a4, 0x80007d1c
0x80007d1c: 00 00 57 37 lui	a4, 5
0x80007d20: ff ff d7 b7 lui	a5, 1048573
0x80007d24: 19 07 07 13 addi	a4, a4, 400
0x80007d28: 00 f7 07 33 add	a4, a4, a5
0x80007d2c: 80 00 06 b7 lui	a3, 524288
0x80007d30: 01 01 07 93 addi	a5, sp, 16
0x80007d34: 00 f7 07 b3 add	a5, a4, a5
0x80007d38: ff e6 c7 13 xori	a4, a3, -2
0x80007d3c: 70 e7 a8 23 sw	a4, 1808(a5)
0x80007d40: ff f6 c6 93 xori	a3, a3, -1
0x80007d44: 70 d7 aa 23 sw	a3, 1812(a5)
0x80007d48: 71 07 a6 03 lw	a2, 1808(a5)
0x80007d4c: 71 47 a6 83 lw	a3, 1812(a5)
0x80007d50: 00 d6 76 b3 and	a3, a2, a3
0x80007d54: 08 e6 80 63 beq	a3, a4, 0x80007dd4
0x80007dd4: 00 00 57 37 lui	a4, 5
0x80007dd8: ff ff d7 b7 lui	a5, 1048573
0x80007ddc: 19 07 07 13 addi	a4, a4, 400
0x80007de0: 00 f7 07 33 add	a4, a4, a5
0x80007de4: 01 01 07 93 addi	a5, sp, 16
0x80007de8: 00 f7 07 b3 add	a5, a4, a5
0x80007dec: 80 00 07 37 lui	a4, 524288
0x80007df0: ff f7 47 13 xori	a4, a4, -1
0x80007df4: 70 e7 ac 23 sw	a4, 1816(a5)
0x80007df8: 70 e7 ae 23 sw	a4, 1820(a5)
0x80007dfc: 71 87 a6 03 lw	a2, 1816(a5)
0x80007e00: 71 c7 a6 83 lw	a3, 1820(a5)
0x80007e04: 00 d6 76 b3 and	a3, a2, a3
0x80007e08: 08 e6 80 63 beq	a3, a4, 0x80007e88
0x80007e88: 00 00 57 37 lui	a4, 5
0x80007e8c: ff ff d7 b7 lui	a5, 1048573
0x80007e90: 19 07 07 13 addi	a4, a4, 400
0x80007e94: 00 f7 07 33 add	a4, a4, a5
0x80007e98: 01 01 07 93 addi	a5, sp, 16
0x80007e9c: 00 f7 07 b3 add	a5, a4, a5
0x80007ea0: 80 00 07 37 lui	a4, 524288
0x80007ea4: 72 e7 a0 23 sw	a4, 1824(a5)
0x80007ea8: 72 e7 a2 23 sw	a4, 1828(a5)
0x80007eac: 72 07 a6 03 lw	a2, 1824(a5)
0x80007eb0: 72 47 a6 83 lw	a3, 1828(a5)
0x80007eb4: 00 d6 66 b3 or	a3, a2, a3
0x80007eb8: 06 e6 8e 63 beq	a3, a4, 0x80007f34
0x80007f34: 00 00 57 37 lui	a4, 5
0x80007f38: ff ff d7 b7 lui	a5, 1048573
0x80007f3c: 19 07 07 13 addi	a4, a4, 400
0x80007f40: 00 f7 07 33 add	a4, a4, a5
0x80007f44: 01 01 07 93 addi	a5, sp, 16
0x80007f48: 00 f7 07 b3 add	a5, a4, a5
0x80007f4c: 80 00 07 37 lui	a4, 524288
0x80007f50: 72 e7 a4 23 sw	a4, 1832(a5)
0x80007f54: 00 17 07 13 addi	a4, a4, 1
0x80007f58: 72 e7 a6 23 sw	a4, 1836(a5)
0x80007f5c: 72 87 a6 03 lw	a2, 1832(a5)
0x80007f60: 72 c7 a6 83 lw	a3, 1836(a5)
0x80007f64: 00 d6 66 b3 or	a3, a2, a3
0x80007f68: 06 e6 8e 63 beq	a3, a4, 0x80007fe4
0x80007fe4: 00 00 57 37 lui	a4, 5
0x80007fe8: ff ff d7 b7 lui	a5, 1048573
0x80007fec: 19 07 07 13 addi	a4, a4, 400
0x80007ff0: 00 f7 07 33 add	a4, a4, a5
0x80007ff4: 01 01 07 93 addi	a5, sp, 16
0x80007ff8: 00 f7 07 b3 add	a5, a4, a5
0x80007ffc: 80 00 07 37 lui	a4, 524288
0x80008000: 72 e7 a8 23 sw	a4, 1840(a5)
0x80008004: ff e0 07 13 addi	a4, zero, -2
0x80008008: 72 e7 aa 23 sw	a4, 1844(a5)
0x8000800c: 73 07 a6 03 lw	a2, 1840(a5)
0x80008010: 73 47 a6 83 lw	a3, 1844(a5)
0x80008014: 00 d6 66 b3 or	a3, a2, a3
0x80008018: 06 e6 8e 63 beq	a3, a4, 0x80008094
0x80008094: 00 00 57 37 lui	a4, 5
0x80008098: ff ff d7 b7 lui	a5, 1048573
0x8000809c: 19 07 07 13 addi	a4, a4, 400
0x800080a0: 00 f7 07 33 add	a4, a4, a5
0x800080a4: 01 01 07 93 addi	a5, sp, 16
0x800080a8: 00 f7 07 b3 add	a5, a4, a5
0x800080ac: 80 00 07 37 lui	a4, 524288
0x800080b0: 72 e7 ac 23 sw	a4, 1848(a5)
0x800080b4: ff f0 07 13 addi	a4, zero, -1
0x800080b8: 72 e7 ae 23 sw	a4, 1852(a5)
0x800080bc: 73 87 a6 03 lw	a2, 1848(a5)
0x800080c0: 73 c7 a6 83 lw	a3, 1852(a5)
0x800080c4: 00 d6 66 b3 or	a3, a2, a3
0x800080c8: 06 e6 8e 63 beq	a3, a4, 0x80008144
0x80008144: 00 00 57 37 lui	a4, 5
0x80008148: ff ff d7 b7 lui	a5, 1048573
0x8000814c: 19 07 07 13 addi	a4, a4, 400
0x80008150: 00 f7 07 33 add	a4, a4, a5
0x80008154: 01 01 07 93 addi	a5, sp, 16
0x80008158: 00 f7 07 b3 add	a5, a4, a5
0x8000815c: 80 00 07 37 lui	a4, 524288
0x80008160: 74 e7 a0 23 sw	a4, 1856(a5)
0x80008164: 74 07 a2 23 sw	zero, 1860(a5)
0x80008168: 74 07 a6 03 lw	a2, 1856(a5)
0x8000816c: 74 47 a6 83 lw	a3, 1860(a5)
0x80008170: 00 d6 66 b3 or	a3, a2, a3
0x80008174: 06 e6 8e 63 beq	a3, a4, 0x800081f0
0x800081f0: 00 00 57 37 lui	a4, 5
0x800081f4: ff ff d7 b7 lui	a5, 1048573
0x800081f8: 19 07 07 13 addi	a4, a4, 400
0x800081fc: 00 f7 07 33 add	a4, a4, a5
0x80008200: 01 01 07 93 addi	a5, sp, 16
0x80008204: 00 f7 07 b3 add	a5, a4, a5
0x80008208: 80 00 07 37 lui	a4, 524288
0x8000820c: 74 e7 a4 23 sw	a4, 1864(a5)
0x80008210: 00 10 06 93 addi	a3, zero, 1
0x80008214: 74 d7 a6 23 sw	a3, 1868(a5)
0x80008218: 74 87 a6 03 lw	a2, 1864(a5)
0x8000821c: 74 c7 a6 83 lw	a3, 1868(a5)
0x80008220: 00 17 07 13 addi	a4, a4, 1
0x80008224: 00 d6 66 b3 or	a3, a2, a3
0x80008228: 08 e6 80 63 beq	a3, a4, 0x800082a8
0x800082a8: 00 00 57 37 lui	a4, 5
0x800082ac: ff ff d7 b7 lui	a5, 1048573
0x800082b0: 19 07 07 13 addi	a4, a4, 400
0x800082b4: 00 f7 07 33 add	a4, a4, a5
0x800082b8: 01 01 07 93 addi	a5, sp, 16
0x800082bc: 00 f7 07 b3 add	a5, a4, a5
0x800082c0: 80 00 07 37 lui	a4, 524288
0x800082c4: 74 e7 a8 23 sw	a4, 1872(a5)
0x800082c8: 00 20 06 93 addi	a3, zero, 2
0x800082cc: 74 d7 aa 23 sw	a3, 1876(a5)
0x800082d0: 75 07 a6 03 lw	a2, 1872(a5)
0x800082d4: 75 47 a6 83 lw	a3, 1876(a5)
0x800082d8: 00 27 07 13 addi	a4, a4, 2
0x800082dc: 00 d6 66 b3 or	a3, a2, a3
0x800082e0: 08 e6 80 63 beq	a3, a4, 0x80008360
0x80008360: 00 00 57 37 lui	a4, 5
0x80008364: ff ff d7 b7 lui	a5, 1048573
0x80008368: 19 07 07 13 addi	a4, a4, 400
0x8000836c: 00 f7 07 33 add	a4, a4, a5
0x80008370: 01 01 07 93 addi	a5, sp, 16
0x80008374: 00 f7 07 b3 add	a5, a4, a5
0x80008378: 80 00 07 37 lui	a4, 524288
0x8000837c: 74 e7 ac 23 sw	a4, 1880(a5)
0x80008380: ff e7 47 13 xori	a4, a4, -2
0x80008384: 74 e7 ae 23 sw	a4, 1884(a5)
0x80008388: 75 87 a6 03 lw	a2, 1880(a5)
0x8000838c: 75 c7 a6 83 lw	a3, 1884(a5)
0x80008390: ff e0 07 13 addi	a4, zero, -2
0x80008394: 00 d6 66 b3 or	a3, a2, a3
0x80008398: 08 e6 80 63 beq	a3, a4, 0x80008418
0x80008418: 00 00 57 37 lui	a4, 5
0x8000841c: ff ff d7 b7 lui	a5, 1048573
0x80008420: 19 07 07 13 addi	a4, a4, 400
0x80008424: 00 f7 07 33 add	a4, a4, a5
0x80008428: 01 01 07 93 addi	a5, sp, 16
0x8000842c: 00 f7 07 b3 add	a5, a4, a5
0x80008430: 80 00 07 37 lui	a4, 524288
0x80008434: 76 e7 a0 23 sw	a4, 1888(a5)
0x80008438: ff f7 47 13 xori	a4, a4, -1
0x8000843c: 76 e7 a2 23 sw	a4, 1892(a5)
0x80008440: 76 07 a6 03 lw	a2, 1888(a5)
0x80008444: 76 47 a6 83 lw	a3, 1892(a5)
0x80008448: ff f0 07 13 addi	a4, zero, -1
0x8000844c: 00 d6 66 b3 or	a3, a2, a3
0x80008450: 08 e6 80 63 beq	a3, a4, 0x800084d0
0x800084d0: 00 00 57 37 lui	a4, 5
0x800084d4: ff ff d7 b7 lui	a5, 1048573
0x800084d8: 19 07 07 13 addi	a4, a4, 400
0x800084dc: 00 f7 07 33 add	a4, a4, a5
0x800084e0: 01 01 07 93 addi	a5, sp, 16
0x800084e4: 00 f7 07 b3 add	a5, a4, a5
0x800084e8: 80 00 07 37 lui	a4, 524288
0x800084ec: 00 17 07 13 addi	a4, a4, 1
0x800084f0: 76 e7 a4 23 sw	a4, 1896(a5)
0x800084f4: 76 e7 a6 23 sw	a4, 1900(a5)
0x800084f8: 76 87 a6 03 lw	a2, 1896(a5)
0x800084fc: 76 c7 a6 83 lw	a3, 1900(a5)
0x80008500: 00 d6 66 b3 or	a3, a2, a3
0x80008504: 08 e6 80 63 beq	a3, a4, 0x80008584
0x80008584: 00 00 57 37 lui	a4, 5
0x80008588: ff ff d7 b7 lui	a5, 1048573
0x8000858c: 19 07 07 13 addi	a4, a4, 400
0x80008590: 00 f7 07 33 add	a4, a4, a5
0x80008594: 01 01 07 93 addi	a5, sp, 16
0x80008598: 00 f7 07 b3 add	a5, a4, a5
0x8000859c: 80 00 07 37 lui	a4, 524288
0x800085a0: 00 17 07 13 addi	a4, a4, 1
0x800085a4: 76 e7 a8 23 sw	a4, 1904(a5)
0x800085a8: ff e0 07 13 addi	a4, zero, -2
0x800085ac: 76 e7 aa 23 sw	a4, 1908(a5)
0x800085b0: 77 07 a6 03 lw	a2, 1904(a5)
0x800085b4: 77 47 a6 83 lw	a3, 1908(a5)
0x800085b8: ff f0 07 13 addi	a4, zero, -1
0x800085bc: 00 d6 66 b3 or	a3, a2, a3
0x800085c0: 08 e6 80 63 beq	a3, a4, 0x80008640
0x80008640: 00 00 57 37 lui	a4, 5
0x80008644: ff ff d7 b7 lui	a5, 1048573
0x80008648: 19 07 07 13 addi	a4, a4, 400
0x8000864c: 00 f7 07 33 add	a4, a4, a5
0x80008650: 01 01 07 93 addi	a5, sp, 16
0x80008654: 00 f7 07 b3 add	a5, a4, a5
0x80008658: 80 00 07 37 lui	a4, 524288
0x8000865c: 00 17 07 13 addi	a4, a4, 1
0x80008660: 76 e7 ac 23 sw	a4, 1912(a5)
0x80008664: ff f0 07 13 addi	a4, zero, -1
0x80008668: 76 e7 ae 23 sw	a4, 1916(a5)
0x8000866c: 77 87 a6 03 lw	a2, 1912(a5)
0x80008670: 77 c7 a6 83 lw	a3, 1916(a5)
0x80008674: 00 d6 66 b3 or	a3, a2, a3
0x80008678: 08 e6 80 63 beq	a3, a4, 0x800086f8
0x800086f8: 00 00 57 37 lui	a4, 5
0x800086fc: ff ff d7 b7 lui	a5, 1048573
0x80008700: 19 07 07 13 addi	a4, a4, 400
0x80008704: 00 f7 07 33 add	a4, a4, a5
0x80008708: 01 01 07 93 addi	a5, sp, 16
0x8000870c: 00 f7 07 b3 add	a5, a4, a5
0x80008710: 80 00 07 37 lui	a4, 524288
0x80008714: 00 17 07 13 addi	a4, a4, 1
0x80008718: 78 e7 a0 23 sw	a4, 1920(a5)
0x8000871c: 78 07 a2 23 sw	zero, 1924(a5)
0x80008720: 78 07 a6 03 lw	a2, 1920(a5)
0x80008724: 78 47 a6 83 lw	a3, 1924(a5)
0x80008728: 00 d6 66 b3 or	a3, a2, a3
0x8000872c: 08 e6 80 63 beq	a3, a4, 0x800087ac
0x800087ac: 00 00 57 37 lui	a4, 5
0x800087b0: ff ff d7 b7 lui	a5, 1048573
0x800087b4: 19 07 07 13 addi	a4, a4, 400
0x800087b8: 00 f7 07 33 add	a4, a4, a5
0x800087bc: 01 01 07 93 addi	a5, sp, 16
0x800087c0: 00 f7 07 b3 add	a5, a4, a5
0x800087c4: 80 00 07 37 lui	a4, 524288
0x800087c8: 00 17 07 13 addi	a4, a4, 1
0x800087cc: 78 e7 a4 23 sw	a4, 1928(a5)
0x800087d0: 00 10 06 93 addi	a3, zero, 1
0x800087d4: 78 d7 a6 23 sw	a3, 1932(a5)
0x800087d8: 78 87 a6 03 lw	a2, 1928(a5)
0x800087dc: 78 c7 a6 83 lw	a3, 1932(a5)
0x800087e0: 00 d6 66 b3 or	a3, a2, a3
0x800087e4: 08 e6 80 63 beq	a3, a4, 0x80008864
0x80008864: 00 00 56 b7 lui	a3, 5
0x80008868: ff ff d7 b7 lui	a5, 1048573
0x8000886c: 19 06 86 93 addi	a3, a3, 400
0x80008870: 00 f6 86 b3 add	a3, a3, a5
0x80008874: 80 00 07 37 lui	a4, 524288
0x80008878: 01 01 07 93 addi	a5, sp, 16
0x8000887c: 00 f6 87 b3 add	a5, a3, a5
0x80008880: 00 17 06 93 addi	a3, a4, 1
0x80008884: 78 d7 a8 23 sw	a3, 1936(a5)
0x80008888: 00 20 06 93 addi	a3, zero, 2
0x8000888c: 78 d7 aa 23 sw	a3, 1940(a5)
0x80008890: 79 07 a6 03 lw	a2, 1936(a5)
0x80008894: 79 47 a6 83 lw	a3, 1940(a5)
0x80008898: 00 37 07 13 addi	a4, a4, 3
0x8000889c: 00 d6 66 b3 or	a3, a2, a3
0x800088a0: 08 e6 80 63 beq	a3, a4, 0x80008920
0x80008920: 00 00 56 b7 lui	a3, 5
0x80008924: ff ff d7 b7 lui	a5, 1048573
0x80008928: 19 06 86 93 addi	a3, a3, 400
0x8000892c: 00 f6 86 b3 add	a3, a3, a5
0x80008930: 80 00 07 37 lui	a4, 524288
0x80008934: 01 01 07 93 addi	a5, sp, 16
0x80008938: 00 f6 87 b3 add	a5, a3, a5
0x8000893c: 00 17 06 93 addi	a3, a4, 1
0x80008940: 78 d7 ac 23 sw	a3, 1944(a5)
0x80008944: ff e7 47 13 xori	a4, a4, -2
0x80008948: 78 e7 ae 23 sw	a4, 1948(a5)
0x8000894c: 79 87 a6 03 lw	a2, 1944(a5)
0x80008950: 79 c7 a6 83 lw	a3, 1948(a5)
0x80008954: ff f0 07 13 addi	a4, zero, -1
0x80008958: 00 d6 66 b3 or	a3, a2, a3
0x8000895c: 08 e6 80 63 beq	a3, a4, 0x800089dc
0x800089dc: 00 00 56 b7 lui	a3, 5
0x800089e0: ff ff d7 b7 lui	a5, 1048573
0x800089e4: 19 06 86 93 addi	a3, a3, 400
0x800089e8: 00 f6 86 b3 add	a3, a3, a5
0x800089ec: 80 00 07 37 lui	a4, 524288
0x800089f0: 01 01 07 93 addi	a5, sp, 16
0x800089f4: 00 f6 87 b3 add	a5, a3, a5
0x800089f8: 00 17 06 93 addi	a3, a4, 1
0x800089fc: 7a d7 a0 23 sw	a3, 1952(a5)
0x80008a00: ff f7 47 13 xori	a4, a4, -1
0x80008a04: 7a e7 a2 23 sw	a4, 1956(a5)
0x80008a08: 7a 07 a6 03 lw	a2, 1952(a5)
0x80008a0c: 7a 47 a6 83 lw	a3, 1956(a5)
0x80008a10: ff f0 07 13 addi	a4, zero, -1
0x80008a14: 00 d6 66 b3 or	a3, a2, a3
0x80008a18: 08 e6 80 63 beq	a3, a4, 0x80008a98
0x80008a98: 00 00 57 37 lui	a4, 5
0x80008a9c: ff ff d7 b7 lui	a5, 1048573
0x80008aa0: 19 07 07 13 addi	a4, a4, 400
0x80008aa4: 00 f7 07 33 add	a4, a4, a5
0x80008aa8: 01 01 07 93 addi	a5, sp, 16
0x80008aac: 00 f7 07 b3 add	a5, a4, a5
0x80008ab0: ff e0 07 13 addi	a4, zero, -2
0x80008ab4: 7a e7 a4 23 sw	a4, 1960(a5)
0x80008ab8: 7a e7 a6 23 sw	a4, 1964(a5)
0x80008abc: 7a 87 a6 03 lw	a2, 1960(a5)
0x80008ac0: 7a c7 a6 83 lw	a3, 1964(a5)
0x80008ac4: 00 d6 66 b3 or	a3, a2, a3
0x80008ac8: 06 e6 8e 63 beq	a3, a4, 0x80008b44
0x80008b44: 00 00 57 37 lui	a4, 5
0x80008b48: ff ff d7 b7 lui	a5, 1048573
0x80008b4c: 19 07 07 13 addi	a4, a4, 400
0x80008b50: 00 f7 07 33 add	a4, a4, a5
0x80008b54: 01 01 07 93 addi	a5, sp, 16
0x80008b58: 00 f7 07 b3 add	a5, a4, a5
0x80008b5c: ff e0 07 13 addi	a4, zero, -2
0x80008b60: 7a e7 a8 23 sw	a4, 1968(a5)
0x80008b64: ff f0 07 13 addi	a4, zero, -1
0x80008b68: 7a e7 aa 23 sw	a4, 1972(a5)
0x80008b6c: 7b 07 a6 03 lw	a2, 1968(a5)
0x80008b70: 7b 47 a6 83 lw	a3, 1972(a5)
0x80008b74: 00 d6 66 b3 or	a3, a2, a3
0x80008b78: 06 e6 8e 63 beq	a3, a4, 0x80008bf4
0x80008bf4: 00 00 57 37 lui	a4, 5
0x80008bf8: ff ff d7 b7 lui	a5, 1048573
0x80008bfc: 19 07 07 13 addi	a4, a4, 400
0x80008c00: 00 f7 07 33 add	a4, a4, a5
0x80008c04: 01 01 07 93 addi	a5, sp, 16
0x80008c08: 00 f7 07 b3 add	a5, a4, a5
0x80008c0c: ff e0 07 13 addi	a4, zero, -2
0x80008c10: 7a e7 ac 23 sw	a4, 1976(a5)
0x80008c14: 7a 07 ae 23 sw	zero, 1980(a5)
0x80008c18: 7b 87 a6 03 lw	a2, 1976(a5)
0x80008c1c: 7b c7 a6 83 lw	a3, 1980(a5)
0x80008c20: 00 d6 66 b3 or	a3, a2, a3
0x80008c24: 06 e6 8e 63 beq	a3, a4, 0x80008ca0
0x80008ca0: 00 00 57 37 lui	a4, 5
0x80008ca4: ff ff d7 b7 lui	a5, 1048573
0x80008ca8: 19 07 07 13 addi	a4, a4, 400
0x80008cac: 00 f7 07 33 add	a4, a4, a5
0x80008cb0: 01 01 07 93 addi	a5, sp, 16
0x80008cb4: 00 f7 07 b3 add	a5, a4, a5
0x80008cb8: ff e0 07 13 addi	a4, zero, -2
0x80008cbc: 7c e7 a0 23 sw	a4, 1984(a5)
0x80008cc0: 00 10 07 13 addi	a4, zero, 1
0x80008cc4: 7c e7 a2 23 sw	a4, 1988(a5)
0x80008cc8: 7c 07 a6 03 lw	a2, 1984(a5)
0x80008ccc: 7c 47 a6 83 lw	a3, 1988(a5)
0x80008cd0: ff f0 07 13 addi	a4, zero, -1
0x80008cd4: 00 d6 66 b3 or	a3, a2, a3
0x80008cd8: 06 e6 8e 63 beq	a3, a4, 0x80008d54
0x80008d54: 00 00 57 37 lui	a4, 5
0x80008d58: ff ff d7 b7 lui	a5, 1048573
0x80008d5c: 19 07 07 13 addi	a4, a4, 400
0x80008d60: 00 f7 07 33 add	a4, a4, a5
0x80008d64: 01 01 07 93 addi	a5, sp, 16
0x80008d68: 00 f7 07 b3 add	a5, a4, a5
0x80008d6c: ff e0 07 13 addi	a4, zero, -2
0x80008d70: 7c e7 a4 23 sw	a4, 1992(a5)
0x80008d74: 00 20 06 93 addi	a3, zero, 2
0x80008d78: 7c d7 a6 23 sw	a3, 1996(a5)
0x80008d7c: 7c 87 a6 03 lw	a2, 1992(a5)
0x80008d80: 7c c7 a6 83 lw	a3, 1996(a5)
0x80008d84: 00 d6 66 b3 or	a3, a2, a3
0x80008d88: 06 e6 8e 63 beq	a3, a4, 0x80008e04
0x80008e04: 00 00 57 37 lui	a4, 5
0x80008e08: ff ff d7 b7 lui	a5, 1048573
0x80008e0c: 19 07 07 13 addi	a4, a4, 400
0x80008e10: 00 f7 07 33 add	a4, a4, a5
0x80008e14: 01 01 07 93 addi	a5, sp, 16
0x80008e18: 00 f7 07 b3 add	a5, a4, a5
0x80008e1c: 80 00 06 b7 lui	a3, 524288
0x80008e20: ff e0 07 13 addi	a4, zero, -2
0x80008e24: 7c e7 a8 23 sw	a4, 2000(a5)
0x80008e28: ff e6 c6 93 xori	a3, a3, -2
0x80008e2c: 7c d7 aa 23 sw	a3, 2004(a5)
0x80008e30: 7d 07 a6 03 lw	a2, 2000(a5)
0x80008e34: 7d 47 a6 83 lw	a3, 2004(a5)
0x80008e38: 00 d6 66 b3 or	a3, a2, a3
0x80008e3c: 08 e6 80 63 beq	a3, a4, 0x80008ebc
0x80008ebc: 00 00 57 37 lui	a4, 5
0x80008ec0: ff ff d7 b7 lui	a5, 1048573
0x80008ec4: 19 07 07 13 addi	a4, a4, 400
0x80008ec8: 00 f7 07 33 add	a4, a4, a5
0x80008ecc: 01 01 07 93 addi	a5, sp, 16
0x80008ed0: 00 f7 07 b3 add	a5, a4, a5
0x80008ed4: ff e0 07 13 addi	a4, zero, -2
0x80008ed8: 7c e7 ac 23 sw	a4, 2008(a5)
0x80008edc: 80 00 07 37 lui	a4, 524288
0x80008ee0: ff f7 47 13 xori	a4, a4, -1
0x80008ee4: 7c e7 ae 23 sw	a4, 2012(a5)
0x80008ee8: 7d 87 a6 03 lw	a2, 2008(a5)
0x80008eec: 7d c7 a6 83 lw	a3, 2012(a5)
0x80008ef0: ff f0 07 13 addi	a4, zero, -1
0x80008ef4: 00 d6 66 b3 or	a3, a2, a3
0x80008ef8: 08 e6 80 63 beq	a3, a4, 0x80008f78
0x80008f78: 00 00 57 37 lui	a4, 5
0x80008f7c: ff ff d7 b7 lui	a5, 1048573
0x80008f80: 19 07 07 13 addi	a4, a4, 400
0x80008f84: 00 f7 07 33 add	a4, a4, a5
0x80008f88: 01 01 07 93 addi	a5, sp, 16
0x80008f8c: 00 f7 07 b3 add	a5, a4, a5
0x80008f90: ff f0 07 13 addi	a4, zero, -1
0x80008f94: 7e e7 a0 23 sw	a4, 2016(a5)
0x80008f98: 7e e7 a2 23 sw	a4, 2020(a5)
0x80008f9c: 7e 07 a6 03 lw	a2, 2016(a5)
0x80008fa0: 7e 47 a6 83 lw	a3, 2020(a5)
0x80008fa4: 00 d6 66 b3 or	a3, a2, a3
0x80008fa8: 06 e6 8e 63 beq	a3, a4, 0x80009024
0x80009024: 00 00 57 37 lui	a4, 5
0x80009028: ff ff d7 b7 lui	a5, 1048573
0x8000902c: 19 07 07 13 addi	a4, a4, 400
0x80009030: 00 f7 07 33 add	a4, a4, a5
0x80009034: 01 01 07 93 addi	a5, sp, 16
0x80009038: 00 f7 07 b3 add	a5, a4, a5
0x8000903c: ff f0 07 13 addi	a4, zero, -1
0x80009040: 7e e7 a4 23 sw	a4, 2024(a5)
0x80009044: 7e 07 a6 23 sw	zero, 2028(a5)
0x80009048: 7e 87 a6 03 lw	a2, 2024(a5)
0x8000904c: 7e c7 a6 83 lw	a3, 2028(a5)
0x80009050: 00 d6 66 b3 or	a3, a2, a3
0x80009054: 06 e6 8e 63 beq	a3, a4, 0x800090d0
0x800090d0: 00 00 57 37 lui	a4, 5
0x800090d4: ff ff d7 b7 lui	a5, 1048573
0x800090d8: 19 07 07 13 addi	a4, a4, 400
0x800090dc: 00 f7 07 33 add	a4, a4, a5
0x800090e0: 01 01 07 93 addi	a5, sp, 16
0x800090e4: 00 f7 07 b3 add	a5, a4, a5
0x800090e8: ff f0 07 13 addi	a4, zero, -1
0x800090ec: 7e e7 a8 23 sw	a4, 2032(a5)
0x800090f0: 00 10 06 93 addi	a3, zero, 1
0x800090f4: 7e d7 aa 23 sw	a3, 2036(a5)
0x800090f8: 7f 07 a6 03 lw	a2, 2032(a5)
0x800090fc: 7f 47 a6 83 lw	a3, 2036(a5)
0x80009100: 00 d6 66 b3 or	a3, a2, a3
0x80009104: 06 e6 8e 63 beq	a3, a4, 0x80009180
0x80009180: 00 00 57 37 lui	a4, 5
0x80009184: ff ff d7 b7 lui	a5, 1048573
0x80009188: 19 07 07 13 addi	a4, a4, 400
0x8000918c: 00 f7 07 33 add	a4, a4, a5
0x80009190: 01 01 07 93 addi	a5, sp, 16
0x80009194: 00 f7 07 b3 add	a5, a4, a5
0x80009198: ff f0 07 13 addi	a4, zero, -1
0x8000919c: 7e e7 ac 23 sw	a4, 2040(a5)
0x800091a0: 00 20 06 93 addi	a3, zero, 2
0x800091a4: 7e d7 ae 23 sw	a3, 2044(a5)
0x800091a8: 7f 87 a6 03 lw	a2, 2040(a5)
0x800091ac: 7f c7 a6 83 lw	a3, 2044(a5)
0x800091b0: 00 d6 66 b3 or	a3, a2, a3
0x800091b4: 06 e6 8e 63 beq	a3, a4, 0x80009230
0x80009230: 00 00 57 37 lui	a4, 5
0x80009234: ff ff e7 b7 lui	a5, 1048574
0x80009238: 19 07 07 13 addi	a4, a4, 400
0x8000923c: 00 f7 07 33 add	a4, a4, a5
0x80009240: 01 01 07 93 addi	a5, sp, 16
0x80009244: 00 f7 07 b3 add	a5, a4, a5
0x80009248: 80 00 06 b7 lui	a3, 524288
0x8000924c: ff f0 07 13 addi	a4, zero, -1
0x80009250: 80 e7 a0 23 sw	a4, -2048(a5)
0x80009254: ff e6 c6 93 xori	a3, a3, -2
0x80009258: 80 d7 a2 23 sw	a3, -2044(a5)
0x8000925c: 80 07 a6 03 lw	a2, -2048(a5)
0x80009260: 80 47 a6 83 lw	a3, -2044(a5)
0x80009264: 00 d6 66 b3 or	a3, a2, a3
0x80009268: 08 e6 80 63 beq	a3, a4, 0x800092e8
0x800092e8: 00 00 57 37 lui	a4, 5
0x800092ec: ff ff e7 b7 lui	a5, 1048574
0x800092f0: 19 07 07 13 addi	a4, a4, 400
0x800092f4: 00 f7 07 33 add	a4, a4, a5
0x800092f8: 01 01 07 93 addi	a5, sp, 16
0x800092fc: 00 f7 07 b3 add	a5, a4, a5
0x80009300: 80 00 06 b7 lui	a3, 524288
0x80009304: ff f0 07 13 addi	a4, zero, -1
0x80009308: 80 e7 a4 23 sw	a4, -2040(a5)
0x8000930c: ff f6 c6 93 xori	a3, a3, -1
0x80009310: 80 d7 a6 23 sw	a3, -2036(a5)
0x80009314: 80 87 a6 03 lw	a2, -2040(a5)
0x80009318: 80 c7 a6 83 lw	a3, -2036(a5)
0x8000931c: 00 d6 66 b3 or	a3, a2, a3
0x80009320: 08 e6 80 63 beq	a3, a4, 0x800093a0
0x800093a0: 00 00 57 37 lui	a4, 5
0x800093a4: ff ff e7 b7 lui	a5, 1048574
0x800093a8: 19 07 07 13 addi	a4, a4, 400
0x800093ac: 00 f7 07 33 add	a4, a4, a5
0x800093b0: 01 01 07 93 addi	a5, sp, 16
0x800093b4: 00 f7 07 b3 add	a5, a4, a5
0x800093b8: 80 07 a8 23 sw	zero, -2032(a5)
0x800093bc: 80 07 aa 23 sw	zero, -2028(a5)
0x800093c0: 81 07 a6 83 lw	a3, -2032(a5)
0x800093c4: 81 47 a7 03 lw	a4, -2028(a5)
0x800093c8: 00 e6 e7 33 or	a4, a3, a4
0x800093cc: 06 07 0e 63 beq	a4, zero, 0x80009448
0x80009448: 00 00 57 37 lui	a4, 5
0x8000944c: ff ff e7 b7 lui	a5, 1048574
0x80009450: 19 07 07 13 addi	a4, a4, 400
0x80009454: 00 f7 07 33 add	a4, a4, a5
0x80009458: 01 01 07 93 addi	a5, sp, 16
0x8000945c: 00 f7 07 b3 add	a5, a4, a5
0x80009460: 80 07 ac 23 sw	zero, -2024(a5)
0x80009464: 00 10 07 13 addi	a4, zero, 1
0x80009468: 80 e7 ae 23 sw	a4, -2020(a5)
0x8000946c: 81 87 a6 03 lw	a2, -2024(a5)
0x80009470: 81 c7 a6 83 lw	a3, -2020(a5)
0x80009474: 00 d6 66 b3 or	a3, a2, a3
0x80009478: 06 e6 8e 63 beq	a3, a4, 0x800094f4
0x800094f4: 00 00 57 37 lui	a4, 5
0x800094f8: ff ff e7 b7 lui	a5, 1048574
0x800094fc: 19 07 07 13 addi	a4, a4, 400
0x80009500: 00 f7 07 33 add	a4, a4, a5
0x80009504: 01 01 07 93 addi	a5, sp, 16
0x80009508: 00 f7 07 b3 add	a5, a4, a5
0x8000950c: 82 07 a0 23 sw	zero, -2016(a5)
0x80009510: 00 20 07 13 addi	a4, zero, 2
0x80009514: 82 e7 a2 23 sw	a4, -2012(a5)
0x80009518: 82 07 a6 03 lw	a2, -2016(a5)
0x8000951c: 82 47 a6 83 lw	a3, -2012(a5)
0x80009520: 00 d6 66 b3 or	a3, a2, a3
0x80009524: 06 e6 8e 63 beq	a3, a4, 0x800095a0
0x800095a0: 00 00 57 37 lui	a4, 5
0x800095a4: ff ff e7 b7 lui	a5, 1048574
0x800095a8: 19 07 07 13 addi	a4, a4, 400
0x800095ac: 00 f7 07 33 add	a4, a4, a5
0x800095b0: 01 01 07 93 addi	a5, sp, 16
0x800095b4: 00 f7 07 b3 add	a5, a4, a5
0x800095b8: 80 00 07 37 lui	a4, 524288
0x800095bc: 82 07 a4 23 sw	zero, -2008(a5)
0x800095c0: ff e7 47 13 xori	a4, a4, -2
0x800095c4: 82 e7 a6 23 sw	a4, -2004(a5)
0x800095c8: 82 87 a6 03 lw	a2, -2008(a5)
0x800095cc: 82 c7 a6 83 lw	a3, -2004(a5)
0x800095d0: 00 d6 66 b3 or	a3, a2, a3
0x800095d4: 08 e6 80 63 beq	a3, a4, 0x80009654
0x80009654: 00 00 57 37 lui	a4, 5
0x80009658: ff ff e7 b7 lui	a5, 1048574
0x8000965c: 19 07 07 13 addi	a4, a4, 400
0x80009660: 00 f7 07 33 add	a4, a4, a5
0x80009664: 01 01 07 93 addi	a5, sp, 16
0x80009668: 00 f7 07 b3 add	a5, a4, a5
0x8000966c: 80 00 07 37 lui	a4, 524288
0x80009670: 82 07 a8 23 sw	zero, -2000(a5)
0x80009674: ff f7 47 13 xori	a4, a4, -1
0x80009678: 82 e7 aa 23 sw	a4, -1996(a5)
0x8000967c: 83 07 a6 03 lw	a2, -2000(a5)
0x80009680: 83 47 a6 83 lw	a3, -1996(a5)
0x80009684: 00 d6 66 b3 or	a3, a2, a3
0x80009688: 08 e6 80 63 beq	a3, a4, 0x80009708
0x80009708: 00 00 57 37 lui	a4, 5
0x8000970c: ff ff e7 b7 lui	a5, 1048574
0x80009710: 19 07 07 13 addi	a4, a4, 400
0x80009714: 00 f7 07 33 add	a4, a4, a5
0x80009718: 01 01 07 93 addi	a5, sp, 16
0x8000971c: 00 f7 07 b3 add	a5, a4, a5
0x80009720: 00 10 07 13 addi	a4, zero, 1
0x80009724: 82 e7 ac 23 sw	a4, -1992(a5)
0x80009728: 82 e7 ae 23 sw	a4, -1988(a5)
0x8000972c: 83 87 a6 03 lw	a2, -1992(a5)
0x80009730: 83 c7 a6 83 lw	a3, -1988(a5)
0x80009734: 00 d6 66 b3 or	a3, a2, a3
0x80009738: 06 e6 8e 63 beq	a3, a4, 0x800097b4
0x800097b4: 00 00 57 37 lui	a4, 5
0x800097b8: ff ff e7 b7 lui	a5, 1048574
0x800097bc: 19 07 07 13 addi	a4, a4, 400
0x800097c0: 00 f7 07 33 add	a4, a4, a5
0x800097c4: 01 01 07 93 addi	a5, sp, 16
0x800097c8: 00 f7 07 b3 add	a5, a4, a5
0x800097cc: 00 10 07 13 addi	a4, zero, 1
0x800097d0: 84 e7 a0 23 sw	a4, -1984(a5)
0x800097d4: 00 20 07 13 addi	a4, zero, 2
0x800097d8: 84 e7 a2 23 sw	a4, -1980(a5)
0x800097dc: 84 07 a6 03 lw	a2, -1984(a5)
0x800097e0: 84 47 a6 83 lw	a3, -1980(a5)
0x800097e4: 00 30 07 13 addi	a4, zero, 3
0x800097e8: 00 d6 66 b3 or	a3, a2, a3
0x800097ec: 06 e6 8e 63 beq	a3, a4, 0x80009868
0x80009868: 00 00 57 37 lui	a4, 5
0x8000986c: ff ff e7 b7 lui	a5, 1048574
0x80009870: 19 07 07 13 addi	a4, a4, 400
0x80009874: 00 f7 07 33 add	a4, a4, a5
0x80009878: 01 01 07 93 addi	a5, sp, 16
0x8000987c: 00 f7 07 b3 add	a5, a4, a5
0x80009880: 00 10 06 93 addi	a3, zero, 1
0x80009884: 80 00 07 37 lui	a4, 524288
0x80009888: 84 d7 a4 23 sw	a3, -1976(a5)
0x8000988c: ff e7 46 93 xori	a3, a4, -2
0x80009890: 84 d7 a6 23 sw	a3, -1972(a5)
0x80009894: 84 87 a6 03 lw	a2, -1976(a5)
0x80009898: 84 c7 a6 83 lw	a3, -1972(a5)
0x8000989c: ff f7 47 13 xori	a4, a4, -1
0x800098a0: 00 d6 66 b3 or	a3, a2, a3
0x800098a4: 08 e6 80 63 beq	a3, a4, 0x80009924
0x80009924: 00 00 57 37 lui	a4, 5
0x80009928: ff ff e7 b7 lui	a5, 1048574
0x8000992c: 19 07 07 13 addi	a4, a4, 400
0x80009930: 00 f7 07 33 add	a4, a4, a5
0x80009934: 01 01 07 93 addi	a5, sp, 16
0x80009938: 00 f7 07 b3 add	a5, a4, a5
0x8000993c: 00 10 07 13 addi	a4, zero, 1
0x80009940: 84 e7 a8 23 sw	a4, -1968(a5)
0x80009944: 80 00 07 37 lui	a4, 524288
0x80009948: ff f7 47 13 xori	a4, a4, -1
0x8000994c: 84 e7 aa 23 sw	a4, -1964(a5)
0x80009950: 85 07 a6 03 lw	a2, -1968(a5)
0x80009954: 85 47 a6 83 lw	a3, -1964(a5)
0x80009958: 00 d6 66 b3 or	a3, a2, a3
0x8000995c: 08 e6 80 63 beq	a3, a4, 0x800099dc
0x800099dc: 00 00 57 37 lui	a4, 5
0x800099e0: ff ff e7 b7 lui	a5, 1048574
0x800099e4: 19 07 07 13 addi	a4, a4, 400
0x800099e8: 00 f7 07 33 add	a4, a4, a5
0x800099ec: 01 01 07 93 addi	a5, sp, 16
0x800099f0: 00 f7 07 b3 add	a5, a4, a5
0x800099f4: 00 20 07 13 addi	a4, zero, 2
0x800099f8: 84 e7 ac 23 sw	a4, -1960(a5)
0x800099fc: 84 e7 ae 23 sw	a4, -1956(a5)
0x80009a00: 85 87 a6 03 lw	a2, -1960(a5)
0x80009a04: 85 c7 a6 83 lw	a3, -1956(a5)
0x80009a08: 00 d6 66 b3 or	a3, a2, a3
0x80009a0c: 06 e6 8e 63 beq	a3, a4, 0x80009a88
0x80009a88: 00 00 57 37 lui	a4, 5
0x80009a8c: ff ff e7 b7 lui	a5, 1048574
0x80009a90: 19 07 07 13 addi	a4, a4, 400
0x80009a94: 00 f7 07 33 add	a4, a4, a5
0x80009a98: 01 01 07 93 addi	a5, sp, 16
0x80009a9c: 00 f7 07 b3 add	a5, a4, a5
0x80009aa0: 00 20 07 13 addi	a4, zero, 2
0x80009aa4: 86 e7 a0 23 sw	a4, -1952(a5)
0x80009aa8: 80 00 07 37 lui	a4, 524288
0x80009aac: ff e7 47 13 xori	a4, a4, -2
0x80009ab0: 86 e7 a2 23 sw	a4, -1948(a5)
0x80009ab4: 86 07 a6 03 lw	a2, -1952(a5)
0x80009ab8: 86 47 a6 83 lw	a3, -1948(a5)
0x80009abc: 00 d6 66 b3 or	a3, a2, a3
0x80009ac0: 08 e6 80 63 beq	a3, a4, 0x80009b40
0x80009b40: 00 00 57 37 lui	a4, 5
0x80009b44: ff ff e7 b7 lui	a5, 1048574
0x80009b48: 19 07 07 13 addi	a4, a4, 400
0x80009b4c: 00 f7 07 33 add	a4, a4, a5
0x80009b50: 01 01 07 93 addi	a5, sp, 16
0x80009b54: 00 f7 07 b3 add	a5, a4, a5
0x80009b58: 00 20 07 13 addi	a4, zero, 2
0x80009b5c: 86 e7 a4 23 sw	a4, -1944(a5)
0x80009b60: 80 00 07 37 lui	a4, 524288
0x80009b64: ff f7 47 13 xori	a4, a4, -1
0x80009b68: 86 e7 a6 23 sw	a4, -1940(a5)
0x80009b6c: 86 87 a6 03 lw	a2, -1944(a5)
0x80009b70: 86 c7 a6 83 lw	a3, -1940(a5)
0x80009b74: 00 d6 66 b3 or	a3, a2, a3
0x80009b78: 08 e6 80 63 beq	a3, a4, 0x80009bf8
0x80009bf8: 00 00 57 37 lui	a4, 5
0x80009bfc: ff ff e7 b7 lui	a5, 1048574
0x80009c00: 19 07 07 13 addi	a4, a4, 400
0x80009c04: 00 f7 07 33 add	a4, a4, a5
0x80009c08: 01 01 07 93 addi	a5, sp, 16
0x80009c0c: 00 f7 07 b3 add	a5, a4, a5
0x80009c10: 80 00 07 37 lui	a4, 524288
0x80009c14: ff e7 47 13 xori	a4, a4, -2
0x80009c18: 86 e7 a8 23 sw	a4, -1936(a5)
0x80009c1c: 86 e7 aa 23 sw	a4, -1932(a5)
0x80009c20: 87 07 a6 03 lw	a2, -1936(a5)
0x80009c24: 87 47 a6 83 lw	a3, -1932(a5)
0x80009c28: 00 d6 66 b3 or	a3, a2, a3
0x80009c2c: 08 e6 80 63 beq	a3, a4, 0x80009cac
0x80009cac: 00 00 56 b7 lui	a3, 5
0x80009cb0: ff ff e7 b7 lui	a5, 1048574
0x80009cb4: 19 06 86 93 addi	a3, a3, 400
0x80009cb8: 00 f6 86 b3 add	a3, a3, a5
0x80009cbc: 80 00 07 37 lui	a4, 524288
0x80009cc0: 01 01 07 93 addi	a5, sp, 16
0x80009cc4: 00 f6 87 b3 add	a5, a3, a5
0x80009cc8: ff e7 46 93 xori	a3, a4, -2
0x80009ccc: 86 d7 ac 23 sw	a3, -1928(a5)
0x80009cd0: ff f7 47 13 xori	a4, a4, -1
0x80009cd4: 86 e7 ae 23 sw	a4, -1924(a5)
0x80009cd8: 87 87 a6 03 lw	a2, -1928(a5)
0x80009cdc: 87 c7 a6 83 lw	a3, -1924(a5)
0x80009ce0: 00 d6 66 b3 or	a3, a2, a3
0x80009ce4: 08 e6 80 63 beq	a3, a4, 0x80009d64
0x80009d64: 00 00 57 37 lui	a4, 5
0x80009d68: ff ff e7 b7 lui	a5, 1048574
0x80009d6c: 19 07 07 13 addi	a4, a4, 400
0x80009d70: 00 f7 07 33 add	a4, a4, a5
0x80009d74: 01 01 07 93 addi	a5, sp, 16
0x80009d78: 00 f7 07 b3 add	a5, a4, a5
0x80009d7c: 80 00 07 37 lui	a4, 524288
0x80009d80: ff f7 47 13 xori	a4, a4, -1
0x80009d84: 88 e7 a0 23 sw	a4, -1920(a5)
0x80009d88: 88 e7 a2 23 sw	a4, -1916(a5)
0x80009d8c: 88 07 a6 03 lw	a2, -1920(a5)
0x80009d90: 88 47 a6 83 lw	a3, -1916(a5)
0x80009d94: 00 d6 66 b3 or	a3, a2, a3
0x80009d98: 08 e6 80 63 beq	a3, a4, 0x80009e18
0x80009e18: 00 00 57 37 lui	a4, 5
0x80009e1c: ff ff e7 b7 lui	a5, 1048574
0x80009e20: 19 07 07 13 addi	a4, a4, 400
0x80009e24: 00 f7 07 33 add	a4, a4, a5
0x80009e28: 01 01 07 93 addi	a5, sp, 16
0x80009e2c: 00 f7 07 b3 add	a5, a4, a5
0x80009e30: 80 00 07 37 lui	a4, 524288
0x80009e34: 88 e7 a4 23 sw	a4, -1912(a5)
0x80009e38: 88 07 a6 23 sw	zero, -1908(a5)
0x80009e3c: 88 87 a6 03 lw	a2, -1912(a5)
0x80009e40: 88 c7 a6 83 lw	a3, -1908(a5)
0x80009e44: 00 d6 16 b3 sll	a3, a2, a3
0x80009e48: 06 e6 8e 63 beq	a3, a4, 0x80009ec4
0x80009ec4: 00 00 57 37 lui	a4, 5
0x80009ec8: ff ff e7 b7 lui	a5, 1048574
0x80009ecc: 19 07 07 13 addi	a4, a4, 400
0x80009ed0: 00 f7 07 33 add	a4, a4, a5
0x80009ed4: 01 01 07 93 addi	a5, sp, 16
0x80009ed8: 00 f7 07 b3 add	a5, a4, a5
0x80009edc: 80 00 07 37 lui	a4, 524288
0x80009ee0: 88 e7 a8 23 sw	a4, -1904(a5)
0x80009ee4: 00 10 07 13 addi	a4, zero, 1
0x80009ee8: 88 e7 aa 23 sw	a4, -1900(a5)
0x80009eec: 89 07 a6 83 lw	a3, -1904(a5)
0x80009ef0: 89 47 a7 03 lw	a4, -1900(a5)
0x80009ef4: 00 e6 97 33 sll	a4, a3, a4
0x80009ef8: 06 07 0e 63 beq	a4, zero, 0x80009f74
0x80009f74: 00 00 57 37 lui	a4, 5
0x80009f78: ff ff e7 b7 lui	a5, 1048574
0x80009f7c: 19 07 07 13 addi	a4, a4, 400
0x80009f80: 00 f7 07 33 add	a4, a4, a5
0x80009f84: 01 01 07 93 addi	a5, sp, 16
0x80009f88: 00 f7 07 b3 add	a5, a4, a5
0x80009f8c: 80 00 07 37 lui	a4, 524288
0x80009f90: 88 e7 ac 23 sw	a4, -1896(a5)
0x80009f94: 00 20 07 13 addi	a4, zero, 2
0x80009f98: 88 e7 ae 23 sw	a4, -1892(a5)
0x80009f9c: 89 87 a6 83 lw	a3, -1896(a5)
0x80009fa0: 89 c7 a7 03 lw	a4, -1892(a5)
0x80009fa4: 00 e6 97 33 sll	a4, a3, a4
0x80009fa8: 06 07 0e 63 beq	a4, zero, 0x8000a024
0x8000a024: 00 00 57 37 lui	a4, 5
0x8000a028: ff ff e7 b7 lui	a5, 1048574
0x8000a02c: 19 07 07 13 addi	a4, a4, 400
0x8000a030: 00 f7 07 33 add	a4, a4, a5
0x8000a034: 01 01 07 93 addi	a5, sp, 16
0x8000a038: 00 f7 07 b3 add	a5, a4, a5
0x8000a03c: 80 00 07 37 lui	a4, 524288
0x8000a040: 00 17 07 13 addi	a4, a4, 1
0x8000a044: 8a e7 a0 23 sw	a4, -1888(a5)
0x8000a048: 8a 07 a2 23 sw	zero, -1884(a5)
0x8000a04c: 8a 07 a6 03 lw	a2, -1888(a5)
0x8000a050: 8a 47 a6 83 lw	a3, -1884(a5)
0x8000a054: 00 d6 16 b3 sll	a3, a2, a3
0x8000a058: 08 e6 80 63 beq	a3, a4, 0x8000a0d8
0x8000a0d8: 00 00 57 37 lui	a4, 5
0x8000a0dc: ff ff e7 b7 lui	a5, 1048574
0x8000a0e0: 19 07 07 13 addi	a4, a4, 400
0x8000a0e4: 00 f7 07 33 add	a4, a4, a5
0x8000a0e8: 01 01 07 93 addi	a5, sp, 16
0x8000a0ec: 00 f7 07 b3 add	a5, a4, a5
0x8000a0f0: 80 00 07 37 lui	a4, 524288
0x8000a0f4: 00 17 07 13 addi	a4, a4, 1
0x8000a0f8: 8a e7 a4 23 sw	a4, -1880(a5)
0x8000a0fc: 00 10 07 13 addi	a4, zero, 1
0x8000a100: 8a e7 a6 23 sw	a4, -1876(a5)
0x8000a104: 8a 87 a6 03 lw	a2, -1880(a5)
0x8000a108: 8a c7 a6 83 lw	a3, -1876(a5)
0x8000a10c: 00 20 07 13 addi	a4, zero, 2
0x8000a110: 00 d6 16 b3 sll	a3, a2, a3
0x8000a114: 08 e6 80 63 beq	a3, a4, 0x8000a194
0x8000a194: 00 00 57 37 lui	a4, 5
0x8000a198: ff ff e7 b7 lui	a5, 1048574
0x8000a19c: 19 07 07 13 addi	a4, a4, 400
0x8000a1a0: 00 f7 07 33 add	a4, a4, a5
0x8000a1a4: 01 01 07 93 addi	a5, sp, 16
0x8000a1a8: 00 f7 07 b3 add	a5, a4, a5
0x8000a1ac: 80 00 07 37 lui	a4, 524288
0x8000a1b0: 00 17 07 13 addi	a4, a4, 1
0x8000a1b4: 8a e7 a8 23 sw	a4, -1872(a5)
0x8000a1b8: 00 20 07 13 addi	a4, zero, 2
0x8000a1bc: 8a e7 aa 23 sw	a4, -1868(a5)
0x8000a1c0: 8b 07 a6 03 lw	a2, -1872(a5)
0x8000a1c4: 8b 47 a6 83 lw	a3, -1868(a5)
0x8000a1c8: 00 40 07 13 addi	a4, zero, 4
0x8000a1cc: 00 d6 16 b3 sll	a3, a2, a3
0x8000a1d0: 08 e6 80 63 beq	a3, a4, 0x8000a250
0x8000a250: 00 00 57 37 lui	a4, 5
0x8000a254: ff ff e7 b7 lui	a5, 1048574
0x8000a258: 19 07 07 13 addi	a4, a4, 400
0x8000a25c: 00 f7 07 33 add	a4, a4, a5
0x8000a260: 01 01 07 93 addi	a5, sp, 16
0x8000a264: 00 f7 07 b3 add	a5, a4, a5
0x8000a268: ff e0 07 13 addi	a4, zero, -2
0x8000a26c: 8a e7 ac 23 sw	a4, -1864(a5)
0x8000a270: 8a 07 ae 23 sw	zero, -1860(a5)
0x8000a274: 8b 87 a6 03 lw	a2, -1864(a5)
0x8000a278: 8b c7 a6 83 lw	a3, -1860(a5)
0x8000a27c: 00 d6 16 b3 sll	a3, a2, a3
0x8000a280: 06 e6 8e 63 beq	a3, a4, 0x8000a2fc
0x8000a2fc: 00 00 57 37 lui	a4, 5
0x8000a300: ff ff e7 b7 lui	a5, 1048574
0x8000a304: 19 07 07 13 addi	a4, a4, 400
0x8000a308: 00 f7 07 33 add	a4, a4, a5
0x8000a30c: 01 01 07 93 addi	a5, sp, 16
0x8000a310: 00 f7 07 b3 add	a5, a4, a5
0x8000a314: ff e0 07 13 addi	a4, zero, -2
0x8000a318: 8c e7 a0 23 sw	a4, -1856(a5)
0x8000a31c: 00 10 07 13 addi	a4, zero, 1
0x8000a320: 8c e7 a2 23 sw	a4, -1852(a5)
0x8000a324: 8c 07 a6 03 lw	a2, -1856(a5)
0x8000a328: 8c 47 a6 83 lw	a3, -1852(a5)
0x8000a32c: ff c0 07 13 addi	a4, zero, -4
0x8000a330: 00 d6 16 b3 sll	a3, a2, a3
0x8000a334: 06 e6 8e 63 beq	a3, a4, 0x8000a3b0
0x8000a3b0: 00 00 57 37 lui	a4, 5
0x8000a3b4: ff ff e7 b7 lui	a5, 1048574
0x8000a3b8: 19 07 07 13 addi	a4, a4, 400
0x8000a3bc: 00 f7 07 33 add	a4, a4, a5
0x8000a3c0: 01 01 07 93 addi	a5, sp, 16
0x8000a3c4: 00 f7 07 b3 add	a5, a4, a5
0x8000a3c8: ff e0 07 13 addi	a4, zero, -2
0x8000a3cc: 8c e7 a4 23 sw	a4, -1848(a5)
0x8000a3d0: 00 20 07 13 addi	a4, zero, 2
0x8000a3d4: 8c e7 a6 23 sw	a4, -1844(a5)
0x8000a3d8: 8c 87 a6 03 lw	a2, -1848(a5)
0x8000a3dc: 8c c7 a6 83 lw	a3, -1844(a5)
0x8000a3e0: ff 80 07 13 addi	a4, zero, -8
0x8000a3e4: 00 d6 16 b3 sll	a3, a2, a3
0x8000a3e8: 06 e6 8e 63 beq	a3, a4, 0x8000a464
0x8000a464: 00 00 57 37 lui	a4, 5
0x8000a468: ff ff e7 b7 lui	a5, 1048574
0x8000a46c: 19 07 07 13 addi	a4, a4, 400
0x8000a470: 00 f7 07 33 add	a4, a4, a5
0x8000a474: 01 01 07 93 addi	a5, sp, 16
0x8000a478: 00 f7 07 b3 add	a5, a4, a5
0x8000a47c: ff f0 07 13 addi	a4, zero, -1
0x8000a480: 8c e7 a8 23 sw	a4, -1840(a5)
0x8000a484: 8c 07 aa 23 sw	zero, -1836(a5)
0x8000a488: 8d 07 a6 03 lw	a2, -1840(a5)
0x8000a48c: 8d 47 a6 83 lw	a3, -1836(a5)
0x8000a490: 00 d6 16 b3 sll	a3, a2, a3
0x8000a494: 06 e6 8e 63 beq	a3, a4, 0x8000a510
0x8000a510: 00 00 57 37 lui	a4, 5
0x8000a514: ff ff e7 b7 lui	a5, 1048574
0x8000a518: 19 07 07 13 addi	a4, a4, 400
0x8000a51c: 00 f7 07 33 add	a4, a4, a5
0x8000a520: 01 01 07 93 addi	a5, sp, 16
0x8000a524: 00 f7 07 b3 add	a5, a4, a5
0x8000a528: ff f0 07 13 addi	a4, zero, -1
0x8000a52c: 8c e7 ac 23 sw	a4, -1832(a5)
0x8000a530: 00 10 07 13 addi	a4, zero, 1
0x8000a534: 8c e7 ae 23 sw	a4, -1828(a5)
0x8000a538: 8d 87 a6 03 lw	a2, -1832(a5)
0x8000a53c: 8d c7 a6 83 lw	a3, -1828(a5)
0x8000a540: ff e0 07 13 addi	a4, zero, -2
0x8000a544: 00 d6 16 b3 sll	a3, a2, a3
0x8000a548: 06 e6 8e 63 beq	a3, a4, 0x8000a5c4
0x8000a5c4: 00 00 57 37 lui	a4, 5
0x8000a5c8: ff ff e7 b7 lui	a5, 1048574
0x8000a5cc: 19 07 07 13 addi	a4, a4, 400
0x8000a5d0: 00 f7 07 33 add	a4, a4, a5
0x8000a5d4: 01 01 07 93 addi	a5, sp, 16
0x8000a5d8: 00 f7 07 b3 add	a5, a4, a5
0x8000a5dc: ff f0 07 13 addi	a4, zero, -1
0x8000a5e0: 8e e7 a0 23 sw	a4, -1824(a5)
0x8000a5e4: 00 20 07 13 addi	a4, zero, 2
0x8000a5e8: 8e e7 a2 23 sw	a4, -1820(a5)
0x8000a5ec: 8e 07 a6 03 lw	a2, -1824(a5)
0x8000a5f0: 8e 47 a6 83 lw	a3, -1820(a5)
0x8000a5f4: ff c0 07 13 addi	a4, zero, -4
0x8000a5f8: 00 d6 16 b3 sll	a3, a2, a3
0x8000a5fc: 06 e6 8e 63 beq	a3, a4, 0x8000a678
0x8000a678: 00 00 57 37 lui	a4, 5
0x8000a67c: ff ff e7 b7 lui	a5, 1048574
0x8000a680: 19 07 07 13 addi	a4, a4, 400
0x8000a684: 00 f7 07 33 add	a4, a4, a5
0x8000a688: 01 01 07 93 addi	a5, sp, 16
0x8000a68c: 00 f7 07 b3 add	a5, a4, a5
0x8000a690: 8e 07 a4 23 sw	zero, -1816(a5)
0x8000a694: 8e 07 a6 23 sw	zero, -1812(a5)
0x8000a698: 8e 87 a6 83 lw	a3, -1816(a5)
0x8000a69c: 8e c7 a7 03 lw	a4, -1812(a5)
0x8000a6a0: 00 e6 97 33 sll	a4, a3, a4
0x8000a6a4: 06 07 0e 63 beq	a4, zero, 0x8000a720
0x8000a720: 00 00 57 37 lui	a4, 5
0x8000a724: ff ff e7 b7 lui	a5, 1048574
0x8000a728: 19 07 07 13 addi	a4, a4, 400
0x8000a72c: 00 f7 07 33 add	a4, a4, a5
0x8000a730: 01 01 07 93 addi	a5, sp, 16
0x8000a734: 00 f7 07 b3 add	a5, a4, a5
0x8000a738: 8e 07 a8 23 sw	zero, -1808(a5)
0x8000a73c: 00 10 07 13 addi	a4, zero, 1
0x8000a740: 8e e7 aa 23 sw	a4, -1804(a5)
0x8000a744: 8f 07 a6 83 lw	a3, -1808(a5)
0x8000a748: 8f 47 a7 03 lw	a4, -1804(a5)
0x8000a74c: 00 e6 97 33 sll	a4, a3, a4
0x8000a750: 06 07 0e 63 beq	a4, zero, 0x8000a7cc
0x8000a7cc: 00 00 57 37 lui	a4, 5
0x8000a7d0: ff ff e7 b7 lui	a5, 1048574
0x8000a7d4: 19 07 07 13 addi	a4, a4, 400
0x8000a7d8: 00 f7 07 33 add	a4, a4, a5
0x8000a7dc: 01 01 07 93 addi	a5, sp, 16
0x8000a7e0: 00 f7 07 b3 add	a5, a4, a5
0x8000a7e4: 8e 07 ac 23 sw	zero, -1800(a5)
0x8000a7e8: 00 20 07 13 addi	a4, zero, 2
0x8000a7ec: 8e e7 ae 23 sw	a4, -1796(a5)
0x8000a7f0: 8f 87 a6 83 lw	a3, -1800(a5)
0x8000a7f4: 8f c7 a7 03 lw	a4, -1796(a5)
0x8000a7f8: 00 e6 97 33 sll	a4, a3, a4
0x8000a7fc: 06 07 0e 63 beq	a4, zero, 0x8000a878
0x8000a878: 00 00 57 37 lui	a4, 5
0x8000a87c: ff ff e7 b7 lui	a5, 1048574
0x8000a880: 19 07 07 13 addi	a4, a4, 400
0x8000a884: 00 f7 07 33 add	a4, a4, a5
0x8000a888: 01 01 07 93 addi	a5, sp, 16
0x8000a88c: 00 f7 07 b3 add	a5, a4, a5
0x8000a890: 00 10 07 13 addi	a4, zero, 1
0x8000a894: 90 e7 a0 23 sw	a4, -1792(a5)
0x8000a898: 90 e7 a2 23 sw	a4, -1788(a5)
0x8000a89c: 90 07 a6 03 lw	a2, -1792(a5)
0x8000a8a0: 90 47 a6 83 lw	a3, -1788(a5)
0x8000a8a4: 00 20 07 13 addi	a4, zero, 2
0x8000a8a8: 00 d6 16 b3 sll	a3, a2, a3
0x8000a8ac: 06 e6 8e 63 beq	a3, a4, 0x8000a928
0x8000a928: 00 00 57 37 lui	a4, 5
0x8000a92c: ff ff e7 b7 lui	a5, 1048574
0x8000a930: 19 07 07 13 addi	a4, a4, 400
0x8000a934: 00 f7 07 33 add	a4, a4, a5
0x8000a938: 01 01 07 93 addi	a5, sp, 16
0x8000a93c: 00 f7 07 b3 add	a5, a4, a5
0x8000a940: 00 10 07 13 addi	a4, zero, 1
0x8000a944: 90 e7 a4 23 sw	a4, -1784(a5)
0x8000a948: 00 20 07 13 addi	a4, zero, 2
0x8000a94c: 90 e7 a6 23 sw	a4, -1780(a5)
0x8000a950: 90 87 a6 03 lw	a2, -1784(a5)
0x8000a954: 90 c7 a6 83 lw	a3, -1780(a5)
0x8000a958: 00 40 07 13 addi	a4, zero, 4
0x8000a95c: 00 d6 16 b3 sll	a3, a2, a3
0x8000a960: 06 e6 8e 63 beq	a3, a4, 0x8000a9dc
0x8000a9dc: 00 00 57 37 lui	a4, 5
0x8000a9e0: ff ff e7 b7 lui	a5, 1048574
0x8000a9e4: 19 07 07 13 addi	a4, a4, 400
0x8000a9e8: 00 f7 07 33 add	a4, a4, a5
0x8000a9ec: 01 01 07 93 addi	a5, sp, 16
0x8000a9f0: 00 f7 07 b3 add	a5, a4, a5
0x8000a9f4: 00 20 07 13 addi	a4, zero, 2
0x8000a9f8: 90 e7 a8 23 sw	a4, -1776(a5)
0x8000a9fc: 90 e7 aa 23 sw	a4, -1772(a5)
0x8000aa00: 91 07 a6 03 lw	a2, -1776(a5)
0x8000aa04: 91 47 a6 83 lw	a3, -1772(a5)
0x8000aa08: 00 80 07 13 addi	a4, zero, 8
0x8000aa0c: 00 d6 16 b3 sll	a3, a2, a3
0x8000aa10: 06 e6 8e 63 beq	a3, a4, 0x8000aa8c
0x8000aa8c: 00 00 57 37 lui	a4, 5
0x8000aa90: ff ff e7 b7 lui	a5, 1048574
0x8000aa94: 19 07 07 13 addi	a4, a4, 400
0x8000aa98: 00 f7 07 33 add	a4, a4, a5
0x8000aa9c: 01 01 07 93 addi	a5, sp, 16
0x8000aaa0: 00 f7 07 b3 add	a5, a4, a5
0x8000aaa4: 80 00 07 37 lui	a4, 524288
0x8000aaa8: 90 e7 ac 23 sw	a4, -1768(a5)
0x8000aaac: 90 07 ae 23 sw	zero, -1764(a5)
0x8000aab0: 91 87 a6 03 lw	a2, -1768(a5)
0x8000aab4: 91 c7 a6 83 lw	a3, -1764(a5)
0x8000aab8: 40 d6 56 b3 sra	a3, a2, a3
0x8000aabc: 06 e6 8e 63 beq	a3, a4, 0x8000ab38
0x8000ab38: 00 00 57 37 lui	a4, 5
0x8000ab3c: ff ff e7 b7 lui	a5, 1048574
0x8000ab40: 19 07 07 13 addi	a4, a4, 400
0x8000ab44: 00 f7 07 33 add	a4, a4, a5
0x8000ab48: 01 01 07 93 addi	a5, sp, 16
0x8000ab4c: 00 f7 07 b3 add	a5, a4, a5
0x8000ab50: 80 00 07 37 lui	a4, 524288
0x8000ab54: 92 e7 a0 23 sw	a4, -1760(a5)
0x8000ab58: 00 10 07 13 addi	a4, zero, 1
0x8000ab5c: 92 e7 a2 23 sw	a4, -1756(a5)
0x8000ab60: 92 07 a6 03 lw	a2, -1760(a5)
0x8000ab64: 92 47 a6 83 lw	a3, -1756(a5)
0x8000ab68: c0 00 07 37 lui	a4, 786432
0x8000ab6c: 40 d6 56 b3 sra	a3, a2, a3
0x8000ab70: 06 e6 8e 63 beq	a3, a4, 0x8000abec
0x8000abec: 00 00 57 37 lui	a4, 5
0x8000abf0: ff ff e7 b7 lui	a5, 1048574
0x8000abf4: 19 07 07 13 addi	a4, a4, 400
0x8000abf8: 00 f7 07 33 add	a4, a4, a5
0x8000abfc: 01 01 07 93 addi	a5, sp, 16
0x8000ac00: 00 f7 07 b3 add	a5, a4, a5
0x8000ac04: 80 00 07 37 lui	a4, 524288
0x8000ac08: 92 e7 a4 23 sw	a4, -1752(a5)
0x8000ac0c: 00 20 07 13 addi	a4, zero, 2
0x8000ac10: 92 e7 a6 23 sw	a4, -1748(a5)
0x8000ac14: 92 87 a6 03 lw	a2, -1752(a5)
0x8000ac18: 92 c7 a6 83 lw	a3, -1748(a5)
0x8000ac1c: e0 00 07 37 lui	a4, 917504
0x8000ac20: 40 d6 56 b3 sra	a3, a2, a3
0x8000ac24: 06 e6 8e 63 beq	a3, a4, 0x8000aca0
0x8000aca0: 00 00 57 37 lui	a4, 5
0x8000aca4: ff ff e7 b7 lui	a5, 1048574
0x8000aca8: 19 07 07 13 addi	a4, a4, 400
0x8000acac: 00 f7 07 33 add	a4, a4, a5
0x8000acb0: 01 01 07 93 addi	a5, sp, 16
0x8000acb4: 00 f7 07 b3 add	a5, a4, a5
0x8000acb8: 80 00 07 37 lui	a4, 524288
0x8000acbc: 00 17 07 13 addi	a4, a4, 1
0x8000acc0: 92 e7 a8 23 sw	a4, -1744(a5)
0x8000acc4: 92 07 aa 23 sw	zero, -1740(a5)
0x8000acc8: 93 07 a6 03 lw	a2, -1744(a5)
0x8000accc: 93 47 a6 83 lw	a3, -1740(a5)
0x8000acd0: 40 d6 56 b3 sra	a3, a2, a3
0x8000acd4: 08 e6 80 63 beq	a3, a4, 0x8000ad54
0x8000ad54: 00 00 57 37 lui	a4, 5
0x8000ad58: ff ff e7 b7 lui	a5, 1048574
0x8000ad5c: 19 07 07 13 addi	a4, a4, 400
0x8000ad60: 00 f7 07 33 add	a4, a4, a5
0x8000ad64: 01 01 07 93 addi	a5, sp, 16
0x8000ad68: 00 f7 07 b3 add	a5, a4, a5
0x8000ad6c: 80 00 07 37 lui	a4, 524288
0x8000ad70: 00 17 07 13 addi	a4, a4, 1
0x8000ad74: 92 e7 ac 23 sw	a4, -1736(a5)
0x8000ad78: 00 10 07 13 addi	a4, zero, 1
0x8000ad7c: 92 e7 ae 23 sw	a4, -1732(a5)
0x8000ad80: 93 87 a6 03 lw	a2, -1736(a5)
0x8000ad84: 93 c7 a6 83 lw	a3, -1732(a5)
0x8000ad88: c0 00 07 37 lui	a4, 786432
0x8000ad8c: 40 d6 56 b3 sra	a3, a2, a3
0x8000ad90: 08 e6 80 63 beq	a3, a4, 0x8000ae10
0x8000ae10: 00 00 57 37 lui	a4, 5
0x8000ae14: ff ff e7 b7 lui	a5, 1048574
0x8000ae18: 19 07 07 13 addi	a4, a4, 400
0x8000ae1c: 00 f7 07 33 add	a4, a4, a5
0x8000ae20: 01 01 07 93 addi	a5, sp, 16
0x8000ae24: 00 f7 07 b3 add	a5, a4, a5
0x8000ae28: 80 00 07 37 lui	a4, 524288
0x8000ae2c: 00 17 07 13 addi	a4, a4, 1
0x8000ae30: 94 e7 a0 23 sw	a4, -1728(a5)
0x8000ae34: 00 20 07 13 addi	a4, zero, 2
0x8000ae38: 94 e7 a2 23 sw	a4, -1724(a5)
0x8000ae3c: 94 07 a6 03 lw	a2, -1728(a5)
0x8000ae40: 94 47 a6 83 lw	a3, -1724(a5)
0x8000ae44: e0 00 07 37 lui	a4, 917504
0x8000ae48: 40 d6 56 b3 sra	a3, a2, a3
0x8000ae4c: 08 e6 80 63 beq	a3, a4, 0x8000aecc
0x8000aecc: 00 00 57 37 lui	a4, 5
0x8000aed0: ff ff e7 b7 lui	a5, 1048574
0x8000aed4: 19 07 07 13 addi	a4, a4, 400
0x8000aed8: 00 f7 07 33 add	a4, a4, a5
0x8000aedc: 01 01 07 93 addi	a5, sp, 16
0x8000aee0: 00 f7 07 b3 add	a5, a4, a5
0x8000aee4: ff e0 07 13 addi	a4, zero, -2
0x8000aee8: 94 e7 a4 23 sw	a4, -1720(a5)
0x8000aeec: 94 07 a6 23 sw	zero, -1716(a5)
0x8000aef0: 94 87 a6 03 lw	a2, -1720(a5)
0x8000aef4: 94 c7 a6 83 lw	a3, -1716(a5)
0x8000aef8: 40 d6 56 b3 sra	a3, a2, a3
0x8000aefc: 06 e6 8e 63 beq	a3, a4, 0x8000af78
0x8000af78: 00 00 57 37 lui	a4, 5
0x8000af7c: ff ff e7 b7 lui	a5, 1048574
0x8000af80: 19 07 07 13 addi	a4, a4, 400
0x8000af84: 00 f7 07 33 add	a4, a4, a5
0x8000af88: 01 01 07 93 addi	a5, sp, 16
0x8000af8c: 00 f7 07 b3 add	a5, a4, a5
0x8000af90: ff e0 07 13 addi	a4, zero, -2
0x8000af94: 94 e7 a8 23 sw	a4, -1712(a5)
0x8000af98: 00 10 07 13 addi	a4, zero, 1
0x8000af9c: 94 e7 aa 23 sw	a4, -1708(a5)
0x8000afa0: 95 07 a6 03 lw	a2, -1712(a5)
0x8000afa4: 95 47 a6 83 lw	a3, -1708(a5)
0x8000afa8: ff f0 07 13 addi	a4, zero, -1
0x8000afac: 40 d6 56 b3 sra	a3, a2, a3
0x8000afb0: 06 e6 8e 63 beq	a3, a4, 0x8000b02c
0x8000b02c: 00 00 57 37 lui	a4, 5
0x8000b030: ff ff e7 b7 lui	a5, 1048574
0x8000b034: 19 07 07 13 addi	a4, a4, 400
0x8000b038: 00 f7 07 33 add	a4, a4, a5
0x8000b03c: 01 01 07 93 addi	a5, sp, 16
0x8000b040: 00 f7 07 b3 add	a5, a4, a5
0x8000b044: ff e0 07 13 addi	a4, zero, -2
0x8000b048: 94 e7 ac 23 sw	a4, -1704(a5)
0x8000b04c: 00 20 07 13 addi	a4, zero, 2
0x8000b050: 94 e7 ae 23 sw	a4, -1700(a5)
0x8000b054: 95 87 a6 03 lw	a2, -1704(a5)
0x8000b058: 95 c7 a6 83 lw	a3, -1700(a5)
0x8000b05c: ff f0 07 13 addi	a4, zero, -1
0x8000b060: 40 d6 56 b3 sra	a3, a2, a3
0x8000b064: 06 e6 8e 63 beq	a3, a4, 0x8000b0e0
0x8000b0e0: 00 00 57 37 lui	a4, 5
0x8000b0e4: ff ff e7 b7 lui	a5, 1048574
0x8000b0e8: 19 07 07 13 addi	a4, a4, 400
0x8000b0ec: 00 f7 07 33 add	a4, a4, a5
0x8000b0f0: 01 01 07 93 addi	a5, sp, 16
0x8000b0f4: 00 f7 07 b3 add	a5, a4, a5
0x8000b0f8: ff f0 07 13 addi	a4, zero, -1
0x8000b0fc: 96 e7 a0 23 sw	a4, -1696(a5)
0x8000b100: 96 07 a2 23 sw	zero, -1692(a5)
0x8000b104: 96 07 a6 03 lw	a2, -1696(a5)
0x8000b108: 96 47 a6 83 lw	a3, -1692(a5)
0x8000b10c: 40 d6 56 b3 sra	a3, a2, a3
0x8000b110: 06 e6 8e 63 beq	a3, a4, 0x8000b18c
0x8000b18c: 00 00 57 37 lui	a4, 5
0x8000b190: ff ff e7 b7 lui	a5, 1048574
0x8000b194: 19 07 07 13 addi	a4, a4, 400
0x8000b198: 00 f7 07 33 add	a4, a4, a5
0x8000b19c: 01 01 07 93 addi	a5, sp, 16
0x8000b1a0: 00 f7 07 b3 add	a5, a4, a5
0x8000b1a4: ff f0 07 13 addi	a4, zero, -1
0x8000b1a8: 96 e7 a4 23 sw	a4, -1688(a5)
0x8000b1ac: 00 10 06 93 addi	a3, zero, 1
0x8000b1b0: 96 d7 a6 23 sw	a3, -1684(a5)
0x8000b1b4: 96 87 a6 03 lw	a2, -1688(a5)
0x8000b1b8: 96 c7 a6 83 lw	a3, -1684(a5)
0x8000b1bc: 40 d6 56 b3 sra	a3, a2, a3
0x8000b1c0: 06 e6 8e 63 beq	a3, a4, 0x8000b23c
0x8000b23c: 00 00 57 37 lui	a4, 5
0x8000b240: ff ff e7 b7 lui	a5, 1048574
0x8000b244: 19 07 07 13 addi	a4, a4, 400
0x8000b248: 00 f7 07 33 add	a4, a4, a5
0x8000b24c: 01 01 07 93 addi	a5, sp, 16
0x8000b250: 00 f7 07 b3 add	a5, a4, a5
0x8000b254: ff f0 07 13 addi	a4, zero, -1
0x8000b258: 96 e7 a8 23 sw	a4, -1680(a5)
0x8000b25c: 00 20 06 93 addi	a3, zero, 2
0x8000b260: 96 d7 aa 23 sw	a3, -1676(a5)
0x8000b264: 97 07 a6 03 lw	a2, -1680(a5)
0x8000b268: 97 47 a6 83 lw	a3, -1676(a5)
0x8000b26c: 40 d6 56 b3 sra	a3, a2, a3
0x8000b270: 06 e6 8e 63 beq	a3, a4, 0x8000b2ec
0x8000b2ec: 00 00 57 37 lui	a4, 5
0x8000b2f0: ff ff e7 b7 lui	a5, 1048574
0x8000b2f4: 19 07 07 13 addi	a4, a4, 400
0x8000b2f8: 00 f7 07 33 add	a4, a4, a5
0x8000b2fc: 01 01 07 93 addi	a5, sp, 16
0x8000b300: 00 f7 07 b3 add	a5, a4, a5
0x8000b304: 96 07 ac 23 sw	zero, -1672(a5)
0x8000b308: 96 07 ae 23 sw	zero, -1668(a5)
0x8000b30c: 97 87 a6 83 lw	a3, -1672(a5)
0x8000b310: 97 c7 a7 03 lw	a4, -1668(a5)
0x8000b314: 40 e6 d7 33 sra	a4, a3, a4
0x8000b318: 06 07 0e 63 beq	a4, zero, 0x8000b394
0x8000b394: 00 00 57 37 lui	a4, 5
0x8000b398: ff ff e7 b7 lui	a5, 1048574
0x8000b39c: 19 07 07 13 addi	a4, a4, 400
0x8000b3a0: 00 f7 07 33 add	a4, a4, a5
0x8000b3a4: 01 01 07 93 addi	a5, sp, 16
0x8000b3a8: 00 f7 07 b3 add	a5, a4, a5
0x8000b3ac: 98 07 a0 23 sw	zero, -1664(a5)
0x8000b3b0: 00 10 07 13 addi	a4, zero, 1
0x8000b3b4: 98 e7 a2 23 sw	a4, -1660(a5)
0x8000b3b8: 98 07 a6 83 lw	a3, -1664(a5)
0x8000b3bc: 98 47 a7 03 lw	a4, -1660(a5)
0x8000b3c0: 40 e6 d7 33 sra	a4, a3, a4
0x8000b3c4: 06 07 0e 63 beq	a4, zero, 0x8000b440
0x8000b440: 00 00 57 37 lui	a4, 5
0x8000b444: ff ff e7 b7 lui	a5, 1048574
0x8000b448: 19 07 07 13 addi	a4, a4, 400
0x8000b44c: 00 f7 07 33 add	a4, a4, a5
0x8000b450: 01 01 07 93 addi	a5, sp, 16
0x8000b454: 00 f7 07 b3 add	a5, a4, a5
0x8000b458: 98 07 a4 23 sw	zero, -1656(a5)
0x8000b45c: 00 20 07 13 addi	a4, zero, 2
0x8000b460: 98 e7 a6 23 sw	a4, -1652(a5)
0x8000b464: 98 87 a6 83 lw	a3, -1656(a5)
0x8000b468: 98 c7 a7 03 lw	a4, -1652(a5)
0x8000b46c: 40 e6 d7 33 sra	a4, a3, a4
0x8000b470: 06 07 0e 63 beq	a4, zero, 0x8000b4ec
0x8000b4ec: 00 00 57 37 lui	a4, 5
0x8000b4f0: ff ff e7 b7 lui	a5, 1048574
0x8000b4f4: 19 07 07 13 addi	a4, a4, 400
0x8000b4f8: 00 f7 07 33 add	a4, a4, a5
0x8000b4fc: 01 01 07 93 addi	a5, sp, 16
0x8000b500: 00 f7 07 b3 add	a5, a4, a5
0x8000b504: 00 10 07 13 addi	a4, zero, 1
0x8000b508: 98 e7 a8 23 sw	a4, -1648(a5)
0x8000b50c: 98 e7 aa 23 sw	a4, -1644(a5)
0x8000b510: 99 07 a6 83 lw	a3, -1648(a5)
0x8000b514: 99 47 a7 03 lw	a4, -1644(a5)
0x8000b518: 40 e6 d7 33 sra	a4, a3, a4
0x8000b51c: 06 07 0e 63 beq	a4, zero, 0x8000b598
0x8000b598: 00 00 57 37 lui	a4, 5
0x8000b59c: ff ff e7 b7 lui	a5, 1048574
0x8000b5a0: 19 07 07 13 addi	a4, a4, 400
0x8000b5a4: 00 f7 07 33 add	a4, a4, a5
0x8000b5a8: 01 01 07 93 addi	a5, sp, 16
0x8000b5ac: 00 f7 07 b3 add	a5, a4, a5
0x8000b5b0: 00 10 07 13 addi	a4, zero, 1
0x8000b5b4: 98 e7 ac 23 sw	a4, -1640(a5)
0x8000b5b8: 00 20 07 13 addi	a4, zero, 2
0x8000b5bc: 98 e7 ae 23 sw	a4, -1636(a5)
0x8000b5c0: 99 87 a6 83 lw	a3, -1640(a5)
0x8000b5c4: 99 c7 a7 03 lw	a4, -1636(a5)
0x8000b5c8: 40 e6 d7 33 sra	a4, a3, a4
0x8000b5cc: 06 07 0e 63 beq	a4, zero, 0x8000b648
0x8000b648: 00 00 57 37 lui	a4, 5
0x8000b64c: ff ff e7 b7 lui	a5, 1048574
0x8000b650: 19 07 07 13 addi	a4, a4, 400
0x8000b654: 00 f7 07 33 add	a4, a4, a5
0x8000b658: 01 01 07 93 addi	a5, sp, 16
0x8000b65c: 00 f7 07 b3 add	a5, a4, a5
0x8000b660: 00 20 07 13 addi	a4, zero, 2
0x8000b664: 9a e7 a0 23 sw	a4, -1632(a5)
0x8000b668: 9a e7 a2 23 sw	a4, -1628(a5)
0x8000b66c: 9a 07 a6 83 lw	a3, -1632(a5)
0x8000b670: 9a 47 a7 03 lw	a4, -1628(a5)
0x8000b674: 40 e6 d7 33 sra	a4, a3, a4
0x8000b678: 06 07 0e 63 beq	a4, zero, 0x8000b6f4
0x8000b6f4: 00 00 57 37 lui	a4, 5
0x8000b6f8: ff ff e7 b7 lui	a5, 1048574
0x8000b6fc: 19 07 07 13 addi	a4, a4, 400
0x8000b700: 00 f7 07 33 add	a4, a4, a5
0x8000b704: 01 01 07 93 addi	a5, sp, 16
0x8000b708: 00 f7 07 b3 add	a5, a4, a5
0x8000b70c: 80 00 07 37 lui	a4, 524288
0x8000b710: 9a e7 a4 23 sw	a4, -1624(a5)
0x8000b714: 9a e7 a6 23 sw	a4, -1620(a5)
0x8000b718: 9a 87 a7 03 lw	a4, -1624(a5)
0x8000b71c: 00 07 14 63 bne	a4, zero, 0x8000b724
0x8000b724: 9a c7 a7 83 lw	a5, -1620(a5)
0x8000b728: 00 07 94 63 bne	a5, zero, 0x8000b730
0x8000b730: 00 00 57 37 lui	a4, 5
0x8000b734: ff ff e7 b7 lui	a5, 1048574
0x8000b738: 19 07 07 13 addi	a4, a4, 400
0x8000b73c: 00 f7 07 33 add	a4, a4, a5
0x8000b740: 01 01 07 93 addi	a5, sp, 16
0x8000b744: 00 f7 07 b3 add	a5, a4, a5
0x8000b748: 80 00 07 37 lui	a4, 524288
0x8000b74c: 9a e7 a8 23 sw	a4, -1616(a5)
0x8000b750: 00 17 07 13 addi	a4, a4, 1
0x8000b754: 9a e7 aa 23 sw	a4, -1612(a5)
0x8000b758: 9b 07 a7 03 lw	a4, -1616(a5)
0x8000b75c: 00 07 14 63 bne	a4, zero, 0x8000b764
0x8000b764: 9b 47 a7 83 lw	a5, -1612(a5)
0x8000b768: 00 07 94 63 bne	a5, zero, 0x8000b770
0x8000b770: 00 00 57 37 lui	a4, 5
0x8000b774: ff ff e7 b7 lui	a5, 1048574
0x8000b778: 19 07 07 13 addi	a4, a4, 400
0x8000b77c: 00 f7 07 33 add	a4, a4, a5
0x8000b780: 01 01 07 93 addi	a5, sp, 16
0x8000b784: 00 f7 07 b3 add	a5, a4, a5
0x8000b788: 80 00 07 37 lui	a4, 524288
0x8000b78c: 9a e7 ac 23 sw	a4, -1608(a5)
0x8000b790: ff e0 07 13 addi	a4, zero, -2
0x8000b794: 9a e7 ae 23 sw	a4, -1604(a5)
0x8000b798: 9b 87 a7 03 lw	a4, -1608(a5)
0x8000b79c: 00 07 14 63 bne	a4, zero, 0x8000b7a4
0x8000b7a4: 9b c7 a7 83 lw	a5, -1604(a5)
0x8000b7a8: 00 07 94 63 bne	a5, zero, 0x8000b7b0
0x8000b7b0: 00 00 57 37 lui	a4, 5
0x8000b7b4: ff ff e7 b7 lui	a5, 1048574
0x8000b7b8: 19 07 07 13 addi	a4, a4, 400
0x8000b7bc: 00 f7 07 33 add	a4, a4, a5
0x8000b7c0: 01 01 07 93 addi	a5, sp, 16
0x8000b7c4: 00 f7 07 b3 add	a5, a4, a5
0x8000b7c8: 80 00 07 37 lui	a4, 524288
0x8000b7cc: 9c e7 a0 23 sw	a4, -1600(a5)
0x8000b7d0: ff f0 07 13 addi	a4, zero, -1
0x8000b7d4: 9c e7 a2 23 sw	a4, -1596(a5)
0x8000b7d8: 9c 07 a7 03 lw	a4, -1600(a5)
0x8000b7dc: 00 07 14 63 bne	a4, zero, 0x8000b7e4
0x8000b7e4: 9c 47 a7 83 lw	a5, -1596(a5)
0x8000b7e8: 00 07 94 63 bne	a5, zero, 0x8000b7f0
0x8000b7f0: 00 00 57 37 lui	a4, 5
0x8000b7f4: ff ff e7 b7 lui	a5, 1048574
0x8000b7f8: 19 07 07 13 addi	a4, a4, 400
0x8000b7fc: 00 f7 07 33 add	a4, a4, a5
0x8000b800: 01 01 07 93 addi	a5, sp, 16
0x8000b804: 00 f7 07 b3 add	a5, a4, a5
0x8000b808: 80 00 07 37 lui	a4, 524288
0x8000b80c: 9c e7 a4 23 sw	a4, -1592(a5)
0x8000b810: 9c 07 a6 23 sw	zero, -1588(a5)
0x8000b814: 9c 87 a7 03 lw	a4, -1592(a5)
0x8000b818: 00 07 08 63 beq	a4, zero, 0x8000b828
0x8000b81c: 9c c7 a7 03 lw	a4, -1588(a5)
0x8000b820: 00 07 04 63 beq	a4, zero, 0x8000b828
0x8000b828: 00 00 57 37 lui	a4, 5
0x8000b82c: ff ff e7 b7 lui	a5, 1048574
0x8000b830: 19 07 07 13 addi	a4, a4, 400
0x8000b834: 00 f7 07 33 add	a4, a4, a5
0x8000b838: 01 01 07 93 addi	a5, sp, 16
0x8000b83c: 00 f7 07 b3 add	a5, a4, a5
0x8000b840: 80 00 07 37 lui	a4, 524288
0x8000b844: 9c e7 a8 23 sw	a4, -1584(a5)
0x8000b848: 00 10 07 13 addi	a4, zero, 1
0x8000b84c: 9c e7 aa 23 sw	a4, -1580(a5)
0x8000b850: 9d 07 a7 03 lw	a4, -1584(a5)
0x8000b854: 00 07 14 63 bne	a4, zero, 0x8000b85c
0x8000b85c: 9d 47 a7 83 lw	a5, -1580(a5)
0x8000b860: 00 07 94 63 bne	a5, zero, 0x8000b868
0x8000b868: 00 00 57 37 lui	a4, 5
0x8000b86c: ff ff e7 b7 lui	a5, 1048574
0x8000b870: 19 07 07 13 addi	a4, a4, 400
0x8000b874: 00 f7 07 33 add	a4, a4, a5
0x8000b878: 01 01 07 93 addi	a5, sp, 16
0x8000b87c: 00 f7 07 b3 add	a5, a4, a5
0x8000b880: 80 00 07 37 lui	a4, 524288
0x8000b884: 9c e7 ac 23 sw	a4, -1576(a5)
0x8000b888: 00 20 07 13 addi	a4, zero, 2
0x8000b88c: 9c e7 ae 23 sw	a4, -1572(a5)
0x8000b890: 9d 87 a7 03 lw	a4, -1576(a5)
0x8000b894: 00 07 14 63 bne	a4, zero, 0x8000b89c
0x8000b89c: 9d c7 a7 83 lw	a5, -1572(a5)
0x8000b8a0: 00 07 94 63 bne	a5, zero, 0x8000b8a8
0x8000b8a8: 00 00 57 37 lui	a4, 5
0x8000b8ac: ff ff e7 b7 lui	a5, 1048574
0x8000b8b0: 19 07 07 13 addi	a4, a4, 400
0x8000b8b4: 00 f7 07 33 add	a4, a4, a5
0x8000b8b8: 01 01 07 93 addi	a5, sp, 16
0x8000b8bc: 00 f7 07 b3 add	a5, a4, a5
0x8000b8c0: 80 00 07 37 lui	a4, 524288
0x8000b8c4: 9e e7 a0 23 sw	a4, -1568(a5)
0x8000b8c8: ff e7 47 13 xori	a4, a4, -2
0x8000b8cc: 9e e7 a2 23 sw	a4, -1564(a5)
0x8000b8d0: 9e 07 a7 03 lw	a4, -1568(a5)
0x8000b8d4: 00 07 14 63 bne	a4, zero, 0x8000b8dc
0x8000b8dc: 9e 47 a7 83 lw	a5, -1564(a5)
0x8000b8e0: 00 07 94 63 bne	a5, zero, 0x8000b8e8
0x8000b8e8: 00 00 57 37 lui	a4, 5
0x8000b8ec: ff ff e7 b7 lui	a5, 1048574
0x8000b8f0: 19 07 07 13 addi	a4, a4, 400
0x8000b8f4: 00 f7 07 33 add	a4, a4, a5
0x8000b8f8: 01 01 07 93 addi	a5, sp, 16
0x8000b8fc: 00 f7 07 b3 add	a5, a4, a5
0x8000b900: 80 00 07 37 lui	a4, 524288
0x8000b904: 9e e7 a4 23 sw	a4, -1560(a5)
0x8000b908: ff f7 47 13 xori	a4, a4, -1
0x8000b90c: 9e e7 a6 23 sw	a4, -1556(a5)
0x8000b910: 9e 87 a7 03 lw	a4, -1560(a5)
0x8000b914: 00 07 14 63 bne	a4, zero, 0x8000b91c
0x8000b91c: 9e c7 a7 83 lw	a5, -1556(a5)
0x8000b920: 00 07 94 63 bne	a5, zero, 0x8000b928
0x8000b928: 00 00 57 37 lui	a4, 5
0x8000b92c: ff ff e7 b7 lui	a5, 1048574
0x8000b930: 19 07 07 13 addi	a4, a4, 400
0x8000b934: 00 f7 07 33 add	a4, a4, a5
0x8000b938: 01 01 07 93 addi	a5, sp, 16
0x8000b93c: 00 f7 07 b3 add	a5, a4, a5
0x8000b940: 80 00 07 37 lui	a4, 524288
0x8000b944: 00 17 07 13 addi	a4, a4, 1
0x8000b948: 9e e7 a8 23 sw	a4, -1552(a5)
0x8000b94c: 9e e7 aa 23 sw	a4, -1548(a5)
0x8000b950: 9f 07 a7 03 lw	a4, -1552(a5)
0x8000b954: 00 07 14 63 bne	a4, zero, 0x8000b95c
0x8000b95c: 9f 47 a7 83 lw	a5, -1548(a5)
0x8000b960: 00 07 94 63 bne	a5, zero, 0x8000b968
0x8000b968: 00 00 57 37 lui	a4, 5
0x8000b96c: ff ff e7 b7 lui	a5, 1048574
0x8000b970: 19 07 07 13 addi	a4, a4, 400
0x8000b974: 00 f7 07 33 add	a4, a4, a5
0x8000b978: 01 01 07 93 addi	a5, sp, 16
0x8000b97c: 00 f7 07 b3 add	a5, a4, a5
0x8000b980: 80 00 07 37 lui	a4, 524288
0x8000b984: 00 17 07 13 addi	a4, a4, 1
0x8000b988: 9e e7 ac 23 sw	a4, -1544(a5)
0x8000b98c: ff e0 07 13 addi	a4, zero, -2
0x8000b990: 9e e7 ae 23 sw	a4, -1540(a5)
0x8000b994: 9f 87 a7 03 lw	a4, -1544(a5)
0x8000b998: 00 07 14 63 bne	a4, zero, 0x8000b9a0
0x8000b9a0: 9f c7 a7 83 lw	a5, -1540(a5)
0x8000b9a4: 00 07 94 63 bne	a5, zero, 0x8000b9ac
0x8000b9ac: 00 00 57 37 lui	a4, 5
0x8000b9b0: ff ff e7 b7 lui	a5, 1048574
0x8000b9b4: 19 07 07 13 addi	a4, a4, 400
0x8000b9b8: 00 f7 07 33 add	a4, a4, a5
0x8000b9bc: 01 01 07 93 addi	a5, sp, 16
0x8000b9c0: 00 f7 07 b3 add	a5, a4, a5
0x8000b9c4: 80 00 07 37 lui	a4, 524288
0x8000b9c8: 00 17 07 13 addi	a4, a4, 1
0x8000b9cc: a0 e7 a0 23 sw	a4, -1536(a5)
0x8000b9d0: ff f0 07 13 addi	a4, zero, -1
0x8000b9d4: a0 e7 a2 23 sw	a4, -1532(a5)
0x8000b9d8: a0 07 a7 03 lw	a4, -1536(a5)
0x8000b9dc: 00 07 14 63 bne	a4, zero, 0x8000b9e4
0x8000b9e4: a0 47 a7 83 lw	a5, -1532(a5)
0x8000b9e8: 00 07 94 63 bne	a5, zero, 0x8000b9f0
0x8000b9f0: 00 00 57 37 lui	a4, 5
0x8000b9f4: ff ff e7 b7 lui	a5, 1048574
0x8000b9f8: 19 07 07 13 addi	a4, a4, 400
0x8000b9fc: 00 f7 07 33 add	a4, a4, a5
0x8000ba00: 01 01 07 93 addi	a5, sp, 16
0x8000ba04: 00 f7 07 b3 add	a5, a4, a5
0x8000ba08: 80 00 07 37 lui	a4, 524288
0x8000ba0c: 00 17 07 13 addi	a4, a4, 1
0x8000ba10: a0 e7 a4 23 sw	a4, -1528(a5)
0x8000ba14: a0 07 a6 23 sw	zero, -1524(a5)
0x8000ba18: a0 87 a7 03 lw	a4, -1528(a5)
0x8000ba1c: 00 07 08 63 beq	a4, zero, 0x8000ba2c
0x8000ba20: a0 c7 a7 03 lw	a4, -1524(a5)
0x8000ba24: 00 07 04 63 beq	a4, zero, 0x8000ba2c
0x8000ba2c: 00 00 57 37 lui	a4, 5
0x8000ba30: ff ff e7 b7 lui	a5, 1048574
0x8000ba34: 19 07 07 13 addi	a4, a4, 400
0x8000ba38: 00 f7 07 33 add	a4, a4, a5
0x8000ba3c: 01 01 07 93 addi	a5, sp, 16
0x8000ba40: 00 f7 07 b3 add	a5, a4, a5
0x8000ba44: 80 00 07 37 lui	a4, 524288
0x8000ba48: 00 17 07 13 addi	a4, a4, 1
0x8000ba4c: a0 e7 a8 23 sw	a4, -1520(a5)
0x8000ba50: 00 10 07 13 addi	a4, zero, 1
0x8000ba54: a0 e7 aa 23 sw	a4, -1516(a5)
0x8000ba58: a1 07 a7 03 lw	a4, -1520(a5)
0x8000ba5c: 00 07 14 63 bne	a4, zero, 0x8000ba64
0x8000ba64: a1 47 a7 83 lw	a5, -1516(a5)
0x8000ba68: 00 07 94 63 bne	a5, zero, 0x8000ba70
0x8000ba70: 00 00 57 37 lui	a4, 5
0x8000ba74: ff ff e7 b7 lui	a5, 1048574
0x8000ba78: 19 07 07 13 addi	a4, a4, 400
0x8000ba7c: 00 f7 07 33 add	a4, a4, a5
0x8000ba80: 01 01 07 93 addi	a5, sp, 16
0x8000ba84: 00 f7 07 b3 add	a5, a4, a5
0x8000ba88: 80 00 07 37 lui	a4, 524288
0x8000ba8c: 00 17 07 13 addi	a4, a4, 1
0x8000ba90: a0 e7 ac 23 sw	a4, -1512(a5)
0x8000ba94: 00 20 07 13 addi	a4, zero, 2
0x8000ba98: a0 e7 ae 23 sw	a4, -1508(a5)
0x8000ba9c: a1 87 a7 03 lw	a4, -1512(a5)
0x8000baa0: 00 07 14 63 bne	a4, zero, 0x8000baa8
0x8000baa8: a1 c7 a7 83 lw	a5, -1508(a5)
0x8000baac: 00 07 94 63 bne	a5, zero, 0x8000bab4
0x8000bab4: 00 00 56 b7 lui	a3, 5
0x8000bab8: ff ff e7 b7 lui	a5, 1048574
0x8000babc: 19 06 86 93 addi	a3, a3, 400
0x8000bac0: 00 f6 86 b3 add	a3, a3, a5
0x8000bac4: 80 00 07 37 lui	a4, 524288
0x8000bac8: 01 01 07 93 addi	a5, sp, 16
0x8000bacc: 00 f6 87 b3 add	a5, a3, a5
0x8000bad0: 00 17 06 93 addi	a3, a4, 1
0x8000bad4: a2 d7 a0 23 sw	a3, -1504(a5)
0x8000bad8: ff e7 47 13 xori	a4, a4, -2
0x8000badc: a2 e7 a2 23 sw	a4, -1500(a5)
0x8000bae0: a2 07 a7 03 lw	a4, -1504(a5)
0x8000bae4: 00 07 14 63 bne	a4, zero, 0x8000baec
0x8000baec: a2 47 a7 83 lw	a5, -1500(a5)
0x8000baf0: 00 07 94 63 bne	a5, zero, 0x8000baf8
0x8000baf8: 00 00 56 b7 lui	a3, 5
0x8000bafc: ff ff e7 b7 lui	a5, 1048574
0x8000bb00: 19 06 86 93 addi	a3, a3, 400
0x8000bb04: 00 f6 86 b3 add	a3, a3, a5
0x8000bb08: 80 00 07 37 lui	a4, 524288
0x8000bb0c: 01 01 07 93 addi	a5, sp, 16
0x8000bb10: 00 f6 87 b3 add	a5, a3, a5
0x8000bb14: 00 17 06 93 addi	a3, a4, 1
0x8000bb18: a2 d7 a4 23 sw	a3, -1496(a5)
0x8000bb1c: ff f7 47 13 xori	a4, a4, -1
0x8000bb20: a2 e7 a6 23 sw	a4, -1492(a5)
0x8000bb24: a2 87 a7 03 lw	a4, -1496(a5)
0x8000bb28: 00 07 14 63 bne	a4, zero, 0x8000bb30
0x8000bb30: a2 c7 a7 83 lw	a5, -1492(a5)
0x8000bb34: 00 07 94 63 bne	a5, zero, 0x8000bb3c
0x8000bb3c: 00 00 57 37 lui	a4, 5
0x8000bb40: ff ff e7 b7 lui	a5, 1048574
0x8000bb44: 19 07 07 13 addi	a4, a4, 400
0x8000bb48: 00 f7 07 33 add	a4, a4, a5
0x8000bb4c: 01 01 07 93 addi	a5, sp, 16
0x8000bb50: 00 f7 07 b3 add	a5, a4, a5
0x8000bb54: ff e0 07 13 addi	a4, zero, -2
0x8000bb58: a2 e7 a8 23 sw	a4, -1488(a5)
0x8000bb5c: a2 e7 aa 23 sw	a4, -1484(a5)
0x8000bb60: a3 07 a7 03 lw	a4, -1488(a5)
0x8000bb64: 00 07 14 63 bne	a4, zero, 0x8000bb6c
0x8000bb6c: a3 47 a7 83 lw	a5, -1484(a5)
0x8000bb70: 00 07 94 63 bne	a5, zero, 0x8000bb78
0x8000bb78: 00 00 57 37 lui	a4, 5
0x8000bb7c: ff ff e7 b7 lui	a5, 1048574
0x8000bb80: 19 07 07 13 addi	a4, a4, 400
0x8000bb84: 00 f7 07 33 add	a4, a4, a5
0x8000bb88: 01 01 07 93 addi	a5, sp, 16
0x8000bb8c: 00 f7 07 b3 add	a5, a4, a5
0x8000bb90: ff e0 07 13 addi	a4, zero, -2
0x8000bb94: a2 e7 ac 23 sw	a4, -1480(a5)
0x8000bb98: ff f0 07 13 addi	a4, zero, -1
0x8000bb9c: a2 e7 ae 23 sw	a4, -1476(a5)
0x8000bba0: a3 87 a7 03 lw	a4, -1480(a5)
0x8000bba4: 00 07 14 63 bne	a4, zero, 0x8000bbac
0x8000bbac: a3 c7 a7 83 lw	a5, -1476(a5)
0x8000bbb0: 00 07 94 63 bne	a5, zero, 0x8000bbb8
0x8000bbb8: 00 00 57 37 lui	a4, 5
0x8000bbbc: ff ff e7 b7 lui	a5, 1048574
0x8000bbc0: 19 07 07 13 addi	a4, a4, 400
0x8000bbc4: 00 f7 07 33 add	a4, a4, a5
0x8000bbc8: 01 01 07 93 addi	a5, sp, 16
0x8000bbcc: 00 f7 07 b3 add	a5, a4, a5
0x8000bbd0: ff e0 07 13 addi	a4, zero, -2
0x8000bbd4: a4 e7 a0 23 sw	a4, -1472(a5)
0x8000bbd8: a4 07 a2 23 sw	zero, -1468(a5)
0x8000bbdc: a4 07 a7 03 lw	a4, -1472(a5)
0x8000bbe0: 00 07 08 63 beq	a4, zero, 0x8000bbf0
0x8000bbe4: a4 47 a7 03 lw	a4, -1468(a5)
0x8000bbe8: 00 07 04 63 beq	a4, zero, 0x8000bbf0
0x8000bbf0: 00 00 57 37 lui	a4, 5
0x8000bbf4: ff ff e7 b7 lui	a5, 1048574
0x8000bbf8: 19 07 07 13 addi	a4, a4, 400
0x8000bbfc: 00 f7 07 33 add	a4, a4, a5
0x8000bc00: 01 01 07 93 addi	a5, sp, 16
0x8000bc04: 00 f7 07 b3 add	a5, a4, a5
0x8000bc08: ff e0 07 13 addi	a4, zero, -2
0x8000bc0c: a4 e7 a4 23 sw	a4, -1464(a5)
0x8000bc10: 00 10 07 13 addi	a4, zero, 1
0x8000bc14: a4 e7 a6 23 sw	a4, -1460(a5)
0x8000bc18: a4 87 a7 03 lw	a4, -1464(a5)
0x8000bc1c: 00 07 14 63 bne	a4, zero, 0x8000bc24
0x8000bc24: a4 c7 a7 83 lw	a5, -1460(a5)
0x8000bc28: 00 07 94 63 bne	a5, zero, 0x8000bc30
0x8000bc30: 00 00 57 37 lui	a4, 5
0x8000bc34: ff ff e7 b7 lui	a5, 1048574
0x8000bc38: 19 07 07 13 addi	a4, a4, 400
0x8000bc3c: 00 f7 07 33 add	a4, a4, a5
0x8000bc40: 01 01 07 93 addi	a5, sp, 16
0x8000bc44: 00 f7 07 b3 add	a5, a4, a5
0x8000bc48: ff e0 07 13 addi	a4, zero, -2
0x8000bc4c: a4 e7 a8 23 sw	a4, -1456(a5)
0x8000bc50: 00 20 07 13 addi	a4, zero, 2
0x8000bc54: a4 e7 aa 23 sw	a4, -1452(a5)
0x8000bc58: a5 07 a7 03 lw	a4, -1456(a5)
0x8000bc5c: 00 07 14 63 bne	a4, zero, 0x8000bc64
0x8000bc64: a5 47 a7 83 lw	a5, -1452(a5)
0x8000bc68: 00 07 94 63 bne	a5, zero, 0x8000bc70
0x8000bc70: 00 00 57 37 lui	a4, 5
0x8000bc74: ff ff e7 b7 lui	a5, 1048574
0x8000bc78: 19 07 07 13 addi	a4, a4, 400
0x8000bc7c: 00 f7 07 33 add	a4, a4, a5
0x8000bc80: 01 01 07 93 addi	a5, sp, 16
0x8000bc84: 00 f7 07 b3 add	a5, a4, a5
0x8000bc88: ff e0 07 13 addi	a4, zero, -2
0x8000bc8c: a4 e7 ac 23 sw	a4, -1448(a5)
0x8000bc90: 80 00 07 37 lui	a4, 524288
0x8000bc94: ff e7 47 13 xori	a4, a4, -2
0x8000bc98: a4 e7 ae 23 sw	a4, -1444(a5)
0x8000bc9c: a5 87 a7 03 lw	a4, -1448(a5)
0x8000bca0: 00 07 14 63 bne	a4, zero, 0x8000bca8
0x8000bca8: a5 c7 a7 83 lw	a5, -1444(a5)
0x8000bcac: 00 07 94 63 bne	a5, zero, 0x8000bcb4
0x8000bcb4: 00 00 57 37 lui	a4, 5
0x8000bcb8: ff ff e7 b7 lui	a5, 1048574
0x8000bcbc: 19 07 07 13 addi	a4, a4, 400
0x8000bcc0: 00 f7 07 33 add	a4, a4, a5
0x8000bcc4: 01 01 07 93 addi	a5, sp, 16
0x8000bcc8: 00 f7 07 b3 add	a5, a4, a5
0x8000bccc: ff e0 07 13 addi	a4, zero, -2
0x8000bcd0: a6 e7 a0 23 sw	a4, -1440(a5)
0x8000bcd4: 80 00 07 37 lui	a4, 524288
0x8000bcd8: ff f7 47 13 xori	a4, a4, -1
0x8000bcdc: a6 e7 a2 23 sw	a4, -1436(a5)
0x8000bce0: a6 07 a7 03 lw	a4, -1440(a5)
0x8000bce4: 00 07 14 63 bne	a4, zero, 0x8000bcec
0x8000bcec: a6 47 a7 83 lw	a5, -1436(a5)
0x8000bcf0: 00 07 94 63 bne	a5, zero, 0x8000bcf8
0x8000bcf8: 00 00 57 37 lui	a4, 5
0x8000bcfc: ff ff e7 b7 lui	a5, 1048574
0x8000bd00: 19 07 07 13 addi	a4, a4, 400
0x8000bd04: 00 f7 07 33 add	a4, a4, a5
0x8000bd08: 01 01 07 93 addi	a5, sp, 16
0x8000bd0c: 00 f7 07 b3 add	a5, a4, a5
0x8000bd10: ff f0 07 13 addi	a4, zero, -1
0x8000bd14: a6 e7 a4 23 sw	a4, -1432(a5)
0x8000bd18: a6 e7 a6 23 sw	a4, -1428(a5)
0x8000bd1c: a6 87 a7 03 lw	a4, -1432(a5)
0x8000bd20: 00 07 14 63 bne	a4, zero, 0x8000bd28
0x8000bd28: a6 c7 a7 83 lw	a5, -1428(a5)
0x8000bd2c: 00 07 94 63 bne	a5, zero, 0x8000bd34
0x8000bd34: 00 00 57 37 lui	a4, 5
0x8000bd38: ff ff e7 b7 lui	a5, 1048574
0x8000bd3c: 19 07 07 13 addi	a4, a4, 400
0x8000bd40: 00 f7 07 33 add	a4, a4, a5
0x8000bd44: 01 01 07 93 addi	a5, sp, 16
0x8000bd48: 00 f7 07 b3 add	a5, a4, a5
0x8000bd4c: ff f0 07 13 addi	a4, zero, -1
0x8000bd50: a6 e7 a8 23 sw	a4, -1424(a5)
0x8000bd54: a6 07 aa 23 sw	zero, -1420(a5)
0x8000bd58: a7 07 a7 03 lw	a4, -1424(a5)
0x8000bd5c: 00 07 08 63 beq	a4, zero, 0x8000bd6c
0x8000bd60: a7 47 a7 03 lw	a4, -1420(a5)
0x8000bd64: 00 07 04 63 beq	a4, zero, 0x8000bd6c
0x8000bd6c: 00 00 57 37 lui	a4, 5
0x8000bd70: ff ff e7 b7 lui	a5, 1048574
0x8000bd74: 19 07 07 13 addi	a4, a4, 400
0x8000bd78: 00 f7 07 33 add	a4, a4, a5
0x8000bd7c: 01 01 07 93 addi	a5, sp, 16
0x8000bd80: 00 f7 07 b3 add	a5, a4, a5
0x8000bd84: ff f0 07 13 addi	a4, zero, -1
0x8000bd88: a6 e7 ac 23 sw	a4, -1416(a5)
0x8000bd8c: 00 10 07 13 addi	a4, zero, 1
0x8000bd90: a6 e7 ae 23 sw	a4, -1412(a5)
0x8000bd94: a7 87 a7 03 lw	a4, -1416(a5)
0x8000bd98: 00 07 14 63 bne	a4, zero, 0x8000bda0
0x8000bda0: a7 c7 a7 83 lw	a5, -1412(a5)
0x8000bda4: 00 07 94 63 bne	a5, zero, 0x8000bdac
0x8000bdac: 00 00 57 37 lui	a4, 5
0x8000bdb0: ff ff e7 b7 lui	a5, 1048574
0x8000bdb4: 19 07 07 13 addi	a4, a4, 400
0x8000bdb8: 00 f7 07 33 add	a4, a4, a5
0x8000bdbc: 01 01 07 93 addi	a5, sp, 16
0x8000bdc0: 00 f7 07 b3 add	a5, a4, a5
0x8000bdc4: ff f0 07 13 addi	a4, zero, -1
0x8000bdc8: a8 e7 a0 23 sw	a4, -1408(a5)
0x8000bdcc: 00 20 07 13 addi	a4, zero, 2
0x8000bdd0: a8 e7 a2 23 sw	a4, -1404(a5)
0x8000bdd4: a8 07 a7 03 lw	a4, -1408(a5)
0x8000bdd8: 00 07 14 63 bne	a4, zero, 0x8000bde0
0x8000bde0: a8 47 a7 83 lw	a5, -1404(a5)
0x8000bde4: 00 07 94 63 bne	a5, zero, 0x8000bdec
0x8000bdec: 00 00 57 37 lui	a4, 5
0x8000bdf0: ff ff e7 b7 lui	a5, 1048574
0x8000bdf4: 19 07 07 13 addi	a4, a4, 400
0x8000bdf8: 00 f7 07 33 add	a4, a4, a5
0x8000bdfc: 01 01 07 93 addi	a5, sp, 16
0x8000be00: 00 f7 07 b3 add	a5, a4, a5
0x8000be04: ff f0 07 13 addi	a4, zero, -1
0x8000be08: a8 e7 a4 23 sw	a4, -1400(a5)
0x8000be0c: 80 00 07 37 lui	a4, 524288
0x8000be10: ff e7 47 13 xori	a4, a4, -2
0x8000be14: a8 e7 a6 23 sw	a4, -1396(a5)
0x8000be18: a8 87 a7 03 lw	a4, -1400(a5)
0x8000be1c: 00 07 14 63 bne	a4, zero, 0x8000be24
0x8000be24: a8 c7 a7 83 lw	a5, -1396(a5)
0x8000be28: 00 07 94 63 bne	a5, zero, 0x8000be30
0x8000be30: 00 00 57 37 lui	a4, 5
0x8000be34: ff ff e7 b7 lui	a5, 1048574
0x8000be38: 19 07 07 13 addi	a4, a4, 400
0x8000be3c: 00 f7 07 33 add	a4, a4, a5
0x8000be40: 01 01 07 93 addi	a5, sp, 16
0x8000be44: 00 f7 07 b3 add	a5, a4, a5
0x8000be48: ff f0 07 13 addi	a4, zero, -1
0x8000be4c: a8 e7 a8 23 sw	a4, -1392(a5)
0x8000be50: 80 00 07 37 lui	a4, 524288
0x8000be54: ff f7 47 13 xori	a4, a4, -1
0x8000be58: a8 e7 aa 23 sw	a4, -1388(a5)
0x8000be5c: a9 07 a7 03 lw	a4, -1392(a5)
0x8000be60: 00 07 14 63 bne	a4, zero, 0x8000be68
0x8000be68: a9 47 a7 83 lw	a5, -1388(a5)
0x8000be6c: 00 07 94 63 bne	a5, zero, 0x8000be74
0x8000be74: 00 00 57 37 lui	a4, 5
0x8000be78: ff ff e7 b7 lui	a5, 1048574
0x8000be7c: 19 07 07 13 addi	a4, a4, 400
0x8000be80: 00 f7 07 33 add	a4, a4, a5
0x8000be84: 01 01 07 93 addi	a5, sp, 16
0x8000be88: 00 f7 07 b3 add	a5, a4, a5
0x8000be8c: a8 07 ac 23 sw	zero, -1384(a5)
0x8000be90: a8 07 ae 23 sw	zero, -1380(a5)
0x8000be94: a9 87 a7 03 lw	a4, -1384(a5)
0x8000be98: 00 07 08 63 beq	a4, zero, 0x8000bea8
0x8000bea8: 00 00 57 37 lui	a4, 5
0x8000beac: ff ff e7 b7 lui	a5, 1048574
0x8000beb0: 19 07 07 13 addi	a4, a4, 400
0x8000beb4: 00 f7 07 33 add	a4, a4, a5
0x8000beb8: 01 01 07 93 addi	a5, sp, 16
0x8000bebc: 00 f7 07 b3 add	a5, a4, a5
0x8000bec0: aa 07 a0 23 sw	zero, -1376(a5)
0x8000bec4: 00 10 07 13 addi	a4, zero, 1
0x8000bec8: aa e7 a2 23 sw	a4, -1372(a5)
0x8000becc: aa 07 a7 03 lw	a4, -1376(a5)
0x8000bed0: 00 07 08 63 beq	a4, zero, 0x8000bee0
0x8000bee0: 00 00 57 37 lui	a4, 5
0x8000bee4: ff ff e7 b7 lui	a5, 1048574
0x8000bee8: 19 07 07 13 addi	a4, a4, 400
0x8000beec: 00 f7 07 33 add	a4, a4, a5
0x8000bef0: 01 01 07 93 addi	a5, sp, 16
0x8000bef4: 00 f7 07 b3 add	a5, a4, a5
0x8000bef8: aa 07 a4 23 sw	zero, -1368(a5)
0x8000befc: 00 20 07 13 addi	a4, zero, 2
0x8000bf00: aa e7 a6 23 sw	a4, -1364(a5)
0x8000bf04: aa 87 a7 03 lw	a4, -1368(a5)
0x8000bf08: 00 07 08 63 beq	a4, zero, 0x8000bf18
0x8000bf18: 00 00 57 37 lui	a4, 5
0x8000bf1c: ff ff e7 b7 lui	a5, 1048574
0x8000bf20: 19 07 07 13 addi	a4, a4, 400
0x8000bf24: 00 f7 07 33 add	a4, a4, a5
0x8000bf28: 01 01 07 93 addi	a5, sp, 16
0x8000bf2c: 00 f7 07 b3 add	a5, a4, a5
0x8000bf30: 80 00 07 37 lui	a4, 524288
0x8000bf34: aa 07 a8 23 sw	zero, -1360(a5)
0x8000bf38: ff e7 47 13 xori	a4, a4, -2
0x8000bf3c: aa e7 aa 23 sw	a4, -1356(a5)
0x8000bf40: ab 07 a7 03 lw	a4, -1360(a5)
0x8000bf44: 00 07 08 63 beq	a4, zero, 0x8000bf54
0x8000bf54: 00 00 57 37 lui	a4, 5
0x8000bf58: ff ff e7 b7 lui	a5, 1048574
0x8000bf5c: 19 07 07 13 addi	a4, a4, 400
0x8000bf60: 00 f7 07 33 add	a4, a4, a5
0x8000bf64: 01 01 07 93 addi	a5, sp, 16
0x8000bf68: 00 f7 07 b3 add	a5, a4, a5
0x8000bf6c: 80 00 07 37 lui	a4, 524288
0x8000bf70: aa 07 ac 23 sw	zero, -1352(a5)
0x8000bf74: ff f7 47 13 xori	a4, a4, -1
0x8000bf78: aa e7 ae 23 sw	a4, -1348(a5)
0x8000bf7c: ab 87 a7 03 lw	a4, -1352(a5)
0x8000bf80: 00 07 08 63 beq	a4, zero, 0x8000bf90
0x8000bf90: 00 00 57 37 lui	a4, 5
0x8000bf94: ff ff e7 b7 lui	a5, 1048574
0x8000bf98: 19 07 07 13 addi	a4, a4, 400
0x8000bf9c: 00 f7 07 33 add	a4, a4, a5
0x8000bfa0: 01 01 07 93 addi	a5, sp, 16
0x8000bfa4: 00 f7 07 b3 add	a5, a4, a5
0x8000bfa8: 00 10 07 13 addi	a4, zero, 1
0x8000bfac: ac e7 a0 23 sw	a4, -1344(a5)
0x8000bfb0: ac e7 a2 23 sw	a4, -1340(a5)
0x8000bfb4: ac 07 a7 03 lw	a4, -1344(a5)
0x8000bfb8: 00 07 14 63 bne	a4, zero, 0x8000bfc0
0x8000bfc0: ac 47 a7 83 lw	a5, -1340(a5)
0x8000bfc4: 00 07 94 63 bne	a5, zero, 0x8000bfcc
0x8000bfcc: 00 00 57 37 lui	a4, 5
0x8000bfd0: ff ff e7 b7 lui	a5, 1048574
0x8000bfd4: 19 07 07 13 addi	a4, a4, 400
0x8000bfd8: 00 f7 07 33 add	a4, a4, a5
0x8000bfdc: 01 01 07 93 addi	a5, sp, 16
0x8000bfe0: 00 f7 07 b3 add	a5, a4, a5
0x8000bfe4: 00 10 07 13 addi	a4, zero, 1
0x8000bfe8: ac e7 a4 23 sw	a4, -1336(a5)
0x8000bfec: 00 20 07 13 addi	a4, zero, 2
0x8000bff0: ac e7 a6 23 sw	a4, -1332(a5)
0x8000bff4: ac 87 a7 03 lw	a4, -1336(a5)
0x8000bff8: 00 07 14 63 bne	a4, zero, 0x8000c000
0x8000c000: ac c7 a7 83 lw	a5, -1332(a5)
0x8000c004: 00 07 94 63 bne	a5, zero, 0x8000c00c
0x8000c00c: 00 00 57 37 lui	a4, 5
0x8000c010: ff ff e7 b7 lui	a5, 1048574
0x8000c014: 19 07 07 13 addi	a4, a4, 400
0x8000c018: 00 f7 07 33 add	a4, a4, a5
0x8000c01c: 01 01 07 93 addi	a5, sp, 16
0x8000c020: 00 f7 07 b3 add	a5, a4, a5
0x8000c024: 00 10 07 13 addi	a4, zero, 1
0x8000c028: ac e7 a8 23 sw	a4, -1328(a5)
0x8000c02c: 80 00 07 37 lui	a4, 524288
0x8000c030: ff e7 47 13 xori	a4, a4, -2
0x8000c034: ac e7 aa 23 sw	a4, -1324(a5)
0x8000c038: ad 07 a7 03 lw	a4, -1328(a5)
0x8000c03c: 00 07 14 63 bne	a4, zero, 0x8000c044
0x8000c044: ad 47 a7 83 lw	a5, -1324(a5)
0x8000c048: 00 07 94 63 bne	a5, zero, 0x8000c050
0x8000c050: 00 00 57 37 lui	a4, 5
0x8000c054: ff ff e7 b7 lui	a5, 1048574
0x8000c058: 19 07 07 13 addi	a4, a4, 400
0x8000c05c: 00 f7 07 33 add	a4, a4, a5
0x8000c060: 01 01 07 93 addi	a5, sp, 16
0x8000c064: 00 f7 07 b3 add	a5, a4, a5
0x8000c068: 00 10 07 13 addi	a4, zero, 1
0x8000c06c: ac e7 ac 23 sw	a4, -1320(a5)
0x8000c070: 80 00 07 37 lui	a4, 524288
0x8000c074: ff f7 47 13 xori	a4, a4, -1
0x8000c078: ac e7 ae 23 sw	a4, -1316(a5)
0x8000c07c: ad 87 a7 03 lw	a4, -1320(a5)
0x8000c080: 00 07 14 63 bne	a4, zero, 0x8000c088
0x8000c088: ad c7 a7 83 lw	a5, -1316(a5)
0x8000c08c: 00 07 94 63 bne	a5, zero, 0x8000c094
0x8000c094: 00 00 57 37 lui	a4, 5
0x8000c098: ff ff e7 b7 lui	a5, 1048574
0x8000c09c: 19 07 07 13 addi	a4, a4, 400
0x8000c0a0: 00 f7 07 33 add	a4, a4, a5
0x8000c0a4: 01 01 07 93 addi	a5, sp, 16
0x8000c0a8: 00 f7 07 b3 add	a5, a4, a5
0x8000c0ac: 00 20 07 13 addi	a4, zero, 2
0x8000c0b0: ae e7 a0 23 sw	a4, -1312(a5)
0x8000c0b4: ae e7 a2 23 sw	a4, -1308(a5)
0x8000c0b8: ae 07 a7 03 lw	a4, -1312(a5)
0x8000c0bc: 00 07 14 63 bne	a4, zero, 0x8000c0c4
0x8000c0c4: ae 47 a7 83 lw	a5, -1308(a5)
0x8000c0c8: 00 07 94 63 bne	a5, zero, 0x8000c0d0
0x8000c0d0: 00 00 57 37 lui	a4, 5
0x8000c0d4: ff ff e7 b7 lui	a5, 1048574
0x8000c0d8: 19 07 07 13 addi	a4, a4, 400
0x8000c0dc: 00 f7 07 33 add	a4, a4, a5
0x8000c0e0: 01 01 07 93 addi	a5, sp, 16
0x8000c0e4: 00 f7 07 b3 add	a5, a4, a5
0x8000c0e8: 00 20 07 13 addi	a4, zero, 2
0x8000c0ec: ae e7 a4 23 sw	a4, -1304(a5)
0x8000c0f0: 80 00 07 37 lui	a4, 524288
0x8000c0f4: ff e7 47 13 xori	a4, a4, -2
0x8000c0f8: ae e7 a6 23 sw	a4, -1300(a5)
0x8000c0fc: ae 87 a7 03 lw	a4, -1304(a5)
0x8000c100: 00 07 14 63 bne	a4, zero, 0x8000c108
0x8000c108: ae c7 a7 83 lw	a5, -1300(a5)
0x8000c10c: 00 07 94 63 bne	a5, zero, 0x8000c114
0x8000c114: 00 00 57 37 lui	a4, 5
0x8000c118: ff ff e7 b7 lui	a5, 1048574
0x8000c11c: 19 07 07 13 addi	a4, a4, 400
0x8000c120: 00 f7 07 33 add	a4, a4, a5
0x8000c124: 01 01 07 93 addi	a5, sp, 16
0x8000c128: 00 f7 07 b3 add	a5, a4, a5
0x8000c12c: 00 20 07 13 addi	a4, zero, 2
0x8000c130: ae e7 a8 23 sw	a4, -1296(a5)
0x8000c134: 80 00 07 37 lui	a4, 524288
0x8000c138: ff f7 47 13 xori	a4, a4, -1
0x8000c13c: ae e7 aa 23 sw	a4, -1292(a5)
0x8000c140: af 07 a7 03 lw	a4, -1296(a5)
0x8000c144: 00 07 14 63 bne	a4, zero, 0x8000c14c
0x8000c14c: af 47 a7 83 lw	a5, -1292(a5)
0x8000c150: 00 07 94 63 bne	a5, zero, 0x8000c158
0x8000c158: 00 00 57 37 lui	a4, 5
0x8000c15c: ff ff e7 b7 lui	a5, 1048574
0x8000c160: 19 07 07 13 addi	a4, a4, 400
0x8000c164: 00 f7 07 33 add	a4, a4, a5
0x8000c168: 01 01 07 93 addi	a5, sp, 16
0x8000c16c: 00 f7 07 b3 add	a5, a4, a5
0x8000c170: 80 00 07 37 lui	a4, 524288
0x8000c174: ff e7 47 13 xori	a4, a4, -2
0x8000c178: ae e7 ac 23 sw	a4, -1288(a5)
0x8000c17c: ae e7 ae 23 sw	a4, -1284(a5)
0x8000c180: af 87 a7 03 lw	a4, -1288(a5)
0x8000c184: 00 07 14 63 bne	a4, zero, 0x8000c18c
0x8000c18c: af c7 a7 83 lw	a5, -1284(a5)
0x8000c190: 00 07 94 63 bne	a5, zero, 0x8000c198
0x8000c198: 00 00 56 b7 lui	a3, 5
0x8000c19c: ff ff e7 b7 lui	a5, 1048574
0x8000c1a0: 19 06 86 93 addi	a3, a3, 400
0x8000c1a4: 00 f6 86 b3 add	a3, a3, a5
0x8000c1a8: 80 00 07 37 lui	a4, 524288
0x8000c1ac: 01 01 07 93 addi	a5, sp, 16
0x8000c1b0: 00 f6 87 b3 add	a5, a3, a5
0x8000c1b4: ff e7 46 93 xori	a3, a4, -2
0x8000c1b8: b0 d7 a0 23 sw	a3, -1280(a5)
0x8000c1bc: ff f7 47 13 xori	a4, a4, -1
0x8000c1c0: b0 e7 a2 23 sw	a4, -1276(a5)
0x8000c1c4: b0 07 a7 03 lw	a4, -1280(a5)
0x8000c1c8: 00 07 14 63 bne	a4, zero, 0x8000c1d0
0x8000c1d0: b0 47 a7 83 lw	a5, -1276(a5)
0x8000c1d4: 00 07 94 63 bne	a5, zero, 0x8000c1dc
0x8000c1dc: 00 00 57 37 lui	a4, 5
0x8000c1e0: ff ff e7 b7 lui	a5, 1048574
0x8000c1e4: 19 07 07 13 addi	a4, a4, 400
0x8000c1e8: 00 f7 07 33 add	a4, a4, a5
0x8000c1ec: 01 01 07 93 addi	a5, sp, 16
0x8000c1f0: 00 f7 07 b3 add	a5, a4, a5
0x8000c1f4: 80 00 07 37 lui	a4, 524288
0x8000c1f8: ff f7 47 13 xori	a4, a4, -1
0x8000c1fc: b0 e7 a4 23 sw	a4, -1272(a5)
0x8000c200: b0 e7 a6 23 sw	a4, -1268(a5)
0x8000c204: b0 87 a7 03 lw	a4, -1272(a5)
0x8000c208: 00 07 14 63 bne	a4, zero, 0x8000c210
0x8000c210: b0 c7 a7 83 lw	a5, -1268(a5)
0x8000c214: 00 07 94 63 bne	a5, zero, 0x8000c21c
0x8000c21c: 00 00 57 37 lui	a4, 5
0x8000c220: ff ff e7 b7 lui	a5, 1048574
0x8000c224: 19 07 07 13 addi	a4, a4, 400
0x8000c228: 00 f7 07 33 add	a4, a4, a5
0x8000c22c: 01 01 07 93 addi	a5, sp, 16
0x8000c230: 00 f7 07 b3 add	a5, a4, a5
0x8000c234: 80 00 07 37 lui	a4, 524288
0x8000c238: b0 e7 a8 23 sw	a4, -1264(a5)
0x8000c23c: b0 e7 aa 23 sw	a4, -1260(a5)
0x8000c240: b1 07 a7 03 lw	a4, -1264(a5)
0x8000c244: 00 07 18 63 bne	a4, zero, 0x8000c254
0x8000c254: 00 00 57 37 lui	a4, 5
0x8000c258: ff ff e7 b7 lui	a5, 1048574
0x8000c25c: 19 07 07 13 addi	a4, a4, 400
0x8000c260: 00 f7 07 33 add	a4, a4, a5
0x8000c264: 01 01 07 93 addi	a5, sp, 16
0x8000c268: 00 f7 07 b3 add	a5, a4, a5
0x8000c26c: 80 00 07 37 lui	a4, 524288
0x8000c270: b0 e7 ac 23 sw	a4, -1256(a5)
0x8000c274: 00 17 07 13 addi	a4, a4, 1
0x8000c278: b0 e7 ae 23 sw	a4, -1252(a5)
0x8000c27c: b1 87 a7 03 lw	a4, -1256(a5)
0x8000c280: 00 07 18 63 bne	a4, zero, 0x8000c290
0x8000c290: 00 00 57 37 lui	a4, 5
0x8000c294: ff ff e7 b7 lui	a5, 1048574
0x8000c298: 19 07 07 13 addi	a4, a4, 400
0x8000c29c: 00 f7 07 33 add	a4, a4, a5
0x8000c2a0: 01 01 07 93 addi	a5, sp, 16
0x8000c2a4: 00 f7 07 b3 add	a5, a4, a5
0x8000c2a8: 80 00 07 37 lui	a4, 524288
0x8000c2ac: b2 e7 a0 23 sw	a4, -1248(a5)
0x8000c2b0: ff e0 07 13 addi	a4, zero, -2
0x8000c2b4: b2 e7 a2 23 sw	a4, -1244(a5)
0x8000c2b8: b2 07 a7 03 lw	a4, -1248(a5)
0x8000c2bc: 00 07 18 63 bne	a4, zero, 0x8000c2cc
0x8000c2cc: 00 00 57 37 lui	a4, 5
0x8000c2d0: ff ff e7 b7 lui	a5, 1048574
0x8000c2d4: 19 07 07 13 addi	a4, a4, 400
0x8000c2d8: 00 f7 07 33 add	a4, a4, a5
0x8000c2dc: 01 01 07 93 addi	a5, sp, 16
0x8000c2e0: 00 f7 07 b3 add	a5, a4, a5
0x8000c2e4: 80 00 07 37 lui	a4, 524288
0x8000c2e8: b2 e7 a4 23 sw	a4, -1240(a5)
0x8000c2ec: ff f0 07 13 addi	a4, zero, -1
0x8000c2f0: b2 e7 a6 23 sw	a4, -1236(a5)
0x8000c2f4: b2 87 a7 03 lw	a4, -1240(a5)
0x8000c2f8: 00 07 18 63 bne	a4, zero, 0x8000c308
0x8000c308: 00 00 57 37 lui	a4, 5
0x8000c30c: ff ff e7 b7 lui	a5, 1048574
0x8000c310: 19 07 07 13 addi	a4, a4, 400
0x8000c314: 00 f7 07 33 add	a4, a4, a5
0x8000c318: 01 01 07 93 addi	a5, sp, 16
0x8000c31c: 00 f7 07 b3 add	a5, a4, a5
0x8000c320: 80 00 07 37 lui	a4, 524288
0x8000c324: b2 e7 a8 23 sw	a4, -1232(a5)
0x8000c328: b2 07 aa 23 sw	zero, -1228(a5)
0x8000c32c: b3 07 a7 03 lw	a4, -1232(a5)
0x8000c330: 00 07 18 63 bne	a4, zero, 0x8000c340
0x8000c340: 00 00 57 37 lui	a4, 5
0x8000c344: ff ff e7 b7 lui	a5, 1048574
0x8000c348: 19 07 07 13 addi	a4, a4, 400
0x8000c34c: 00 f7 07 33 add	a4, a4, a5
0x8000c350: 01 01 07 93 addi	a5, sp, 16
0x8000c354: 00 f7 07 b3 add	a5, a4, a5
0x8000c358: 80 00 07 37 lui	a4, 524288
0x8000c35c: b2 e7 ac 23 sw	a4, -1224(a5)
0x8000c360: 00 10 07 13 addi	a4, zero, 1
0x8000c364: b2 e7 ae 23 sw	a4, -1220(a5)
0x8000c368: b3 87 a7 03 lw	a4, -1224(a5)
0x8000c36c: 00 07 18 63 bne	a4, zero, 0x8000c37c
0x8000c37c: 00 00 57 37 lui	a4, 5
0x8000c380: ff ff e7 b7 lui	a5, 1048574
0x8000c384: 19 07 07 13 addi	a4, a4, 400
0x8000c388: 00 f7 07 33 add	a4, a4, a5
0x8000c38c: 01 01 07 93 addi	a5, sp, 16
0x8000c390: 00 f7 07 b3 add	a5, a4, a5
0x8000c394: 80 00 07 37 lui	a4, 524288
0x8000c398: b4 e7 a0 23 sw	a4, -1216(a5)
0x8000c39c: 00 20 07 13 addi	a4, zero, 2
0x8000c3a0: b4 e7 a2 23 sw	a4, -1212(a5)
0x8000c3a4: b4 07 a7 03 lw	a4, -1216(a5)
0x8000c3a8: 00 07 18 63 bne	a4, zero, 0x8000c3b8
0x8000c3b8: 00 00 57 37 lui	a4, 5
0x8000c3bc: ff ff e7 b7 lui	a5, 1048574
0x8000c3c0: 19 07 07 13 addi	a4, a4, 400
0x8000c3c4: 00 f7 07 33 add	a4, a4, a5
0x8000c3c8: 01 01 07 93 addi	a5, sp, 16
0x8000c3cc: 00 f7 07 b3 add	a5, a4, a5
0x8000c3d0: 80 00 07 37 lui	a4, 524288
0x8000c3d4: b4 e7 a4 23 sw	a4, -1208(a5)
0x8000c3d8: ff e7 47 13 xori	a4, a4, -2
0x8000c3dc: b4 e7 a6 23 sw	a4, -1204(a5)
0x8000c3e0: b4 87 a7 03 lw	a4, -1208(a5)
0x8000c3e4: 00 07 18 63 bne	a4, zero, 0x8000c3f4
0x8000c3f4: 00 00 57 37 lui	a4, 5
0x8000c3f8: ff ff e7 b7 lui	a5, 1048574
0x8000c3fc: 19 07 07 13 addi	a4, a4, 400
0x8000c400: 00 f7 07 33 add	a4, a4, a5
0x8000c404: 01 01 07 93 addi	a5, sp, 16
0x8000c408: 00 f7 07 b3 add	a5, a4, a5
0x8000c40c: 80 00 07 37 lui	a4, 524288
0x8000c410: b4 e7 a8 23 sw	a4, -1200(a5)
0x8000c414: ff f7 47 13 xori	a4, a4, -1
0x8000c418: b4 e7 aa 23 sw	a4, -1196(a5)
0x8000c41c: b5 07 a7 03 lw	a4, -1200(a5)
0x8000c420: 00 07 18 63 bne	a4, zero, 0x8000c430
0x8000c430: 00 00 57 37 lui	a4, 5
0x8000c434: ff ff e7 b7 lui	a5, 1048574
0x8000c438: 19 07 07 13 addi	a4, a4, 400
0x8000c43c: 00 f7 07 33 add	a4, a4, a5
0x8000c440: 01 01 07 93 addi	a5, sp, 16
0x8000c444: 00 f7 07 b3 add	a5, a4, a5
0x8000c448: 80 00 07 37 lui	a4, 524288
0x8000c44c: 00 17 07 13 addi	a4, a4, 1
0x8000c450: b4 e7 ac 23 sw	a4, -1192(a5)
0x8000c454: b4 e7 ae 23 sw	a4, -1188(a5)
0x8000c458: b5 87 a7 03 lw	a4, -1192(a5)
0x8000c45c: 00 07 18 63 bne	a4, zero, 0x8000c46c
0x8000c46c: 00 00 57 37 lui	a4, 5
0x8000c470: ff ff e7 b7 lui	a5, 1048574
0x8000c474: 19 07 07 13 addi	a4, a4, 400
0x8000c478: 00 f7 07 33 add	a4, a4, a5
0x8000c47c: 01 01 07 93 addi	a5, sp, 16
0x8000c480: 00 f7 07 b3 add	a5, a4, a5
0x8000c484: 80 00 07 37 lui	a4, 524288
0x8000c488: 00 17 07 13 addi	a4, a4, 1
0x8000c48c: b6 e7 a0 23 sw	a4, -1184(a5)
0x8000c490: ff e0 07 13 addi	a4, zero, -2
0x8000c494: b6 e7 a2 23 sw	a4, -1180(a5)
0x8000c498: b6 07 a7 03 lw	a4, -1184(a5)
0x8000c49c: 00 07 18 63 bne	a4, zero, 0x8000c4ac
0x8000c4ac: 00 00 57 37 lui	a4, 5
0x8000c4b0: ff ff e7 b7 lui	a5, 1048574
0x8000c4b4: 19 07 07 13 addi	a4, a4, 400
0x8000c4b8: 00 f7 07 33 add	a4, a4, a5
0x8000c4bc: 01 01 07 93 addi	a5, sp, 16
0x8000c4c0: 00 f7 07 b3 add	a5, a4, a5
0x8000c4c4: 80 00 07 37 lui	a4, 524288
0x8000c4c8: 00 17 07 13 addi	a4, a4, 1
0x8000c4cc: b6 e7 a4 23 sw	a4, -1176(a5)
0x8000c4d0: ff f0 07 13 addi	a4, zero, -1
0x8000c4d4: b6 e7 a6 23 sw	a4, -1172(a5)
0x8000c4d8: b6 87 a7 03 lw	a4, -1176(a5)
0x8000c4dc: 00 07 18 63 bne	a4, zero, 0x8000c4ec
0x8000c4ec: 00 00 57 37 lui	a4, 5
0x8000c4f0: ff ff e7 b7 lui	a5, 1048574
0x8000c4f4: 19 07 07 13 addi	a4, a4, 400
0x8000c4f8: 00 f7 07 33 add	a4, a4, a5
0x8000c4fc: 01 01 07 93 addi	a5, sp, 16
0x8000c500: 00 f7 07 b3 add	a5, a4, a5
0x8000c504: 80 00 07 37 lui	a4, 524288
0x8000c508: 00 17 07 13 addi	a4, a4, 1
0x8000c50c: b6 e7 a8 23 sw	a4, -1168(a5)
0x8000c510: b6 07 aa 23 sw	zero, -1164(a5)
0x8000c514: b7 07 a7 03 lw	a4, -1168(a5)
0x8000c518: 00 07 18 63 bne	a4, zero, 0x8000c528
0x8000c528: 00 00 57 37 lui	a4, 5
0x8000c52c: ff ff e7 b7 lui	a5, 1048574
0x8000c530: 19 07 07 13 addi	a4, a4, 400
0x8000c534: 00 f7 07 33 add	a4, a4, a5
0x8000c538: 01 01 07 93 addi	a5, sp, 16
0x8000c53c: 00 f7 07 b3 add	a5, a4, a5
0x8000c540: 80 00 07 37 lui	a4, 524288
0x8000c544: 00 17 07 13 addi	a4, a4, 1
0x8000c548: b6 e7 ac 23 sw	a4, -1160(a5)
0x8000c54c: 00 10 07 13 addi	a4, zero, 1
0x8000c550: b6 e7 ae 23 sw	a4, -1156(a5)
0x8000c554: b7 87 a7 03 lw	a4, -1160(a5)
0x8000c558: 00 07 18 63 bne	a4, zero, 0x8000c568
0x8000c568: 00 00 57 37 lui	a4, 5
0x8000c56c: ff ff e7 b7 lui	a5, 1048574
0x8000c570: 19 07 07 13 addi	a4, a4, 400
0x8000c574: 00 f7 07 33 add	a4, a4, a5
0x8000c578: 01 01 07 93 addi	a5, sp, 16
0x8000c57c: 00 f7 07 b3 add	a5, a4, a5
0x8000c580: 80 00 07 37 lui	a4, 524288
0x8000c584: 00 17 07 13 addi	a4, a4, 1
0x8000c588: b8 e7 a0 23 sw	a4, -1152(a5)
0x8000c58c: 00 20 07 13 addi	a4, zero, 2
0x8000c590: b8 e7 a2 23 sw	a4, -1148(a5)
0x8000c594: b8 07 a7 03 lw	a4, -1152(a5)
0x8000c598: 00 07 18 63 bne	a4, zero, 0x8000c5a8
0x8000c5a8: 00 00 56 b7 lui	a3, 5
0x8000c5ac: ff ff e7 b7 lui	a5, 1048574
0x8000c5b0: 19 06 86 93 addi	a3, a3, 400
0x8000c5b4: 00 f6 86 b3 add	a3, a3, a5
0x8000c5b8: 80 00 07 37 lui	a4, 524288
0x8000c5bc: 01 01 07 93 addi	a5, sp, 16
0x8000c5c0: 00 f6 87 b3 add	a5, a3, a5
0x8000c5c4: 00 17 06 93 addi	a3, a4, 1
0x8000c5c8: b8 d7 a4 23 sw	a3, -1144(a5)
0x8000c5cc: ff e7 47 13 xori	a4, a4, -2
0x8000c5d0: b8 e7 a6 23 sw	a4, -1140(a5)
0x8000c5d4: b8 87 a7 03 lw	a4, -1144(a5)
0x8000c5d8: 00 07 18 63 bne	a4, zero, 0x8000c5e8
0x8000c5e8: 00 00 56 b7 lui	a3, 5
0x8000c5ec: ff ff e7 b7 lui	a5, 1048574
0x8000c5f0: 19 06 86 93 addi	a3, a3, 400
0x8000c5f4: 00 f6 86 b3 add	a3, a3, a5
0x8000c5f8: 80 00 07 37 lui	a4, 524288
0x8000c5fc: 01 01 07 93 addi	a5, sp, 16
0x8000c600: 00 f6 87 b3 add	a5, a3, a5
0x8000c604: 00 17 06 93 addi	a3, a4, 1
0x8000c608: b8 d7 a8 23 sw	a3, -1136(a5)
0x8000c60c: ff f7 47 13 xori	a4, a4, -1
0x8000c610: b8 e7 aa 23 sw	a4, -1132(a5)
0x8000c614: b9 07 a7 03 lw	a4, -1136(a5)
0x8000c618: 00 07 18 63 bne	a4, zero, 0x8000c628
0x8000c628: 00 00 57 37 lui	a4, 5
0x8000c62c: ff ff e7 b7 lui	a5, 1048574
0x8000c630: 19 07 07 13 addi	a4, a4, 400
0x8000c634: 00 f7 07 33 add	a4, a4, a5
0x8000c638: 01 01 07 93 addi	a5, sp, 16
0x8000c63c: 00 f7 07 b3 add	a5, a4, a5
0x8000c640: ff e0 07 13 addi	a4, zero, -2
0x8000c644: b8 e7 ac 23 sw	a4, -1128(a5)
0x8000c648: b8 e7 ae 23 sw	a4, -1124(a5)
0x8000c64c: b9 87 a7 03 lw	a4, -1128(a5)
0x8000c650: 00 07 18 63 bne	a4, zero, 0x8000c660
0x8000c660: 00 00 57 37 lui	a4, 5
0x8000c664: ff ff e7 b7 lui	a5, 1048574
0x8000c668: 19 07 07 13 addi	a4, a4, 400
0x8000c66c: 00 f7 07 33 add	a4, a4, a5
0x8000c670: 01 01 07 93 addi	a5, sp, 16
0x8000c674: 00 f7 07 b3 add	a5, a4, a5
0x8000c678: ff e0 07 13 addi	a4, zero, -2
0x8000c67c: ba e7 a0 23 sw	a4, -1120(a5)
0x8000c680: ff f0 07 13 addi	a4, zero, -1
0x8000c684: ba e7 a2 23 sw	a4, -1116(a5)
0x8000c688: ba 07 a7 03 lw	a4, -1120(a5)
0x8000c68c: 00 07 18 63 bne	a4, zero, 0x8000c69c
0x8000c69c: 00 00 57 37 lui	a4, 5
0x8000c6a0: ff ff e7 b7 lui	a5, 1048574
0x8000c6a4: 19 07 07 13 addi	a4, a4, 400
0x8000c6a8: 00 f7 07 33 add	a4, a4, a5
0x8000c6ac: 01 01 07 93 addi	a5, sp, 16
0x8000c6b0: 00 f7 07 b3 add	a5, a4, a5
0x8000c6b4: ff e0 07 13 addi	a4, zero, -2
0x8000c6b8: ba e7 a4 23 sw	a4, -1112(a5)
0x8000c6bc: ba 07 a6 23 sw	zero, -1108(a5)
0x8000c6c0: ba 87 a7 03 lw	a4, -1112(a5)
0x8000c6c4: 00 07 18 63 bne	a4, zero, 0x8000c6d4
0x8000c6d4: 00 00 57 37 lui	a4, 5
0x8000c6d8: ff ff e7 b7 lui	a5, 1048574
0x8000c6dc: 19 07 07 13 addi	a4, a4, 400
0x8000c6e0: 00 f7 07 33 add	a4, a4, a5
0x8000c6e4: 01 01 07 93 addi	a5, sp, 16
0x8000c6e8: 00 f7 07 b3 add	a5, a4, a5
0x8000c6ec: ff e0 07 13 addi	a4, zero, -2
0x8000c6f0: ba e7 a8 23 sw	a4, -1104(a5)
0x8000c6f4: 00 10 07 13 addi	a4, zero, 1
0x8000c6f8: ba e7 aa 23 sw	a4, -1100(a5)
0x8000c6fc: bb 07 a7 03 lw	a4, -1104(a5)
0x8000c700: 00 07 18 63 bne	a4, zero, 0x8000c710
0x8000c710: 00 00 57 37 lui	a4, 5
0x8000c714: ff ff e7 b7 lui	a5, 1048574
0x8000c718: 19 07 07 13 addi	a4, a4, 400
0x8000c71c: 00 f7 07 33 add	a4, a4, a5
0x8000c720: 01 01 07 93 addi	a5, sp, 16
0x8000c724: 00 f7 07 b3 add	a5, a4, a5
0x8000c728: ff e0 07 13 addi	a4, zero, -2
0x8000c72c: ba e7 ac 23 sw	a4, -1096(a5)
0x8000c730: 00 20 07 13 addi	a4, zero, 2
0x8000c734: ba e7 ae 23 sw	a4, -1092(a5)
0x8000c738: bb 87 a7 03 lw	a4, -1096(a5)
0x8000c73c: 00 07 18 63 bne	a4, zero, 0x8000c74c
0x8000c74c: 00 00 57 37 lui	a4, 5
0x8000c750: ff ff e7 b7 lui	a5, 1048574
0x8000c754: 19 07 07 13 addi	a4, a4, 400
0x8000c758: 00 f7 07 33 add	a4, a4, a5
0x8000c75c: 01 01 07 93 addi	a5, sp, 16
0x8000c760: 00 f7 07 b3 add	a5, a4, a5
0x8000c764: ff e0 07 13 addi	a4, zero, -2
0x8000c768: bc e7 a0 23 sw	a4, -1088(a5)
0x8000c76c: 80 00 07 37 lui	a4, 524288
0x8000c770: ff e7 47 13 xori	a4, a4, -2
0x8000c774: bc e7 a2 23 sw	a4, -1084(a5)
0x8000c778: bc 07 a7 03 lw	a4, -1088(a5)
0x8000c77c: 00 07 18 63 bne	a4, zero, 0x8000c78c
0x8000c78c: 00 00 57 37 lui	a4, 5
0x8000c790: ff ff e7 b7 lui	a5, 1048574
0x8000c794: 19 07 07 13 addi	a4, a4, 400
0x8000c798: 00 f7 07 33 add	a4, a4, a5
0x8000c79c: 01 01 07 93 addi	a5, sp, 16
0x8000c7a0: 00 f7 07 b3 add	a5, a4, a5
0x8000c7a4: ff e0 07 13 addi	a4, zero, -2
0x8000c7a8: bc e7 a4 23 sw	a4, -1080(a5)
0x8000c7ac: 80 00 07 37 lui	a4, 524288
0x8000c7b0: ff f7 47 13 xori	a4, a4, -1
0x8000c7b4: bc e7 a6 23 sw	a4, -1076(a5)
0x8000c7b8: bc 87 a7 03 lw	a4, -1080(a5)
0x8000c7bc: 00 07 18 63 bne	a4, zero, 0x8000c7cc
0x8000c7cc: 00 00 57 37 lui	a4, 5
0x8000c7d0: ff ff e7 b7 lui	a5, 1048574
0x8000c7d4: 19 07 07 13 addi	a4, a4, 400
0x8000c7d8: 00 f7 07 33 add	a4, a4, a5
0x8000c7dc: 01 01 07 93 addi	a5, sp, 16
0x8000c7e0: 00 f7 07 b3 add	a5, a4, a5
0x8000c7e4: ff f0 07 13 addi	a4, zero, -1
0x8000c7e8: bc e7 a8 23 sw	a4, -1072(a5)
0x8000c7ec: bc e7 aa 23 sw	a4, -1068(a5)
0x8000c7f0: bd 07 a7 03 lw	a4, -1072(a5)
0x8000c7f4: 00 07 18 63 bne	a4, zero, 0x8000c804
0x8000c804: 00 00 57 37 lui	a4, 5
0x8000c808: ff ff e7 b7 lui	a5, 1048574
0x8000c80c: 19 07 07 13 addi	a4, a4, 400
0x8000c810: 00 f7 07 33 add	a4, a4, a5
0x8000c814: 01 01 07 93 addi	a5, sp, 16
0x8000c818: 00 f7 07 b3 add	a5, a4, a5
0x8000c81c: ff f0 07 13 addi	a4, zero, -1
0x8000c820: bc e7 ac 23 sw	a4, -1064(a5)
0x8000c824: bc 07 ae 23 sw	zero, -1060(a5)
0x8000c828: bd 87 a7 03 lw	a4, -1064(a5)
0x8000c82c: 00 07 18 63 bne	a4, zero, 0x8000c83c
0x8000c83c: 00 00 57 37 lui	a4, 5
0x8000c840: ff ff e7 b7 lui	a5, 1048574
0x8000c844: 19 07 07 13 addi	a4, a4, 400
0x8000c848: 00 f7 07 33 add	a4, a4, a5
0x8000c84c: 01 01 07 93 addi	a5, sp, 16
0x8000c850: 00 f7 07 b3 add	a5, a4, a5
0x8000c854: ff f0 07 13 addi	a4, zero, -1
0x8000c858: be e7 a0 23 sw	a4, -1056(a5)
0x8000c85c: 00 10 07 13 addi	a4, zero, 1
0x8000c860: be e7 a2 23 sw	a4, -1052(a5)
0x8000c864: be 07 a7 03 lw	a4, -1056(a5)
0x8000c868: 00 07 18 63 bne	a4, zero, 0x8000c878
0x8000c878: 00 00 57 37 lui	a4, 5
0x8000c87c: ff ff e7 b7 lui	a5, 1048574
0x8000c880: 19 07 07 13 addi	a4, a4, 400
0x8000c884: 00 f7 07 33 add	a4, a4, a5
0x8000c888: 01 01 07 93 addi	a5, sp, 16
0x8000c88c: 00 f7 07 b3 add	a5, a4, a5
0x8000c890: ff f0 07 13 addi	a4, zero, -1
0x8000c894: be e7 a4 23 sw	a4, -1048(a5)
0x8000c898: 00 20 07 13 addi	a4, zero, 2
0x8000c89c: be e7 a6 23 sw	a4, -1044(a5)
0x8000c8a0: be 87 a7 03 lw	a4, -1048(a5)
0x8000c8a4: 00 07 18 63 bne	a4, zero, 0x8000c8b4
0x8000c8b4: 00 00 57 37 lui	a4, 5
0x8000c8b8: ff ff e7 b7 lui	a5, 1048574
0x8000c8bc: 19 07 07 13 addi	a4, a4, 400
0x8000c8c0: 00 f7 07 33 add	a4, a4, a5
0x8000c8c4: 01 01 07 93 addi	a5, sp, 16
0x8000c8c8: 00 f7 07 b3 add	a5, a4, a5
0x8000c8cc: ff f0 07 13 addi	a4, zero, -1
0x8000c8d0: be e7 a8 23 sw	a4, -1040(a5)
0x8000c8d4: 80 00 07 37 lui	a4, 524288
0x8000c8d8: ff e7 47 13 xori	a4, a4, -2
0x8000c8dc: be e7 aa 23 sw	a4, -1036(a5)
0x8000c8e0: bf 07 a7 03 lw	a4, -1040(a5)
0x8000c8e4: 00 07 18 63 bne	a4, zero, 0x8000c8f4
0x8000c8f4: 00 00 57 37 lui	a4, 5
0x8000c8f8: ff ff e7 b7 lui	a5, 1048574
0x8000c8fc: 19 07 07 13 addi	a4, a4, 400
0x8000c900: 00 f7 07 33 add	a4, a4, a5
0x8000c904: 01 01 07 93 addi	a5, sp, 16
0x8000c908: 00 f7 07 b3 add	a5, a4, a5
0x8000c90c: ff f0 07 13 addi	a4, zero, -1
0x8000c910: be e7 ac 23 sw	a4, -1032(a5)
0x8000c914: 80 00 07 37 lui	a4, 524288
0x8000c918: ff f7 47 13 xori	a4, a4, -1
0x8000c91c: be e7 ae 23 sw	a4, -1028(a5)
0x8000c920: bf 87 a7 03 lw	a4, -1032(a5)
0x8000c924: 00 07 18 63 bne	a4, zero, 0x8000c934
0x8000c934: 00 00 57 37 lui	a4, 5
0x8000c938: ff ff e7 b7 lui	a5, 1048574
0x8000c93c: 19 07 07 13 addi	a4, a4, 400
0x8000c940: 00 f7 07 33 add	a4, a4, a5
0x8000c944: 01 01 07 93 addi	a5, sp, 16
0x8000c948: 00 f7 07 b3 add	a5, a4, a5
0x8000c94c: c0 07 a0 23 sw	zero, -1024(a5)
0x8000c950: c0 07 a2 23 sw	zero, -1020(a5)
0x8000c954: c0 07 a7 03 lw	a4, -1024(a5)
0x8000c958: 00 07 04 63 beq	a4, zero, 0x8000c960
0x8000c960: c0 47 a7 83 lw	a5, -1020(a5)
0x8000c964: 00 07 84 63 beq	a5, zero, 0x8000c96c
0x8000c96c: 00 00 57 37 lui	a4, 5
0x8000c970: ff ff e7 b7 lui	a5, 1048574
0x8000c974: 19 07 07 13 addi	a4, a4, 400
0x8000c978: 00 f7 07 33 add	a4, a4, a5
0x8000c97c: 01 01 07 93 addi	a5, sp, 16
0x8000c980: 00 f7 07 b3 add	a5, a4, a5
0x8000c984: c0 07 a4 23 sw	zero, -1016(a5)
0x8000c988: 00 10 07 13 addi	a4, zero, 1
0x8000c98c: c0 e7 a6 23 sw	a4, -1012(a5)
0x8000c990: c0 87 a7 03 lw	a4, -1016(a5)
0x8000c994: 00 07 18 63 bne	a4, zero, 0x8000c9a4
0x8000c998: c0 c7 a7 03 lw	a4, -1012(a5)
0x8000c99c: 00 07 14 63 bne	a4, zero, 0x8000c9a4
0x8000c9a4: 00 00 57 37 lui	a4, 5
0x8000c9a8: ff ff e7 b7 lui	a5, 1048574
0x8000c9ac: 19 07 07 13 addi	a4, a4, 400
0x8000c9b0: 00 f7 07 33 add	a4, a4, a5
0x8000c9b4: 01 01 07 93 addi	a5, sp, 16
0x8000c9b8: 00 f7 07 b3 add	a5, a4, a5
0x8000c9bc: c0 07 a8 23 sw	zero, -1008(a5)
0x8000c9c0: 00 20 07 13 addi	a4, zero, 2
0x8000c9c4: c0 e7 aa 23 sw	a4, -1004(a5)
0x8000c9c8: c1 07 a7 03 lw	a4, -1008(a5)
0x8000c9cc: 00 07 18 63 bne	a4, zero, 0x8000c9dc
0x8000c9d0: c1 47 a7 03 lw	a4, -1004(a5)
0x8000c9d4: 00 07 14 63 bne	a4, zero, 0x8000c9dc
0x8000c9dc: 00 00 57 37 lui	a4, 5
0x8000c9e0: ff ff e7 b7 lui	a5, 1048574
0x8000c9e4: 19 07 07 13 addi	a4, a4, 400
0x8000c9e8: 00 f7 07 33 add	a4, a4, a5
0x8000c9ec: 01 01 07 93 addi	a5, sp, 16
0x8000c9f0: 00 f7 07 b3 add	a5, a4, a5
0x8000c9f4: 80 00 07 37 lui	a4, 524288
0x8000c9f8: c0 07 ac 23 sw	zero, -1000(a5)
0x8000c9fc: ff e7 47 13 xori	a4, a4, -2
0x8000ca00: c0 e7 ae 23 sw	a4, -996(a5)
0x8000ca04: c1 87 a7 03 lw	a4, -1000(a5)
0x8000ca08: 00 07 18 63 bne	a4, zero, 0x8000ca18
0x8000ca0c: c1 c7 a7 03 lw	a4, -996(a5)
0x8000ca10: 00 07 14 63 bne	a4, zero, 0x8000ca18
0x8000ca18: 00 00 57 37 lui	a4, 5
0x8000ca1c: ff ff e7 b7 lui	a5, 1048574
0x8000ca20: 19 07 07 13 addi	a4, a4, 400
0x8000ca24: 00 f7 07 33 add	a4, a4, a5
0x8000ca28: 01 01 07 93 addi	a5, sp, 16
0x8000ca2c: 00 f7 07 b3 add	a5, a4, a5
0x8000ca30: 80 00 07 37 lui	a4, 524288
0x8000ca34: c2 07 a0 23 sw	zero, -992(a5)
0x8000ca38: ff f7 47 13 xori	a4, a4, -1
0x8000ca3c: c2 e7 a2 23 sw	a4, -988(a5)
0x8000ca40: c2 07 a7 03 lw	a4, -992(a5)
0x8000ca44: 00 07 18 63 bne	a4, zero, 0x8000ca54
0x8000ca48: c2 47 a7 03 lw	a4, -988(a5)
0x8000ca4c: 00 07 14 63 bne	a4, zero, 0x8000ca54
0x8000ca54: 00 00 57 37 lui	a4, 5
0x8000ca58: ff ff e7 b7 lui	a5, 1048574
0x8000ca5c: 19 07 07 13 addi	a4, a4, 400
0x8000ca60: 00 f7 07 33 add	a4, a4, a5
0x8000ca64: 01 01 07 93 addi	a5, sp, 16
0x8000ca68: 00 f7 07 b3 add	a5, a4, a5
0x8000ca6c: 00 10 07 13 addi	a4, zero, 1
0x8000ca70: c2 e7 a4 23 sw	a4, -984(a5)
0x8000ca74: c2 e7 a6 23 sw	a4, -980(a5)
0x8000ca78: c2 87 a7 03 lw	a4, -984(a5)
0x8000ca7c: 00 07 18 63 bne	a4, zero, 0x8000ca8c
0x8000ca8c: 00 00 57 37 lui	a4, 5
0x8000ca90: ff ff e7 b7 lui	a5, 1048574
0x8000ca94: 19 07 07 13 addi	a4, a4, 400
0x8000ca98: 00 f7 07 33 add	a4, a4, a5
0x8000ca9c: 01 01 07 93 addi	a5, sp, 16
0x8000caa0: 00 f7 07 b3 add	a5, a4, a5
0x8000caa4: 00 10 07 13 addi	a4, zero, 1
0x8000caa8: c2 e7 a8 23 sw	a4, -976(a5)
0x8000caac: 00 20 07 13 addi	a4, zero, 2
0x8000cab0: c2 e7 aa 23 sw	a4, -972(a5)
0x8000cab4: c3 07 a7 03 lw	a4, -976(a5)
0x8000cab8: 00 07 18 63 bne	a4, zero, 0x8000cac8
0x8000cac8: 00 00 57 37 lui	a4, 5
0x8000cacc: ff ff e7 b7 lui	a5, 1048574
0x8000cad0: 19 07 07 13 addi	a4, a4, 400
0x8000cad4: 00 f7 07 33 add	a4, a4, a5
0x8000cad8: 01 01 07 93 addi	a5, sp, 16
0x8000cadc: 00 f7 07 b3 add	a5, a4, a5
0x8000cae0: 00 10 07 13 addi	a4, zero, 1
0x8000cae4: c2 e7 ac 23 sw	a4, -968(a5)
0x8000cae8: 80 00 07 37 lui	a4, 524288
0x8000caec: ff e7 47 13 xori	a4, a4, -2
0x8000caf0: c2 e7 ae 23 sw	a4, -964(a5)
0x8000caf4: c3 87 a7 03 lw	a4, -968(a5)
0x8000caf8: 00 07 18 63 bne	a4, zero, 0x8000cb08
0x8000cb08: 00 00 57 37 lui	a4, 5
0x8000cb0c: ff ff e7 b7 lui	a5, 1048574
0x8000cb10: 19 07 07 13 addi	a4, a4, 400
0x8000cb14: 00 f7 07 33 add	a4, a4, a5
0x8000cb18: 01 01 07 93 addi	a5, sp, 16
0x8000cb1c: 00 f7 07 b3 add	a5, a4, a5
0x8000cb20: 00 10 07 13 addi	a4, zero, 1
0x8000cb24: c4 e7 a0 23 sw	a4, -960(a5)
0x8000cb28: 80 00 07 37 lui	a4, 524288
0x8000cb2c: ff f7 47 13 xori	a4, a4, -1
0x8000cb30: c4 e7 a2 23 sw	a4, -956(a5)
0x8000cb34: c4 07 a7 03 lw	a4, -960(a5)
0x8000cb38: 00 07 18 63 bne	a4, zero, 0x8000cb48
0x8000cb48: 00 00 57 37 lui	a4, 5
0x8000cb4c: ff ff e7 b7 lui	a5, 1048574
0x8000cb50: 19 07 07 13 addi	a4, a4, 400
0x8000cb54: 00 f7 07 33 add	a4, a4, a5
0x8000cb58: 01 01 07 93 addi	a5, sp, 16
0x8000cb5c: 00 f7 07 b3 add	a5, a4, a5
0x8000cb60: 00 20 07 13 addi	a4, zero, 2
0x8000cb64: c4 e7 a4 23 sw	a4, -952(a5)
0x8000cb68: c4 e7 a6 23 sw	a4, -948(a5)
0x8000cb6c: c4 87 a7 03 lw	a4, -952(a5)
0x8000cb70: 00 07 18 63 bne	a4, zero, 0x8000cb80
0x8000cb80: 00 00 57 37 lui	a4, 5
0x8000cb84: ff ff e7 b7 lui	a5, 1048574
0x8000cb88: 19 07 07 13 addi	a4, a4, 400
0x8000cb8c: 00 f7 07 33 add	a4, a4, a5
0x8000cb90: 01 01 07 93 addi	a5, sp, 16
0x8000cb94: 00 f7 07 b3 add	a5, a4, a5
0x8000cb98: 00 20 07 13 addi	a4, zero, 2
0x8000cb9c: c4 e7 a8 23 sw	a4, -944(a5)
0x8000cba0: 80 00 07 37 lui	a4, 524288
0x8000cba4: ff e7 47 13 xori	a4, a4, -2
0x8000cba8: c4 e7 aa 23 sw	a4, -940(a5)
0x8000cbac: c5 07 a7 03 lw	a4, -944(a5)
0x8000cbb0: 00 07 18 63 bne	a4, zero, 0x8000cbc0
0x8000cbc0: 00 00 57 37 lui	a4, 5
0x8000cbc4: ff ff e7 b7 lui	a5, 1048574
0x8000cbc8: 19 07 07 13 addi	a4, a4, 400
0x8000cbcc: 00 f7 07 33 add	a4, a4, a5
0x8000cbd0: 01 01 07 93 addi	a5, sp, 16
0x8000cbd4: 00 f7 07 b3 add	a5, a4, a5
0x8000cbd8: 00 20 07 13 addi	a4, zero, 2
0x8000cbdc: c4 e7 ac 23 sw	a4, -936(a5)
0x8000cbe0: 80 00 07 37 lui	a4, 524288
0x8000cbe4: ff f7 47 13 xori	a4, a4, -1
0x8000cbe8: c4 e7 ae 23 sw	a4, -932(a5)
0x8000cbec: c5 87 a7 03 lw	a4, -936(a5)
0x8000cbf0: 00 07 18 63 bne	a4, zero, 0x8000cc00
0x8000cc00: 00 00 57 37 lui	a4, 5
0x8000cc04: ff ff e7 b7 lui	a5, 1048574
0x8000cc08: 19 07 07 13 addi	a4, a4, 400
0x8000cc0c: 00 f7 07 33 add	a4, a4, a5
0x8000cc10: 01 01 07 93 addi	a5, sp, 16
0x8000cc14: 00 f7 07 b3 add	a5, a4, a5
0x8000cc18: 80 00 07 37 lui	a4, 524288
0x8000cc1c: ff e7 47 13 xori	a4, a4, -2
0x8000cc20: c6 e7 a0 23 sw	a4, -928(a5)
0x8000cc24: c6 e7 a2 23 sw	a4, -924(a5)
0x8000cc28: c6 07 a7 03 lw	a4, -928(a5)
0x8000cc2c: 00 07 18 63 bne	a4, zero, 0x8000cc3c
0x8000cc3c: 00 00 56 b7 lui	a3, 5
0x8000cc40: ff ff e7 b7 lui	a5, 1048574
0x8000cc44: 19 06 86 93 addi	a3, a3, 400
0x8000cc48: 00 f6 86 b3 add	a3, a3, a5
0x8000cc4c: 80 00 07 37 lui	a4, 524288
0x8000cc50: 01 01 07 93 addi	a5, sp, 16
0x8000cc54: 00 f6 87 b3 add	a5, a3, a5
0x8000cc58: ff e7 46 93 xori	a3, a4, -2
0x8000cc5c: c6 d7 a4 23 sw	a3, -920(a5)
0x8000cc60: ff f7 47 13 xori	a4, a4, -1
0x8000cc64: c6 e7 a6 23 sw	a4, -916(a5)
0x8000cc68: c6 87 a7 03 lw	a4, -920(a5)
0x8000cc6c: 00 07 18 63 bne	a4, zero, 0x8000cc7c
0x8000cc7c: 00 00 57 37 lui	a4, 5
0x8000cc80: ff ff e7 b7 lui	a5, 1048574
0x8000cc84: 19 07 07 13 addi	a4, a4, 400
0x8000cc88: 00 f7 07 33 add	a4, a4, a5
0x8000cc8c: 01 01 07 93 addi	a5, sp, 16
0x8000cc90: 00 f7 07 b3 add	a5, a4, a5
0x8000cc94: 80 00 07 37 lui	a4, 524288
0x8000cc98: ff f7 47 13 xori	a4, a4, -1
0x8000cc9c: c6 e7 a8 23 sw	a4, -912(a5)
0x8000cca0: c6 e7 aa 23 sw	a4, -908(a5)
0x8000cca4: c7 07 a7 03 lw	a4, -912(a5)
0x8000cca8: 00 07 18 63 bne	a4, zero, 0x8000ccb8
0x8000ccb8: 00 00 57 37 lui	a4, 5
0x8000ccbc: ff ff e7 b7 lui	a5, 1048574
0x8000ccc0: 19 07 07 13 addi	a4, a4, 400
0x8000ccc4: 00 f7 07 33 add	a4, a4, a5
0x8000ccc8: 01 01 07 93 addi	a5, sp, 16
0x8000cccc: 00 f7 07 b3 add	a5, a4, a5
0x8000ccd0: 80 00 07 37 lui	a4, 524288
0x8000ccd4: c6 e7 ac 23 sw	a4, -904(a5)
0x8000ccd8: c6 e7 ae 23 sw	a4, -900(a5)
0x8000ccdc: c7 87 a6 83 lw	a3, -904(a5)
0x8000cce0: c7 c7 a7 03 lw	a4, -900(a5)
0x8000cce4: 06 d7 5c 63 bge	a4, a3, 0x8000cd5c
0x8000cd5c: 00 00 57 37 lui	a4, 5
0x8000cd60: ff ff e7 b7 lui	a5, 1048574
0x8000cd64: 19 07 07 13 addi	a4, a4, 400
0x8000cd68: 00 f7 07 33 add	a4, a4, a5
0x8000cd6c: 01 01 07 93 addi	a5, sp, 16
0x8000cd70: 00 f7 07 b3 add	a5, a4, a5
0x8000cd74: 80 00 07 37 lui	a4, 524288
0x8000cd78: c8 e7 a0 23 sw	a4, -896(a5)
0x8000cd7c: 00 17 07 13 addi	a4, a4, 1
0x8000cd80: c8 e7 a2 23 sw	a4, -892(a5)
0x8000cd84: c8 07 a6 83 lw	a3, -896(a5)
0x8000cd88: c8 47 a7 03 lw	a4, -892(a5)
0x8000cd8c: 06 d7 5e 63 bge	a4, a3, 0x8000ce08
0x8000ce08: 00 00 57 37 lui	a4, 5
0x8000ce0c: ff ff e7 b7 lui	a5, 1048574
0x8000ce10: 19 07 07 13 addi	a4, a4, 400
0x8000ce14: 00 f7 07 33 add	a4, a4, a5
0x8000ce18: 01 01 07 93 addi	a5, sp, 16
0x8000ce1c: 00 f7 07 b3 add	a5, a4, a5
0x8000ce20: 80 00 07 37 lui	a4, 524288
0x8000ce24: c8 e7 a4 23 sw	a4, -888(a5)
0x8000ce28: ff e0 07 13 addi	a4, zero, -2
0x8000ce2c: c8 e7 a6 23 sw	a4, -884(a5)
0x8000ce30: c8 87 a6 83 lw	a3, -888(a5)
0x8000ce34: c8 c7 a7 03 lw	a4, -884(a5)
0x8000ce38: 06 d7 5c 63 bge	a4, a3, 0x8000ceb0
0x8000ceb0: 00 00 57 37 lui	a4, 5
0x8000ceb4: ff ff e7 b7 lui	a5, 1048574
0x8000ceb8: 19 07 07 13 addi	a4, a4, 400
0x8000cebc: 00 f7 07 33 add	a4, a4, a5
0x8000cec0: 01 01 07 93 addi	a5, sp, 16
0x8000cec4: 00 f7 07 b3 add	a5, a4, a5
0x8000cec8: 80 00 07 37 lui	a4, 524288
0x8000cecc: c8 e7 a8 23 sw	a4, -880(a5)
0x8000ced0: ff f0 07 13 addi	a4, zero, -1
0x8000ced4: c8 e7 aa 23 sw	a4, -876(a5)
0x8000ced8: c9 07 a6 83 lw	a3, -880(a5)
0x8000cedc: c9 47 a7 03 lw	a4, -876(a5)
0x8000cee0: 06 d7 5c 63 bge	a4, a3, 0x8000cf58
0x8000cf58: 00 00 57 37 lui	a4, 5
0x8000cf5c: ff ff e7 b7 lui	a5, 1048574
0x8000cf60: 19 07 07 13 addi	a4, a4, 400
0x8000cf64: 00 f7 07 33 add	a4, a4, a5
0x8000cf68: 01 01 07 93 addi	a5, sp, 16
0x8000cf6c: 00 f7 07 b3 add	a5, a4, a5
0x8000cf70: 80 00 07 37 lui	a4, 524288
0x8000cf74: c8 e7 ac 23 sw	a4, -872(a5)
0x8000cf78: c8 07 ae 23 sw	zero, -868(a5)
0x8000cf7c: c9 87 a6 83 lw	a3, -872(a5)
0x8000cf80: c9 c7 a7 03 lw	a4, -868(a5)
0x8000cf84: 06 d7 5c 63 bge	a4, a3, 0x8000cffc
0x8000cffc: 00 00 57 37 lui	a4, 5
0x8000d000: ff ff e7 b7 lui	a5, 1048574
0x8000d004: 19 07 07 13 addi	a4, a4, 400
0x8000d008: 00 f7 07 33 add	a4, a4, a5
0x8000d00c: 01 01 07 93 addi	a5, sp, 16
0x8000d010: 00 f7 07 b3 add	a5, a4, a5
0x8000d014: 80 00 07 37 lui	a4, 524288
0x8000d018: ca e7 a0 23 sw	a4, -864(a5)
0x8000d01c: 00 10 07 13 addi	a4, zero, 1
0x8000d020: ca e7 a2 23 sw	a4, -860(a5)
0x8000d024: ca 07 a6 83 lw	a3, -864(a5)
0x8000d028: ca 47 a7 03 lw	a4, -860(a5)
0x8000d02c: 06 d7 5c 63 bge	a4, a3, 0x8000d0a4
0x8000d0a4: 00 00 57 37 lui	a4, 5
0x8000d0a8: ff ff e7 b7 lui	a5, 1048574
0x8000d0ac: 19 07 07 13 addi	a4, a4, 400
0x8000d0b0: 00 f7 07 33 add	a4, a4, a5
0x8000d0b4: 01 01 07 93 addi	a5, sp, 16
0x8000d0b8: 00 f7 07 b3 add	a5, a4, a5
0x8000d0bc: 80 00 07 37 lui	a4, 524288
0x8000d0c0: ca e7 a4 23 sw	a4, -856(a5)
0x8000d0c4: 00 20 07 13 addi	a4, zero, 2
0x8000d0c8: ca e7 a6 23 sw	a4, -852(a5)
0x8000d0cc: ca 87 a6 83 lw	a3, -856(a5)
0x8000d0d0: ca c7 a7 03 lw	a4, -852(a5)
0x8000d0d4: 06 d7 5c 63 bge	a4, a3, 0x8000d14c
0x8000d14c: 00 00 57 37 lui	a4, 5
0x8000d150: ff ff e7 b7 lui	a5, 1048574
0x8000d154: 19 07 07 13 addi	a4, a4, 400
0x8000d158: 00 f7 07 33 add	a4, a4, a5
0x8000d15c: 01 01 07 93 addi	a5, sp, 16
0x8000d160: 00 f7 07 b3 add	a5, a4, a5
0x8000d164: 80 00 07 37 lui	a4, 524288
0x8000d168: ca e7 a8 23 sw	a4, -848(a5)
0x8000d16c: ff e7 47 13 xori	a4, a4, -2
0x8000d170: ca e7 aa 23 sw	a4, -844(a5)
0x8000d174: cb 07 a6 83 lw	a3, -848(a5)
0x8000d178: cb 47 a7 03 lw	a4, -844(a5)
0x8000d17c: 06 d7 5e 63 bge	a4, a3, 0x8000d1f8
0x8000d1f8: 00 00 57 37 lui	a4, 5
0x8000d1fc: ff ff e7 b7 lui	a5, 1048574
0x8000d200: 19 07 07 13 addi	a4, a4, 400
0x8000d204: 00 f7 07 33 add	a4, a4, a5
0x8000d208: 01 01 07 93 addi	a5, sp, 16
0x8000d20c: 00 f7 07 b3 add	a5, a4, a5
0x8000d210: 80 00 07 37 lui	a4, 524288
0x8000d214: ca e7 ac 23 sw	a4, -840(a5)
0x8000d218: ff f7 47 13 xori	a4, a4, -1
0x8000d21c: ca e7 ae 23 sw	a4, -836(a5)
0x8000d220: cb 87 a6 83 lw	a3, -840(a5)
0x8000d224: cb c7 a7 03 lw	a4, -836(a5)
0x8000d228: 06 d7 5e 63 bge	a4, a3, 0x8000d2a4
0x8000d2a4: 00 00 57 37 lui	a4, 5
0x8000d2a8: ff ff e7 b7 lui	a5, 1048574
0x8000d2ac: 19 07 07 13 addi	a4, a4, 400
0x8000d2b0: 00 f7 07 33 add	a4, a4, a5
0x8000d2b4: 01 01 07 93 addi	a5, sp, 16
0x8000d2b8: 00 f7 07 b3 add	a5, a4, a5
0x8000d2bc: 80 00 07 37 lui	a4, 524288
0x8000d2c0: 00 17 07 13 addi	a4, a4, 1
0x8000d2c4: cc e7 a0 23 sw	a4, -832(a5)
0x8000d2c8: cc e7 a2 23 sw	a4, -828(a5)
0x8000d2cc: cc 07 a6 83 lw	a3, -832(a5)
0x8000d2d0: cc 47 a7 03 lw	a4, -828(a5)
0x8000d2d4: 06 d7 5e 63 bge	a4, a3, 0x8000d350
0x8000d350: 00 00 57 37 lui	a4, 5
0x8000d354: ff ff e7 b7 lui	a5, 1048574
0x8000d358: 19 07 07 13 addi	a4, a4, 400
0x8000d35c: 00 f7 07 33 add	a4, a4, a5
0x8000d360: 01 01 07 93 addi	a5, sp, 16
0x8000d364: 00 f7 07 b3 add	a5, a4, a5
0x8000d368: 80 00 07 37 lui	a4, 524288
0x8000d36c: 00 17 07 13 addi	a4, a4, 1
0x8000d370: cc e7 a4 23 sw	a4, -824(a5)
0x8000d374: ff e0 07 13 addi	a4, zero, -2
0x8000d378: cc e7 a6 23 sw	a4, -820(a5)
0x8000d37c: cc 87 a6 83 lw	a3, -824(a5)
0x8000d380: cc c7 a7 03 lw	a4, -820(a5)
0x8000d384: 06 d7 5e 63 bge	a4, a3, 0x8000d400
0x8000d400: 00 00 57 37 lui	a4, 5
0x8000d404: ff ff e7 b7 lui	a5, 1048574
0x8000d408: 19 07 07 13 addi	a4, a4, 400
0x8000d40c: 00 f7 07 33 add	a4, a4, a5
0x8000d410: 01 01 07 93 addi	a5, sp, 16
0x8000d414: 00 f7 07 b3 add	a5, a4, a5
0x8000d418: 80 00 07 37 lui	a4, 524288
0x8000d41c: 00 17 07 13 addi	a4, a4, 1
0x8000d420: cc e7 a8 23 sw	a4, -816(a5)
0x8000d424: ff f0 07 13 addi	a4, zero, -1
0x8000d428: cc e7 aa 23 sw	a4, -812(a5)
0x8000d42c: cd 07 a6 83 lw	a3, -816(a5)
0x8000d430: cd 47 a7 03 lw	a4, -812(a5)
0x8000d434: 06 d7 5e 63 bge	a4, a3, 0x8000d4b0
0x8000d4b0: 00 00 57 37 lui	a4, 5
0x8000d4b4: ff ff e7 b7 lui	a5, 1048574
0x8000d4b8: 19 07 07 13 addi	a4, a4, 400
0x8000d4bc: 00 f7 07 33 add	a4, a4, a5
0x8000d4c0: 01 01 07 93 addi	a5, sp, 16
0x8000d4c4: 00 f7 07 b3 add	a5, a4, a5
0x8000d4c8: 80 00 07 37 lui	a4, 524288
0x8000d4cc: 00 17 07 13 addi	a4, a4, 1
0x8000d4d0: cc e7 ac 23 sw	a4, -808(a5)
0x8000d4d4: cc 07 ae 23 sw	zero, -804(a5)
0x8000d4d8: cd 87 a6 83 lw	a3, -808(a5)
0x8000d4dc: cd c7 a7 03 lw	a4, -804(a5)
0x8000d4e0: 06 d7 5e 63 bge	a4, a3, 0x8000d55c
0x8000d55c: 00 00 57 37 lui	a4, 5
0x8000d560: ff ff e7 b7 lui	a5, 1048574
0x8000d564: 19 07 07 13 addi	a4, a4, 400
0x8000d568: 00 f7 07 33 add	a4, a4, a5
0x8000d56c: 01 01 07 93 addi	a5, sp, 16
0x8000d570: 00 f7 07 b3 add	a5, a4, a5
0x8000d574: 80 00 07 37 lui	a4, 524288
0x8000d578: 00 17 07 13 addi	a4, a4, 1
0x8000d57c: ce e7 a0 23 sw	a4, -800(a5)
0x8000d580: 00 10 07 13 addi	a4, zero, 1
0x8000d584: ce e7 a2 23 sw	a4, -796(a5)
0x8000d588: ce 07 a6 83 lw	a3, -800(a5)
0x8000d58c: ce 47 a7 03 lw	a4, -796(a5)
0x8000d590: 06 d7 5e 63 bge	a4, a3, 0x8000d60c
0x8000d60c: 00 00 57 37 lui	a4, 5
0x8000d610: ff ff e7 b7 lui	a5, 1048574
0x8000d614: 19 07 07 13 addi	a4, a4, 400
0x8000d618: 00 f7 07 33 add	a4, a4, a5
0x8000d61c: 01 01 07 93 addi	a5, sp, 16
0x8000d620: 00 f7 07 b3 add	a5, a4, a5
0x8000d624: 80 00 07 37 lui	a4, 524288
0x8000d628: 00 17 07 13 addi	a4, a4, 1
0x8000d62c: ce e7 a4 23 sw	a4, -792(a5)
0x8000d630: 00 20 07 13 addi	a4, zero, 2
0x8000d634: ce e7 a6 23 sw	a4, -788(a5)
0x8000d638: ce 87 a6 83 lw	a3, -792(a5)
0x8000d63c: ce c7 a7 03 lw	a4, -788(a5)
0x8000d640: 06 d7 5e 63 bge	a4, a3, 0x8000d6bc
0x8000d6bc: 00 00 56 b7 lui	a3, 5
0x8000d6c0: ff ff e7 b7 lui	a5, 1048574
0x8000d6c4: 19 06 86 93 addi	a3, a3, 400
0x8000d6c8: 00 f6 86 b3 add	a3, a3, a5
0x8000d6cc: 80 00 07 37 lui	a4, 524288
0x8000d6d0: 01 01 07 93 addi	a5, sp, 16
0x8000d6d4: 00 f6 87 b3 add	a5, a3, a5
0x8000d6d8: 00 17 06 93 addi	a3, a4, 1
0x8000d6dc: ce d7 a8 23 sw	a3, -784(a5)
0x8000d6e0: ff e7 47 13 xori	a4, a4, -2
0x8000d6e4: ce e7 aa 23 sw	a4, -780(a5)
0x8000d6e8: cf 07 a6 83 lw	a3, -784(a5)
0x8000d6ec: cf 47 a7 03 lw	a4, -780(a5)
0x8000d6f0: 06 d7 5e 63 bge	a4, a3, 0x8000d76c
0x8000d76c: 00 00 56 b7 lui	a3, 5
0x8000d770: ff ff e7 b7 lui	a5, 1048574
0x8000d774: 19 06 86 93 addi	a3, a3, 400
0x8000d778: 00 f6 86 b3 add	a3, a3, a5
0x8000d77c: 80 00 07 37 lui	a4, 524288
0x8000d780: 01 01 07 93 addi	a5, sp, 16
0x8000d784: 00 f6 87 b3 add	a5, a3, a5
0x8000d788: 00 17 06 93 addi	a3, a4, 1
0x8000d78c: ce d7 ac 23 sw	a3, -776(a5)
0x8000d790: ff f7 47 13 xori	a4, a4, -1
0x8000d794: ce e7 ae 23 sw	a4, -772(a5)
0x8000d798: cf 87 a6 83 lw	a3, -776(a5)
0x8000d79c: cf c7 a7 03 lw	a4, -772(a5)
0x8000d7a0: 06 d7 5e 63 bge	a4, a3, 0x8000d81c
0x8000d81c: 00 00 57 37 lui	a4, 5
0x8000d820: ff ff e7 b7 lui	a5, 1048574
0x8000d824: 19 07 07 13 addi	a4, a4, 400
0x8000d828: 00 f7 07 33 add	a4, a4, a5
0x8000d82c: 01 01 07 93 addi	a5, sp, 16
0x8000d830: 00 f7 07 b3 add	a5, a4, a5
0x8000d834: ff e0 07 13 addi	a4, zero, -2
0x8000d838: d0 e7 a0 23 sw	a4, -768(a5)
0x8000d83c: d0 e7 a2 23 sw	a4, -764(a5)
0x8000d840: d0 07 a6 83 lw	a3, -768(a5)
0x8000d844: d0 47 a7 03 lw	a4, -764(a5)
0x8000d848: 06 d7 5c 63 bge	a4, a3, 0x8000d8c0
0x8000d8c0: 00 00 57 37 lui	a4, 5
0x8000d8c4: ff ff e7 b7 lui	a5, 1048574
0x8000d8c8: 19 07 07 13 addi	a4, a4, 400
0x8000d8cc: 00 f7 07 33 add	a4, a4, a5
0x8000d8d0: 01 01 07 93 addi	a5, sp, 16
0x8000d8d4: 00 f7 07 b3 add	a5, a4, a5
0x8000d8d8: ff e0 07 13 addi	a4, zero, -2
0x8000d8dc: d0 e7 a4 23 sw	a4, -760(a5)
0x8000d8e0: ff f0 07 13 addi	a4, zero, -1
0x8000d8e4: d0 e7 a6 23 sw	a4, -756(a5)
0x8000d8e8: d0 87 a6 83 lw	a3, -760(a5)
0x8000d8ec: d0 c7 a7 03 lw	a4, -756(a5)
0x8000d8f0: 06 d7 5c 63 bge	a4, a3, 0x8000d968
0x8000d968: 00 00 57 37 lui	a4, 5
0x8000d96c: ff ff e7 b7 lui	a5, 1048574
0x8000d970: 19 07 07 13 addi	a4, a4, 400
0x8000d974: 00 f7 07 33 add	a4, a4, a5
0x8000d978: 01 01 07 93 addi	a5, sp, 16
0x8000d97c: 00 f7 07 b3 add	a5, a4, a5
0x8000d980: ff e0 07 13 addi	a4, zero, -2
0x8000d984: d0 e7 a8 23 sw	a4, -752(a5)
0x8000d988: d0 07 aa 23 sw	zero, -748(a5)
0x8000d98c: d1 07 a6 83 lw	a3, -752(a5)
0x8000d990: d1 47 a7 03 lw	a4, -748(a5)
0x8000d994: 06 d7 5c 63 bge	a4, a3, 0x8000da0c
0x8000da0c: 00 00 57 37 lui	a4, 5
0x8000da10: ff ff e7 b7 lui	a5, 1048574
0x8000da14: 19 07 07 13 addi	a4, a4, 400
0x8000da18: 00 f7 07 33 add	a4, a4, a5
0x8000da1c: 01 01 07 93 addi	a5, sp, 16
0x8000da20: 00 f7 07 b3 add	a5, a4, a5
0x8000da24: ff e0 07 13 addi	a4, zero, -2
0x8000da28: d0 e7 ac 23 sw	a4, -744(a5)
0x8000da2c: 00 10 07 13 addi	a4, zero, 1
0x8000da30: d0 e7 ae 23 sw	a4, -740(a5)
0x8000da34: d1 87 a6 83 lw	a3, -744(a5)
0x8000da38: d1 c7 a7 03 lw	a4, -740(a5)
0x8000da3c: 06 d7 5c 63 bge	a4, a3, 0x8000dab4
0x8000dab4: 00 00 57 37 lui	a4, 5
0x8000dab8: ff ff e7 b7 lui	a5, 1048574
0x8000dabc: 19 07 07 13 addi	a4, a4, 400
0x8000dac0: 00 f7 07 33 add	a4, a4, a5
0x8000dac4: 01 01 07 93 addi	a5, sp, 16
0x8000dac8: 00 f7 07 b3 add	a5, a4, a5
0x8000dacc: ff e0 07 13 addi	a4, zero, -2
0x8000dad0: d2 e7 a0 23 sw	a4, -736(a5)
0x8000dad4: 00 20 07 13 addi	a4, zero, 2
0x8000dad8: d2 e7 a2 23 sw	a4, -732(a5)
0x8000dadc: d2 07 a6 83 lw	a3, -736(a5)
0x8000dae0: d2 47 a7 03 lw	a4, -732(a5)
0x8000dae4: 06 d7 5c 63 bge	a4, a3, 0x8000db5c
0x8000db5c: 00 00 57 37 lui	a4, 5
0x8000db60: ff ff e7 b7 lui	a5, 1048574
0x8000db64: 19 07 07 13 addi	a4, a4, 400
0x8000db68: 00 f7 07 33 add	a4, a4, a5
0x8000db6c: 01 01 07 93 addi	a5, sp, 16
0x8000db70: 00 f7 07 b3 add	a5, a4, a5
0x8000db74: ff e0 07 13 addi	a4, zero, -2
0x8000db78: d2 e7 a4 23 sw	a4, -728(a5)
0x8000db7c: 80 00 07 37 lui	a4, 524288
0x8000db80: ff e7 47 13 xori	a4, a4, -2
0x8000db84: d2 e7 a6 23 sw	a4, -724(a5)
0x8000db88: d2 87 a6 83 lw	a3, -728(a5)
0x8000db8c: d2 c7 a7 03 lw	a4, -724(a5)
0x8000db90: 06 d7 5e 63 bge	a4, a3, 0x8000dc0c
0x8000dc0c: 00 00 57 37 lui	a4, 5
0x8000dc10: ff ff e7 b7 lui	a5, 1048574
0x8000dc14: 19 07 07 13 addi	a4, a4, 400
0x8000dc18: 00 f7 07 33 add	a4, a4, a5
0x8000dc1c: 01 01 07 93 addi	a5, sp, 16
0x8000dc20: 00 f7 07 b3 add	a5, a4, a5
0x8000dc24: ff e0 07 13 addi	a4, zero, -2
0x8000dc28: d2 e7 a8 23 sw	a4, -720(a5)
0x8000dc2c: 80 00 07 37 lui	a4, 524288
0x8000dc30: ff f7 47 13 xori	a4, a4, -1
0x8000dc34: d2 e7 aa 23 sw	a4, -716(a5)
0x8000dc38: d3 07 a6 83 lw	a3, -720(a5)
0x8000dc3c: d3 47 a7 03 lw	a4, -716(a5)
0x8000dc40: 06 d7 5e 63 bge	a4, a3, 0x8000dcbc
0x8000dcbc: 00 00 57 37 lui	a4, 5
0x8000dcc0: ff ff e7 b7 lui	a5, 1048574
0x8000dcc4: 19 07 07 13 addi	a4, a4, 400
0x8000dcc8: 00 f7 07 33 add	a4, a4, a5
0x8000dccc: 01 01 07 93 addi	a5, sp, 16
0x8000dcd0: 00 f7 07 b3 add	a5, a4, a5
0x8000dcd4: ff f0 07 13 addi	a4, zero, -1
0x8000dcd8: d2 e7 ac 23 sw	a4, -712(a5)
0x8000dcdc: d2 e7 ae 23 sw	a4, -708(a5)
0x8000dce0: d3 87 a6 83 lw	a3, -712(a5)
0x8000dce4: d3 c7 a7 03 lw	a4, -708(a5)
0x8000dce8: 06 d7 5c 63 bge	a4, a3, 0x8000dd60
0x8000dd60: 00 00 57 37 lui	a4, 5
0x8000dd64: ff ff e7 b7 lui	a5, 1048574
0x8000dd68: 19 07 07 13 addi	a4, a4, 400
0x8000dd6c: 00 f7 07 33 add	a4, a4, a5
0x8000dd70: 01 01 07 93 addi	a5, sp, 16
0x8000dd74: 00 f7 07 b3 add	a5, a4, a5
0x8000dd78: ff f0 07 13 addi	a4, zero, -1
0x8000dd7c: d4 e7 a0 23 sw	a4, -704(a5)
0x8000dd80: d4 07 a2 23 sw	zero, -700(a5)
0x8000dd84: d4 07 a6 83 lw	a3, -704(a5)
0x8000dd88: d4 47 a7 03 lw	a4, -700(a5)
0x8000dd8c: 06 d7 5c 63 bge	a4, a3, 0x8000de04
0x8000de04: 00 00 57 37 lui	a4, 5
0x8000de08: ff ff e7 b7 lui	a5, 1048574
0x8000de0c: 19 07 07 13 addi	a4, a4, 400
0x8000de10: 00 f7 07 33 add	a4, a4, a5
0x8000de14: 01 01 07 93 addi	a5, sp, 16
0x8000de18: 00 f7 07 b3 add	a5, a4, a5
0x8000de1c: ff f0 07 13 addi	a4, zero, -1
0x8000de20: d4 e7 a4 23 sw	a4, -696(a5)
0x8000de24: 00 10 07 13 addi	a4, zero, 1
0x8000de28: d4 e7 a6 23 sw	a4, -692(a5)
0x8000de2c: d4 87 a6 83 lw	a3, -696(a5)
0x8000de30: d4 c7 a7 03 lw	a4, -692(a5)
0x8000de34: 06 d7 5c 63 bge	a4, a3, 0x8000deac
0x8000deac: 00 00 57 37 lui	a4, 5
0x8000deb0: ff ff e7 b7 lui	a5, 1048574
0x8000deb4: 19 07 07 13 addi	a4, a4, 400
0x8000deb8: 00 f7 07 33 add	a4, a4, a5
0x8000debc: 01 01 07 93 addi	a5, sp, 16
0x8000dec0: 00 f7 07 b3 add	a5, a4, a5
0x8000dec4: ff f0 07 13 addi	a4, zero, -1
0x8000dec8: d4 e7 a8 23 sw	a4, -688(a5)
0x8000decc: 00 20 07 13 addi	a4, zero, 2
0x8000ded0: d4 e7 aa 23 sw	a4, -684(a5)
0x8000ded4: d5 07 a6 83 lw	a3, -688(a5)
0x8000ded8: d5 47 a7 03 lw	a4, -684(a5)
0x8000dedc: 06 d7 5c 63 bge	a4, a3, 0x8000df54
0x8000df54: 00 00 57 37 lui	a4, 5
0x8000df58: ff ff e7 b7 lui	a5, 1048574
0x8000df5c: 19 07 07 13 addi	a4, a4, 400
0x8000df60: 00 f7 07 33 add	a4, a4, a5
0x8000df64: 01 01 07 93 addi	a5, sp, 16
0x8000df68: 00 f7 07 b3 add	a5, a4, a5
0x8000df6c: ff f0 07 13 addi	a4, zero, -1
0x8000df70: d4 e7 ac 23 sw	a4, -680(a5)
0x8000df74: 80 00 07 37 lui	a4, 524288
0x8000df78: ff e7 47 13 xori	a4, a4, -2
0x8000df7c: d4 e7 ae 23 sw	a4, -676(a5)
0x8000df80: d5 87 a6 83 lw	a3, -680(a5)
0x8000df84: d5 c7 a7 03 lw	a4, -676(a5)
0x8000df88: 06 d7 5e 63 bge	a4, a3, 0x8000e004
0x8000e004: 00 00 57 37 lui	a4, 5
0x8000e008: ff ff e7 b7 lui	a5, 1048574
0x8000e00c: 19 07 07 13 addi	a4, a4, 400
0x8000e010: 00 f7 07 33 add	a4, a4, a5
0x8000e014: 01 01 07 93 addi	a5, sp, 16
0x8000e018: 00 f7 07 b3 add	a5, a4, a5
0x8000e01c: ff f0 07 13 addi	a4, zero, -1
0x8000e020: d6 e7 a0 23 sw	a4, -672(a5)
0x8000e024: 80 00 07 37 lui	a4, 524288
0x8000e028: ff f7 47 13 xori	a4, a4, -1
0x8000e02c: d6 e7 a2 23 sw	a4, -668(a5)
0x8000e030: d6 07 a6 83 lw	a3, -672(a5)
0x8000e034: d6 47 a7 03 lw	a4, -668(a5)
0x8000e038: 06 d7 5e 63 bge	a4, a3, 0x8000e0b4
0x8000e0b4: 00 00 57 37 lui	a4, 5
0x8000e0b8: ff ff e7 b7 lui	a5, 1048574
0x8000e0bc: 19 07 07 13 addi	a4, a4, 400
0x8000e0c0: 00 f7 07 33 add	a4, a4, a5
0x8000e0c4: 01 01 07 93 addi	a5, sp, 16
0x8000e0c8: 00 f7 07 b3 add	a5, a4, a5
0x8000e0cc: d6 07 a4 23 sw	zero, -664(a5)
0x8000e0d0: d6 07 a6 23 sw	zero, -660(a5)
0x8000e0d4: d6 87 a6 83 lw	a3, -664(a5)
0x8000e0d8: d6 c7 a7 03 lw	a4, -660(a5)
0x8000e0dc: 06 d7 5c 63 bge	a4, a3, 0x8000e154
0x8000e154: 00 00 57 37 lui	a4, 5
0x8000e158: ff ff e7 b7 lui	a5, 1048574
0x8000e15c: 19 07 07 13 addi	a4, a4, 400
0x8000e160: 00 f7 07 33 add	a4, a4, a5
0x8000e164: 01 01 07 93 addi	a5, sp, 16
0x8000e168: 00 f7 07 b3 add	a5, a4, a5
0x8000e16c: d6 07 a8 23 sw	zero, -656(a5)
0x8000e170: 00 10 07 13 addi	a4, zero, 1
0x8000e174: d6 e7 aa 23 sw	a4, -652(a5)
0x8000e178: d7 07 a6 83 lw	a3, -656(a5)
0x8000e17c: d7 47 a7 03 lw	a4, -652(a5)
0x8000e180: 06 d7 5c 63 bge	a4, a3, 0x8000e1f8
0x8000e1f8: 00 00 57 37 lui	a4, 5
0x8000e1fc: ff ff e7 b7 lui	a5, 1048574
0x8000e200: 19 07 07 13 addi	a4, a4, 400
0x8000e204: 00 f7 07 33 add	a4, a4, a5
0x8000e208: 01 01 07 93 addi	a5, sp, 16
0x8000e20c: 00 f7 07 b3 add	a5, a4, a5
0x8000e210: d6 07 ac 23 sw	zero, -648(a5)
0x8000e214: 00 20 07 13 addi	a4, zero, 2
0x8000e218: d6 e7 ae 23 sw	a4, -644(a5)
0x8000e21c: d7 87 a6 83 lw	a3, -648(a5)
0x8000e220: d7 c7 a7 03 lw	a4, -644(a5)
0x8000e224: 06 d7 5c 63 bge	a4, a3, 0x8000e29c
0x8000e29c: 00 00 57 37 lui	a4, 5
0x8000e2a0: ff ff e7 b7 lui	a5, 1048574
0x8000e2a4: 19 07 07 13 addi	a4, a4, 400
0x8000e2a8: 00 f7 07 33 add	a4, a4, a5
0x8000e2ac: 01 01 07 93 addi	a5, sp, 16
0x8000e2b0: 00 f7 07 b3 add	a5, a4, a5
0x8000e2b4: 80 00 07 37 lui	a4, 524288
0x8000e2b8: d8 07 a0 23 sw	zero, -640(a5)
0x8000e2bc: ff e7 47 13 xori	a4, a4, -2
0x8000e2c0: d8 e7 a2 23 sw	a4, -636(a5)
0x8000e2c4: d8 07 a6 83 lw	a3, -640(a5)
0x8000e2c8: d8 47 a7 03 lw	a4, -636(a5)
0x8000e2cc: 06 d7 5e 63 bge	a4, a3, 0x8000e348
0x8000e348: 00 00 57 37 lui	a4, 5
0x8000e34c: ff ff e7 b7 lui	a5, 1048574
0x8000e350: 19 07 07 13 addi	a4, a4, 400
0x8000e354: 00 f7 07 33 add	a4, a4, a5
0x8000e358: 01 01 07 93 addi	a5, sp, 16
0x8000e35c: 00 f7 07 b3 add	a5, a4, a5
0x8000e360: 80 00 07 37 lui	a4, 524288
0x8000e364: d8 07 a4 23 sw	zero, -632(a5)
0x8000e368: ff f7 47 13 xori	a4, a4, -1
0x8000e36c: d8 e7 a6 23 sw	a4, -628(a5)
0x8000e370: d8 87 a6 83 lw	a3, -632(a5)
0x8000e374: d8 c7 a7 03 lw	a4, -628(a5)
0x8000e378: 06 d7 5e 63 bge	a4, a3, 0x8000e3f4
0x8000e3f4: 00 00 57 37 lui	a4, 5
0x8000e3f8: ff ff e7 b7 lui	a5, 1048574
0x8000e3fc: 19 07 07 13 addi	a4, a4, 400
0x8000e400: 00 f7 07 33 add	a4, a4, a5
0x8000e404: 01 01 07 93 addi	a5, sp, 16
0x8000e408: 00 f7 07 b3 add	a5, a4, a5
0x8000e40c: 00 10 07 13 addi	a4, zero, 1
0x8000e410: d8 e7 a8 23 sw	a4, -624(a5)
0x8000e414: d8 e7 aa 23 sw	a4, -620(a5)
0x8000e418: d9 07 a6 83 lw	a3, -624(a5)
0x8000e41c: d9 47 a7 03 lw	a4, -620(a5)
0x8000e420: 06 d7 5c 63 bge	a4, a3, 0x8000e498
0x8000e498: 00 00 57 37 lui	a4, 5
0x8000e49c: ff ff e7 b7 lui	a5, 1048574
0x8000e4a0: 19 07 07 13 addi	a4, a4, 400
0x8000e4a4: 00 f7 07 33 add	a4, a4, a5
0x8000e4a8: 01 01 07 93 addi	a5, sp, 16
0x8000e4ac: 00 f7 07 b3 add	a5, a4, a5
0x8000e4b0: 00 10 07 13 addi	a4, zero, 1
0x8000e4b4: d8 e7 ac 23 sw	a4, -616(a5)
0x8000e4b8: 00 20 07 13 addi	a4, zero, 2
0x8000e4bc: d8 e7 ae 23 sw	a4, -612(a5)
0x8000e4c0: d9 87 a6 83 lw	a3, -616(a5)
0x8000e4c4: d9 c7 a7 03 lw	a4, -612(a5)
0x8000e4c8: 06 d7 5c 63 bge	a4, a3, 0x8000e540
0x8000e540: 00 00 57 37 lui	a4, 5
0x8000e544: ff ff e7 b7 lui	a5, 1048574
0x8000e548: 19 07 07 13 addi	a4, a4, 400
0x8000e54c: 00 f7 07 33 add	a4, a4, a5
0x8000e550: 01 01 07 93 addi	a5, sp, 16
0x8000e554: 00 f7 07 b3 add	a5, a4, a5
0x8000e558: 00 10 07 13 addi	a4, zero, 1
0x8000e55c: da e7 a0 23 sw	a4, -608(a5)
0x8000e560: 80 00 07 37 lui	a4, 524288
0x8000e564: ff e7 47 13 xori	a4, a4, -2
0x8000e568: da e7 a2 23 sw	a4, -604(a5)
0x8000e56c: da 07 a6 83 lw	a3, -608(a5)
0x8000e570: da 47 a7 03 lw	a4, -604(a5)
0x8000e574: 06 d7 5e 63 bge	a4, a3, 0x8000e5f0
0x8000e5f0: 00 00 57 37 lui	a4, 5
0x8000e5f4: ff ff e7 b7 lui	a5, 1048574
0x8000e5f8: 19 07 07 13 addi	a4, a4, 400
0x8000e5fc: 00 f7 07 33 add	a4, a4, a5
0x8000e600: 01 01 07 93 addi	a5, sp, 16
0x8000e604: 00 f7 07 b3 add	a5, a4, a5
0x8000e608: 00 10 07 13 addi	a4, zero, 1
0x8000e60c: da e7 a4 23 sw	a4, -600(a5)
0x8000e610: 80 00 07 37 lui	a4, 524288
0x8000e614: ff f7 47 13 xori	a4, a4, -1
0x8000e618: da e7 a6 23 sw	a4, -596(a5)
0x8000e61c: da 87 a6 83 lw	a3, -600(a5)
0x8000e620: da c7 a7 03 lw	a4, -596(a5)
0x8000e624: 06 d7 5e 63 bge	a4, a3, 0x8000e6a0
0x8000e6a0: 00 00 57 37 lui	a4, 5
0x8000e6a4: ff ff e7 b7 lui	a5, 1048574
0x8000e6a8: 19 07 07 13 addi	a4, a4, 400
0x8000e6ac: 00 f7 07 33 add	a4, a4, a5
0x8000e6b0: 01 01 07 93 addi	a5, sp, 16
0x8000e6b4: 00 f7 07 b3 add	a5, a4, a5
0x8000e6b8: 00 20 07 13 addi	a4, zero, 2
0x8000e6bc: da e7 a8 23 sw	a4, -592(a5)
0x8000e6c0: da e7 aa 23 sw	a4, -588(a5)
0x8000e6c4: db 07 a6 83 lw	a3, -592(a5)
0x8000e6c8: db 47 a7 03 lw	a4, -588(a5)
0x8000e6cc: 06 d7 5c 63 bge	a4, a3, 0x8000e744
0x8000e744: 00 00 57 37 lui	a4, 5
0x8000e748: ff ff e7 b7 lui	a5, 1048574
0x8000e74c: 19 07 07 13 addi	a4, a4, 400
0x8000e750: 00 f7 07 33 add	a4, a4, a5
0x8000e754: 01 01 07 93 addi	a5, sp, 16
0x8000e758: 00 f7 07 b3 add	a5, a4, a5
0x8000e75c: 00 20 07 13 addi	a4, zero, 2
0x8000e760: da e7 ac 23 sw	a4, -584(a5)
0x8000e764: 80 00 07 37 lui	a4, 524288
0x8000e768: ff e7 47 13 xori	a4, a4, -2
0x8000e76c: da e7 ae 23 sw	a4, -580(a5)
0x8000e770: db 87 a6 83 lw	a3, -584(a5)
0x8000e774: db c7 a7 03 lw	a4, -580(a5)
0x8000e778: 06 d7 5e 63 bge	a4, a3, 0x8000e7f4
0x8000e7f4: 00 00 57 37 lui	a4, 5
0x8000e7f8: ff ff e7 b7 lui	a5, 1048574
0x8000e7fc: 19 07 07 13 addi	a4, a4, 400
0x8000e800: 00 f7 07 33 add	a4, a4, a5
0x8000e804: 01 01 07 93 addi	a5, sp, 16
0x8000e808: 00 f7 07 b3 add	a5, a4, a5
0x8000e80c: 00 20 07 13 addi	a4, zero, 2
0x8000e810: dc e7 a0 23 sw	a4, -576(a5)
0x8000e814: 80 00 07 37 lui	a4, 524288
0x8000e818: ff f7 47 13 xori	a4, a4, -1
0x8000e81c: dc e7 a2 23 sw	a4, -572(a5)
0x8000e820: dc 07 a6 83 lw	a3, -576(a5)
0x8000e824: dc 47 a7 03 lw	a4, -572(a5)
0x8000e828: 06 d7 5e 63 bge	a4, a3, 0x8000e8a4
0x8000e8a4: 00 00 57 37 lui	a4, 5
0x8000e8a8: ff ff e7 b7 lui	a5, 1048574
0x8000e8ac: 19 07 07 13 addi	a4, a4, 400
0x8000e8b0: 00 f7 07 33 add	a4, a4, a5
0x8000e8b4: 01 01 07 93 addi	a5, sp, 16
0x8000e8b8: 00 f7 07 b3 add	a5, a4, a5
0x8000e8bc: 80 00 07 37 lui	a4, 524288
0x8000e8c0: ff e7 47 13 xori	a4, a4, -2
0x8000e8c4: dc e7 a4 23 sw	a4, -568(a5)
0x8000e8c8: dc e7 a6 23 sw	a4, -564(a5)
0x8000e8cc: dc 87 a6 83 lw	a3, -568(a5)
0x8000e8d0: dc c7 a7 03 lw	a4, -564(a5)
0x8000e8d4: 06 d7 5e 63 bge	a4, a3, 0x8000e950
0x8000e950: 00 00 56 b7 lui	a3, 5
0x8000e954: ff ff e7 b7 lui	a5, 1048574
0x8000e958: 19 06 86 93 addi	a3, a3, 400
0x8000e95c: 00 f6 86 b3 add	a3, a3, a5
0x8000e960: 80 00 07 37 lui	a4, 524288
0x8000e964: 01 01 07 93 addi	a5, sp, 16
0x8000e968: 00 f6 87 b3 add	a5, a3, a5
0x8000e96c: ff e7 46 93 xori	a3, a4, -2
0x8000e970: dc d7 a8 23 sw	a3, -560(a5)
0x8000e974: ff f7 47 13 xori	a4, a4, -1
0x8000e978: dc e7 aa 23 sw	a4, -556(a5)
0x8000e97c: dd 07 a6 83 lw	a3, -560(a5)
0x8000e980: dd 47 a7 03 lw	a4, -556(a5)
0x8000e984: 06 d7 5e 63 bge	a4, a3, 0x8000ea00
0x8000ea00: 00 00 57 37 lui	a4, 5
0x8000ea04: ff ff e7 b7 lui	a5, 1048574
0x8000ea08: 19 07 07 13 addi	a4, a4, 400
0x8000ea0c: 00 f7 07 33 add	a4, a4, a5
0x8000ea10: 01 01 07 93 addi	a5, sp, 16
0x8000ea14: 00 f7 07 b3 add	a5, a4, a5
0x8000ea18: 80 00 07 37 lui	a4, 524288
0x8000ea1c: ff f7 47 13 xori	a4, a4, -1
0x8000ea20: dc e7 ac 23 sw	a4, -552(a5)
0x8000ea24: dc e7 ae 23 sw	a4, -548(a5)
0x8000ea28: dd 87 a6 83 lw	a3, -552(a5)
0x8000ea2c: dd c7 a7 03 lw	a4, -548(a5)
0x8000ea30: 06 d7 5e 63 bge	a4, a3, 0x8000eaac
0x8000eaac: 00 00 57 37 lui	a4, 5
0x8000eab0: ff ff e7 b7 lui	a5, 1048574
0x8000eab4: 19 07 07 13 addi	a4, a4, 400
0x8000eab8: 00 f7 07 33 add	a4, a4, a5
0x8000eabc: 01 01 07 93 addi	a5, sp, 16
0x8000eac0: 00 f7 07 b3 add	a5, a4, a5
0x8000eac4: 80 00 07 37 lui	a4, 524288
0x8000eac8: de e7 a0 23 sw	a4, -544(a5)
0x8000eacc: de e7 a2 23 sw	a4, -540(a5)
0x8000ead0: de 07 a6 83 lw	a3, -544(a5)
0x8000ead4: de 47 a7 03 lw	a4, -540(a5)
0x8000ead8: 06 e6 dc 63 bge	a3, a4, 0x8000eb50
0x8000eb50: 00 00 57 37 lui	a4, 5
0x8000eb54: ff ff e7 b7 lui	a5, 1048574
0x8000eb58: 19 07 07 13 addi	a4, a4, 400
0x8000eb5c: 00 f7 07 33 add	a4, a4, a5
0x8000eb60: 01 01 07 93 addi	a5, sp, 16
0x8000eb64: 00 f7 07 b3 add	a5, a4, a5
0x8000eb68: 80 00 07 37 lui	a4, 524288
0x8000eb6c: de e7 a4 23 sw	a4, -536(a5)
0x8000eb70: 00 17 07 13 addi	a4, a4, 1
0x8000eb74: de e7 a6 23 sw	a4, -532(a5)
0x8000eb78: de 87 a6 83 lw	a3, -536(a5)
0x8000eb7c: de c7 a7 03 lw	a4, -532(a5)
0x8000eb80: 06 e6 ce 63 blt	a3, a4, 0x8000ebfc
0x8000ebfc: 00 00 57 37 lui	a4, 5
0x8000ec00: ff ff e7 b7 lui	a5, 1048574
0x8000ec04: 19 07 07 13 addi	a4, a4, 400
0x8000ec08: 00 f7 07 33 add	a4, a4, a5
0x8000ec0c: 01 01 07 93 addi	a5, sp, 16
0x8000ec10: 00 f7 07 b3 add	a5, a4, a5
0x8000ec14: 80 00 07 37 lui	a4, 524288
0x8000ec18: de e7 a8 23 sw	a4, -528(a5)
0x8000ec1c: ff e0 07 13 addi	a4, zero, -2
0x8000ec20: de e7 aa 23 sw	a4, -524(a5)
0x8000ec24: df 07 a6 83 lw	a3, -528(a5)
0x8000ec28: df 47 a7 03 lw	a4, -524(a5)
0x8000ec2c: 06 e6 cc 63 blt	a3, a4, 0x8000eca4
0x8000eca4: 00 00 57 37 lui	a4, 5
0x8000eca8: ff ff e7 b7 lui	a5, 1048574
0x8000ecac: 19 07 07 13 addi	a4, a4, 400
0x8000ecb0: 00 f7 07 33 add	a4, a4, a5
0x8000ecb4: 01 01 07 93 addi	a5, sp, 16
0x8000ecb8: 00 f7 07 b3 add	a5, a4, a5
0x8000ecbc: 80 00 07 37 lui	a4, 524288
0x8000ecc0: de e7 ac 23 sw	a4, -520(a5)
0x8000ecc4: ff f0 07 13 addi	a4, zero, -1
0x8000ecc8: de e7 ae 23 sw	a4, -516(a5)
0x8000eccc: df 87 a6 83 lw	a3, -520(a5)
0x8000ecd0: df c7 a7 03 lw	a4, -516(a5)
0x8000ecd4: 06 e6 cc 63 blt	a3, a4, 0x8000ed4c
0x8000ed4c: 00 00 57 37 lui	a4, 5
0x8000ed50: ff ff e7 b7 lui	a5, 1048574
0x8000ed54: 19 07 07 13 addi	a4, a4, 400
0x8000ed58: 00 f7 07 33 add	a4, a4, a5
0x8000ed5c: 01 01 07 93 addi	a5, sp, 16
0x8000ed60: 00 f7 07 b3 add	a5, a4, a5
0x8000ed64: 80 00 07 37 lui	a4, 524288
0x8000ed68: e0 e7 a0 23 sw	a4, -512(a5)
0x8000ed6c: e0 07 a2 23 sw	zero, -508(a5)
0x8000ed70: e0 07 a6 83 lw	a3, -512(a5)
0x8000ed74: e0 47 a7 03 lw	a4, -508(a5)
0x8000ed78: 06 e6 cc 63 blt	a3, a4, 0x8000edf0
0x8000edf0: 00 00 57 37 lui	a4, 5
0x8000edf4: ff ff e7 b7 lui	a5, 1048574
0x8000edf8: 19 07 07 13 addi	a4, a4, 400
0x8000edfc: 00 f7 07 33 add	a4, a4, a5
0x8000ee00: 01 01 07 93 addi	a5, sp, 16
0x8000ee04: 00 f7 07 b3 add	a5, a4, a5
0x8000ee08: 80 00 07 37 lui	a4, 524288
0x8000ee0c: e0 e7 a4 23 sw	a4, -504(a5)
0x8000ee10: 00 10 07 13 addi	a4, zero, 1
0x8000ee14: e0 e7 a6 23 sw	a4, -500(a5)
0x8000ee18: e0 87 a6 83 lw	a3, -504(a5)
0x8000ee1c: e0 c7 a7 03 lw	a4, -500(a5)
0x8000ee20: 06 e6 cc 63 blt	a3, a4, 0x8000ee98
0x8000ee98: 00 00 57 37 lui	a4, 5
0x8000ee9c: ff ff e7 b7 lui	a5, 1048574
0x8000eea0: 19 07 07 13 addi	a4, a4, 400
0x8000eea4: 00 f7 07 33 add	a4, a4, a5
0x8000eea8: 01 01 07 93 addi	a5, sp, 16
0x8000eeac: 00 f7 07 b3 add	a5, a4, a5
0x8000eeb0: 80 00 07 37 lui	a4, 524288
0x8000eeb4: e0 e7 a8 23 sw	a4, -496(a5)
0x8000eeb8: 00 20 07 13 addi	a4, zero, 2
0x8000eebc: e0 e7 aa 23 sw	a4, -492(a5)
0x8000eec0: e1 07 a6 83 lw	a3, -496(a5)
0x8000eec4: e1 47 a7 03 lw	a4, -492(a5)
0x8000eec8: 06 e6 cc 63 blt	a3, a4, 0x8000ef40
0x8000ef40: 00 00 57 37 lui	a4, 5
0x8000ef44: ff ff e7 b7 lui	a5, 1048574
0x8000ef48: 19 07 07 13 addi	a4, a4, 400
0x8000ef4c: 00 f7 07 33 add	a4, a4, a5
0x8000ef50: 01 01 07 93 addi	a5, sp, 16
0x8000ef54: 00 f7 07 b3 add	a5, a4, a5
0x8000ef58: 80 00 07 37 lui	a4, 524288
0x8000ef5c: e0 e7 ac 23 sw	a4, -488(a5)
0x8000ef60: ff e7 47 13 xori	a4, a4, -2
0x8000ef64: e0 e7 ae 23 sw	a4, -484(a5)
0x8000ef68: e1 87 a6 83 lw	a3, -488(a5)
0x8000ef6c: e1 c7 a7 03 lw	a4, -484(a5)
0x8000ef70: 06 e6 ce 63 blt	a3, a4, 0x8000efec
0x8000efec: 00 00 57 37 lui	a4, 5
0x8000eff0: ff ff e7 b7 lui	a5, 1048574
0x8000eff4: 19 07 07 13 addi	a4, a4, 400
0x8000eff8: 00 f7 07 33 add	a4, a4, a5
0x8000effc: 01 01 07 93 addi	a5, sp, 16
0x8000f000: 00 f7 07 b3 add	a5, a4, a5
0x8000f004: 80 00 07 37 lui	a4, 524288
0x8000f008: e2 e7 a0 23 sw	a4, -480(a5)
0x8000f00c: ff f7 47 13 xori	a4, a4, -1
0x8000f010: e2 e7 a2 23 sw	a4, -476(a5)
0x8000f014: e2 07 a6 83 lw	a3, -480(a5)
0x8000f018: e2 47 a7 03 lw	a4, -476(a5)
0x8000f01c: 06 e6 ce 63 blt	a3, a4, 0x8000f098
0x8000f098: 00 00 57 37 lui	a4, 5
0x8000f09c: ff ff e7 b7 lui	a5, 1048574
0x8000f0a0: 19 07 07 13 addi	a4, a4, 400
0x8000f0a4: 00 f7 07 33 add	a4, a4, a5
0x8000f0a8: 01 01 07 93 addi	a5, sp, 16
0x8000f0ac: 00 f7 07 b3 add	a5, a4, a5
0x8000f0b0: 80 00 07 37 lui	a4, 524288
0x8000f0b4: 00 17 07 13 addi	a4, a4, 1
0x8000f0b8: e2 e7 a4 23 sw	a4, -472(a5)
0x8000f0bc: e2 e7 a6 23 sw	a4, -468(a5)
0x8000f0c0: e2 87 a6 83 lw	a3, -472(a5)
0x8000f0c4: e2 c7 a7 03 lw	a4, -468(a5)
0x8000f0c8: 06 e6 de 63 bge	a3, a4, 0x8000f144
0x8000f144: 00 00 57 37 lui	a4, 5
0x8000f148: ff ff e7 b7 lui	a5, 1048574
0x8000f14c: 19 07 07 13 addi	a4, a4, 400
0x8000f150: 00 f7 07 33 add	a4, a4, a5
0x8000f154: 01 01 07 93 addi	a5, sp, 16
0x8000f158: 00 f7 07 b3 add	a5, a4, a5
0x8000f15c: 80 00 07 37 lui	a4, 524288
0x8000f160: 00 17 07 13 addi	a4, a4, 1
0x8000f164: e2 e7 a8 23 sw	a4, -464(a5)
0x8000f168: ff e0 07 13 addi	a4, zero, -2
0x8000f16c: e2 e7 aa 23 sw	a4, -460(a5)
0x8000f170: e3 07 a6 83 lw	a3, -464(a5)
0x8000f174: e3 47 a7 03 lw	a4, -460(a5)
0x8000f178: 06 e6 ce 63 blt	a3, a4, 0x8000f1f4
0x8000f1f4: 00 00 57 37 lui	a4, 5
0x8000f1f8: ff ff e7 b7 lui	a5, 1048574
0x8000f1fc: 19 07 07 13 addi	a4, a4, 400
0x8000f200: 00 f7 07 33 add	a4, a4, a5
0x8000f204: 01 01 07 93 addi	a5, sp, 16
0x8000f208: 00 f7 07 b3 add	a5, a4, a5
0x8000f20c: 80 00 07 37 lui	a4, 524288
0x8000f210: 00 17 07 13 addi	a4, a4, 1
0x8000f214: e2 e7 ac 23 sw	a4, -456(a5)
0x8000f218: ff f0 07 13 addi	a4, zero, -1
0x8000f21c: e2 e7 ae 23 sw	a4, -452(a5)
0x8000f220: e3 87 a6 83 lw	a3, -456(a5)
0x8000f224: e3 c7 a7 03 lw	a4, -452(a5)
0x8000f228: 06 e6 ce 63 blt	a3, a4, 0x8000f2a4
0x8000f2a4: 00 00 57 37 lui	a4, 5
0x8000f2a8: ff ff e7 b7 lui	a5, 1048574
0x8000f2ac: 19 07 07 13 addi	a4, a4, 400
0x8000f2b0: 00 f7 07 33 add	a4, a4, a5
0x8000f2b4: 01 01 07 93 addi	a5, sp, 16
0x8000f2b8: 00 f7 07 b3 add	a5, a4, a5
0x8000f2bc: 80 00 07 37 lui	a4, 524288
0x8000f2c0: 00 17 07 13 addi	a4, a4, 1
0x8000f2c4: e4 e7 a0 23 sw	a4, -448(a5)
0x8000f2c8: e4 07 a2 23 sw	zero, -444(a5)
0x8000f2cc: e4 07 a6 83 lw	a3, -448(a5)
0x8000f2d0: e4 47 a7 03 lw	a4, -444(a5)
0x8000f2d4: 08 e6 c0 63 blt	a3, a4, 0x8000f354
0x8000f354: 00 00 57 37 lui	a4, 5
0x8000f358: ff ff e7 b7 lui	a5, 1048574
0x8000f35c: 19 07 07 13 addi	a4, a4, 400
0x8000f360: 00 f7 07 33 add	a4, a4, a5
0x8000f364: 01 01 07 93 addi	a5, sp, 16
0x8000f368: 00 f7 07 b3 add	a5, a4, a5
0x8000f36c: 80 00 07 37 lui	a4, 524288
0x8000f370: 00 17 07 13 addi	a4, a4, 1
0x8000f374: e4 e7 a4 23 sw	a4, -440(a5)
0x8000f378: 00 10 07 13 addi	a4, zero, 1
0x8000f37c: e4 e7 a6 23 sw	a4, -436(a5)
0x8000f380: e4 87 a6 83 lw	a3, -440(a5)
0x8000f384: e4 c7 a7 03 lw	a4, -436(a5)
0x8000f388: 08 e6 c0 63 blt	a3, a4, 0x8000f408
0x8000f408: 00 00 57 37 lui	a4, 5
0x8000f40c: ff ff e7 b7 lui	a5, 1048574
0x8000f410: 19 07 07 13 addi	a4, a4, 400
0x8000f414: 00 f7 07 33 add	a4, a4, a5
0x8000f418: 01 01 07 93 addi	a5, sp, 16
0x8000f41c: 00 f7 07 b3 add	a5, a4, a5
0x8000f420: 80 00 07 37 lui	a4, 524288
0x8000f424: 00 17 07 13 addi	a4, a4, 1
0x8000f428: e4 e7 a8 23 sw	a4, -432(a5)
0x8000f42c: 00 20 07 13 addi	a4, zero, 2
0x8000f430: e4 e7 aa 23 sw	a4, -428(a5)
0x8000f434: e5 07 a6 83 lw	a3, -432(a5)
0x8000f438: e5 47 a7 03 lw	a4, -428(a5)
0x8000f43c: 08 e6 c0 63 blt	a3, a4, 0x8000f4bc
0x8000f4bc: 00 00 56 b7 lui	a3, 5
0x8000f4c0: ff ff e7 b7 lui	a5, 1048574
0x8000f4c4: 19 06 86 93 addi	a3, a3, 400
0x8000f4c8: 00 f6 86 b3 add	a3, a3, a5
0x8000f4cc: 80 00 07 37 lui	a4, 524288
0x8000f4d0: 01 01 07 93 addi	a5, sp, 16
0x8000f4d4: 00 f6 87 b3 add	a5, a3, a5
0x8000f4d8: 00 17 06 93 addi	a3, a4, 1
0x8000f4dc: e4 d7 ac 23 sw	a3, -424(a5)
0x8000f4e0: ff e7 47 13 xori	a4, a4, -2
0x8000f4e4: e4 e7 ae 23 sw	a4, -420(a5)
0x8000f4e8: e5 87 a6 83 lw	a3, -424(a5)
0x8000f4ec: e5 c7 a7 03 lw	a4, -420(a5)
0x8000f4f0: 08 e6 c0 63 blt	a3, a4, 0x8000f570
0x8000f570: 00 00 56 b7 lui	a3, 5
0x8000f574: ff ff e7 b7 lui	a5, 1048574
0x8000f578: 19 06 86 93 addi	a3, a3, 400
0x8000f57c: 00 f6 86 b3 add	a3, a3, a5
0x8000f580: 80 00 07 37 lui	a4, 524288
0x8000f584: 01 01 07 93 addi	a5, sp, 16
0x8000f588: 00 f6 87 b3 add	a5, a3, a5
0x8000f58c: 00 17 06 93 addi	a3, a4, 1
0x8000f590: e6 d7 a0 23 sw	a3, -416(a5)
0x8000f594: ff f7 47 13 xori	a4, a4, -1
0x8000f598: e6 e7 a2 23 sw	a4, -412(a5)
0x8000f59c: e6 07 a6 83 lw	a3, -416(a5)
0x8000f5a0: e6 47 a7 03 lw	a4, -412(a5)
0x8000f5a4: 08 e6 c0 63 blt	a3, a4, 0x8000f624
0x8000f624: 00 00 57 37 lui	a4, 5
0x8000f628: ff ff e7 b7 lui	a5, 1048574
0x8000f62c: 19 07 07 13 addi	a4, a4, 400
0x8000f630: 00 f7 07 33 add	a4, a4, a5
0x8000f634: 01 01 07 93 addi	a5, sp, 16
0x8000f638: 00 f7 07 b3 add	a5, a4, a5
0x8000f63c: ff e0 07 13 addi	a4, zero, -2
0x8000f640: e6 e7 a4 23 sw	a4, -408(a5)
0x8000f644: e6 e7 a6 23 sw	a4, -404(a5)
0x8000f648: e6 87 a6 83 lw	a3, -408(a5)
0x8000f64c: e6 c7 a7 03 lw	a4, -404(a5)
0x8000f650: 06 e6 de 63 bge	a3, a4, 0x8000f6cc
0x8000f6cc: 00 00 57 37 lui	a4, 5
0x8000f6d0: ff ff e7 b7 lui	a5, 1048574
0x8000f6d4: 19 07 07 13 addi	a4, a4, 400
0x8000f6d8: 00 f7 07 33 add	a4, a4, a5
0x8000f6dc: 01 01 07 93 addi	a5, sp, 16
0x8000f6e0: 00 f7 07 b3 add	a5, a4, a5
0x8000f6e4: ff e0 07 13 addi	a4, zero, -2
0x8000f6e8: e6 e7 a8 23 sw	a4, -400(a5)
0x8000f6ec: ff f0 07 13 addi	a4, zero, -1
0x8000f6f0: e6 e7 aa 23 sw	a4, -396(a5)
0x8000f6f4: e7 07 a6 83 lw	a3, -400(a5)
0x8000f6f8: e7 47 a7 03 lw	a4, -396(a5)
0x8000f6fc: 06 e6 ce 63 blt	a3, a4, 0x8000f778
0x8000f778: 00 00 57 37 lui	a4, 5
0x8000f77c: ff ff e7 b7 lui	a5, 1048574
0x8000f780: 19 07 07 13 addi	a4, a4, 400
0x8000f784: 00 f7 07 33 add	a4, a4, a5
0x8000f788: 01 01 07 93 addi	a5, sp, 16
0x8000f78c: 00 f7 07 b3 add	a5, a4, a5
0x8000f790: ff e0 07 13 addi	a4, zero, -2
0x8000f794: e6 e7 ac 23 sw	a4, -392(a5)
0x8000f798: e6 07 ae 23 sw	zero, -388(a5)
0x8000f79c: e7 87 a6 83 lw	a3, -392(a5)
0x8000f7a0: e7 c7 a7 03 lw	a4, -388(a5)
0x8000f7a4: 06 e6 ce 63 blt	a3, a4, 0x8000f820
0x8000f820: 00 00 57 37 lui	a4, 5
0x8000f824: ff ff e7 b7 lui	a5, 1048574
0x8000f828: 19 07 07 13 addi	a4, a4, 400
0x8000f82c: 00 f7 07 33 add	a4, a4, a5
0x8000f830: 01 01 07 93 addi	a5, sp, 16
0x8000f834: 00 f7 07 b3 add	a5, a4, a5
0x8000f838: ff e0 07 13 addi	a4, zero, -2
0x8000f83c: e8 e7 a0 23 sw	a4, -384(a5)
0x8000f840: 00 10 07 13 addi	a4, zero, 1
0x8000f844: e8 e7 a2 23 sw	a4, -380(a5)
0x8000f848: e8 07 a6 83 lw	a3, -384(a5)
0x8000f84c: e8 47 a7 03 lw	a4, -380(a5)
0x8000f850: 06 e6 ce 63 blt	a3, a4, 0x8000f8cc
0x8000f8cc: 00 00 57 37 lui	a4, 5
0x8000f8d0: ff ff e7 b7 lui	a5, 1048574
0x8000f8d4: 19 07 07 13 addi	a4, a4, 400
0x8000f8d8: 00 f7 07 33 add	a4, a4, a5
0x8000f8dc: 01 01 07 93 addi	a5, sp, 16
0x8000f8e0: 00 f7 07 b3 add	a5, a4, a5
0x8000f8e4: ff e0 07 13 addi	a4, zero, -2
0x8000f8e8: e8 e7 a4 23 sw	a4, -376(a5)
0x8000f8ec: 00 20 07 13 addi	a4, zero, 2
0x8000f8f0: e8 e7 a6 23 sw	a4, -372(a5)
0x8000f8f4: e8 87 a6 83 lw	a3, -376(a5)
0x8000f8f8: e8 c7 a7 03 lw	a4, -372(a5)
0x8000f8fc: 06 e6 ce 63 blt	a3, a4, 0x8000f978
0x8000f978: 00 00 57 37 lui	a4, 5
0x8000f97c: ff ff e7 b7 lui	a5, 1048574
0x8000f980: 19 07 07 13 addi	a4, a4, 400
0x8000f984: 00 f7 07 33 add	a4, a4, a5
0x8000f988: 01 01 07 93 addi	a5, sp, 16
0x8000f98c: 00 f7 07 b3 add	a5, a4, a5
0x8000f990: ff e0 07 13 addi	a4, zero, -2
0x8000f994: e8 e7 a8 23 sw	a4, -368(a5)
0x8000f998: 80 00 07 37 lui	a4, 524288
0x8000f99c: ff e7 47 13 xori	a4, a4, -2
0x8000f9a0: e8 e7 aa 23 sw	a4, -364(a5)
0x8000f9a4: e9 07 a6 83 lw	a3, -368(a5)
0x8000f9a8: e9 47 a7 03 lw	a4, -364(a5)
0x8000f9ac: 08 e6 c0 63 blt	a3, a4, 0x8000fa2c
0x8000fa2c: 00 00 57 37 lui	a4, 5
0x8000fa30: ff ff e7 b7 lui	a5, 1048574
0x8000fa34: 19 07 07 13 addi	a4, a4, 400
0x8000fa38: 00 f7 07 33 add	a4, a4, a5
0x8000fa3c: 01 01 07 93 addi	a5, sp, 16
0x8000fa40: 00 f7 07 b3 add	a5, a4, a5
0x8000fa44: ff e0 07 13 addi	a4, zero, -2
0x8000fa48: e8 e7 ac 23 sw	a4, -360(a5)
0x8000fa4c: 80 00 07 37 lui	a4, 524288
0x8000fa50: ff f7 47 13 xori	a4, a4, -1
0x8000fa54: e8 e7 ae 23 sw	a4, -356(a5)
0x8000fa58: e9 87 a6 83 lw	a3, -360(a5)
0x8000fa5c: e9 c7 a7 03 lw	a4, -356(a5)
0x8000fa60: 08 e6 c0 63 blt	a3, a4, 0x8000fae0
0x8000fae0: 00 00 57 37 lui	a4, 5
0x8000fae4: ff ff e7 b7 lui	a5, 1048574
0x8000fae8: 19 07 07 13 addi	a4, a4, 400
0x8000faec: 00 f7 07 33 add	a4, a4, a5
0x8000faf0: 01 01 07 93 addi	a5, sp, 16
0x8000faf4: 00 f7 07 b3 add	a5, a4, a5
0x8000faf8: ff f0 07 13 addi	a4, zero, -1
0x8000fafc: ea e7 a0 23 sw	a4, -352(a5)
0x8000fb00: ea e7 a2 23 sw	a4, -348(a5)
0x8000fb04: ea 07 a6 83 lw	a3, -352(a5)
0x8000fb08: ea 47 a7 03 lw	a4, -348(a5)
0x8000fb0c: 06 e6 de 63 bge	a3, a4, 0x8000fb88
0x8000fb88: 00 00 57 37 lui	a4, 5
0x8000fb8c: ff ff e7 b7 lui	a5, 1048574
0x8000fb90: 19 07 07 13 addi	a4, a4, 400
0x8000fb94: 00 f7 07 33 add	a4, a4, a5
0x8000fb98: 01 01 07 93 addi	a5, sp, 16
0x8000fb9c: 00 f7 07 b3 add	a5, a4, a5
0x8000fba0: ff f0 07 13 addi	a4, zero, -1
0x8000fba4: ea e7 a4 23 sw	a4, -344(a5)
0x8000fba8: ea 07 a6 23 sw	zero, -340(a5)
0x8000fbac: ea 87 a6 83 lw	a3, -344(a5)
0x8000fbb0: ea c7 a7 03 lw	a4, -340(a5)
0x8000fbb4: 06 e6 ce 63 blt	a3, a4, 0x8000fc30
0x8000fc30: 00 00 57 37 lui	a4, 5
0x8000fc34: ff ff e7 b7 lui	a5, 1048574
0x8000fc38: 19 07 07 13 addi	a4, a4, 400
0x8000fc3c: 00 f7 07 33 add	a4, a4, a5
0x8000fc40: 01 01 07 93 addi	a5, sp, 16
0x8000fc44: 00 f7 07 b3 add	a5, a4, a5
0x8000fc48: ff f0 07 13 addi	a4, zero, -1
0x8000fc4c: ea e7 a8 23 sw	a4, -336(a5)
0x8000fc50: 00 10 07 13 addi	a4, zero, 1
0x8000fc54: ea e7 aa 23 sw	a4, -332(a5)
0x8000fc58: eb 07 a6 83 lw	a3, -336(a5)
0x8000fc5c: eb 47 a7 03 lw	a4, -332(a5)
0x8000fc60: 06 e6 ce 63 blt	a3, a4, 0x8000fcdc
0x8000fcdc: 00 00 57 37 lui	a4, 5
0x8000fce0: ff ff e7 b7 lui	a5, 1048574
0x8000fce4: 19 07 07 13 addi	a4, a4, 400
0x8000fce8: 00 f7 07 33 add	a4, a4, a5
0x8000fcec: 01 01 07 93 addi	a5, sp, 16
0x8000fcf0: 00 f7 07 b3 add	a5, a4, a5
0x8000fcf4: ff f0 07 13 addi	a4, zero, -1
0x8000fcf8: ea e7 ac 23 sw	a4, -328(a5)
0x8000fcfc: 00 20 07 13 addi	a4, zero, 2
0x8000fd00: ea e7 ae 23 sw	a4, -324(a5)
0x8000fd04: eb 87 a6 83 lw	a3, -328(a5)
0x8000fd08: eb c7 a7 03 lw	a4, -324(a5)
0x8000fd0c: 06 e6 ce 63 blt	a3, a4, 0x8000fd88
0x8000fd88: 00 00 57 37 lui	a4, 5
0x8000fd8c: ff ff e7 b7 lui	a5, 1048574
0x8000fd90: 19 07 07 13 addi	a4, a4, 400
0x8000fd94: 00 f7 07 33 add	a4, a4, a5
0x8000fd98: 01 01 07 93 addi	a5, sp, 16
0x8000fd9c: 00 f7 07 b3 add	a5, a4, a5
0x8000fda0: ff f0 07 13 addi	a4, zero, -1
0x8000fda4: ec e7 a0 23 sw	a4, -320(a5)
0x8000fda8: 80 00 07 37 lui	a4, 524288
0x8000fdac: ff e7 47 13 xori	a4, a4, -2
0x8000fdb0: ec e7 a2 23 sw	a4, -316(a5)
0x8000fdb4: ec 07 a6 83 lw	a3, -320(a5)
0x8000fdb8: ec 47 a7 03 lw	a4, -316(a5)
0x8000fdbc: 08 e6 c0 63 blt	a3, a4, 0x8000fe3c
0x8000fe3c: 00 00 57 37 lui	a4, 5
0x8000fe40: ff ff e7 b7 lui	a5, 1048574
0x8000fe44: 19 07 07 13 addi	a4, a4, 400
0x8000fe48: 00 f7 07 33 add	a4, a4, a5
0x8000fe4c: 01 01 07 93 addi	a5, sp, 16
0x8000fe50: 00 f7 07 b3 add	a5, a4, a5
0x8000fe54: ff f0 07 13 addi	a4, zero, -1
0x8000fe58: ec e7 a4 23 sw	a4, -312(a5)
0x8000fe5c: 80 00 07 37 lui	a4, 524288
0x8000fe60: ff f7 47 13 xori	a4, a4, -1
0x8000fe64: ec e7 a6 23 sw	a4, -308(a5)
0x8000fe68: ec 87 a6 83 lw	a3, -312(a5)
0x8000fe6c: ec c7 a7 03 lw	a4, -308(a5)
0x8000fe70: 08 e6 c0 63 blt	a3, a4, 0x8000fef0
0x8000fef0: 00 00 57 37 lui	a4, 5
0x8000fef4: ff ff e7 b7 lui	a5, 1048574
0x8000fef8: 19 07 07 13 addi	a4, a4, 400
0x8000fefc: 00 f7 07 33 add	a4, a4, a5
0x8000ff00: 01 01 07 93 addi	a5, sp, 16
0x8000ff04: 00 f7 07 b3 add	a5, a4, a5
0x8000ff08: ec 07 a8 23 sw	zero, -304(a5)
0x8000ff0c: ec 07 aa 23 sw	zero, -300(a5)
0x8000ff10: ed 07 a6 83 lw	a3, -304(a5)
0x8000ff14: ed 47 a7 03 lw	a4, -300(a5)
0x8000ff18: 06 e6 de 63 bge	a3, a4, 0x8000ff94
0x8000ff94: 00 00 57 37 lui	a4, 5
0x8000ff98: ff ff e7 b7 lui	a5, 1048574
0x8000ff9c: 19 07 07 13 addi	a4, a4, 400
0x8000ffa0: 00 f7 07 33 add	a4, a4, a5
0x8000ffa4: 01 01 07 93 addi	a5, sp, 16
0x8000ffa8: 00 f7 07 b3 add	a5, a4, a5
0x8000ffac: ec 07 ac 23 sw	zero, -296(a5)
0x8000ffb0: 00 10 07 13 addi	a4, zero, 1
0x8000ffb4: ec e7 ae 23 sw	a4, -292(a5)
0x8000ffb8: ed 87 a6 83 lw	a3, -296(a5)
0x8000ffbc: ed c7 a7 03 lw	a4, -292(a5)
0x8000ffc0: 06 e6 ce 63 blt	a3, a4, 0x8001003c
0x8001003c: 00 00 57 37 lui	a4, 5
0x80010040: ff ff e7 b7 lui	a5, 1048574
0x80010044: 19 07 07 13 addi	a4, a4, 400
0x80010048: 00 f7 07 33 add	a4, a4, a5
0x8001004c: 01 01 07 93 addi	a5, sp, 16
0x80010050: 00 f7 07 b3 add	a5, a4, a5
0x80010054: ee 07 a0 23 sw	zero, -288(a5)
0x80010058: 00 20 07 13 addi	a4, zero, 2
0x8001005c: ee e7 a2 23 sw	a4, -284(a5)
0x80010060: ee 07 a6 83 lw	a3, -288(a5)
0x80010064: ee 47 a7 03 lw	a4, -284(a5)
0x80010068: 06 e6 ce 63 blt	a3, a4, 0x800100e4
0x800100e4: 00 00 57 37 lui	a4, 5
0x800100e8: ff ff e7 b7 lui	a5, 1048574
0x800100ec: 19 07 07 13 addi	a4, a4, 400
0x800100f0: 00 f7 07 33 add	a4, a4, a5
0x800100f4: 01 01 07 93 addi	a5, sp, 16
0x800100f8: 00 f7 07 b3 add	a5, a4, a5
0x800100fc: 80 00 07 37 lui	a4, 524288
0x80010100: ee 07 a4 23 sw	zero, -280(a5)
0x80010104: ff e7 47 13 xori	a4, a4, -2
0x80010108: ee e7 a6 23 sw	a4, -276(a5)
0x8001010c: ee 87 a6 83 lw	a3, -280(a5)
0x80010110: ee c7 a7 03 lw	a4, -276(a5)
0x80010114: 08 e6 c0 63 blt	a3, a4, 0x80010194
0x80010194: 00 00 57 37 lui	a4, 5
0x80010198: ff ff e7 b7 lui	a5, 1048574
0x8001019c: 19 07 07 13 addi	a4, a4, 400
0x800101a0: 00 f7 07 33 add	a4, a4, a5
0x800101a4: 01 01 07 93 addi	a5, sp, 16
0x800101a8: 00 f7 07 b3 add	a5, a4, a5
0x800101ac: 80 00 07 37 lui	a4, 524288
0x800101b0: ee 07 a8 23 sw	zero, -272(a5)
0x800101b4: ff f7 47 13 xori	a4, a4, -1
0x800101b8: ee e7 aa 23 sw	a4, -268(a5)
0x800101bc: ef 07 a6 83 lw	a3, -272(a5)
0x800101c0: ef 47 a7 03 lw	a4, -268(a5)
0x800101c4: 08 e6 c0 63 blt	a3, a4, 0x80010244
0x80010244: 00 00 57 37 lui	a4, 5
0x80010248: ff ff e7 b7 lui	a5, 1048574
0x8001024c: 19 07 07 13 addi	a4, a4, 400
0x80010250: 00 f7 07 33 add	a4, a4, a5
0x80010254: 01 01 07 93 addi	a5, sp, 16
0x80010258: 00 f7 07 b3 add	a5, a4, a5
0x8001025c: 00 10 07 13 addi	a4, zero, 1
0x80010260: ee e7 ac 23 sw	a4, -264(a5)
0x80010264: ee e7 ae 23 sw	a4, -260(a5)
0x80010268: ef 87 a6 83 lw	a3, -264(a5)
0x8001026c: ef c7 a7 03 lw	a4, -260(a5)
0x80010270: 06 e6 de 63 bge	a3, a4, 0x800102ec
0x800102ec: 00 00 57 37 lui	a4, 5
0x800102f0: ff ff e7 b7 lui	a5, 1048574
0x800102f4: 19 07 07 13 addi	a4, a4, 400
0x800102f8: 00 f7 07 33 add	a4, a4, a5
0x800102fc: 01 01 07 93 addi	a5, sp, 16
0x80010300: 00 f7 07 b3 add	a5, a4, a5
0x80010304: 00 10 07 13 addi	a4, zero, 1
0x80010308: f0 e7 a0 23 sw	a4, -256(a5)
0x8001030c: 00 20 07 13 addi	a4, zero, 2
0x80010310: f0 e7 a2 23 sw	a4, -252(a5)
0x80010314: f0 07 a6 83 lw	a3, -256(a5)
0x80010318: f0 47 a7 03 lw	a4, -252(a5)
0x8001031c: 06 e6 ce 63 blt	a3, a4, 0x80010398
0x80010398: 00 00 57 37 lui	a4, 5
0x8001039c: ff ff e7 b7 lui	a5, 1048574
0x800103a0: 19 07 07 13 addi	a4, a4, 400
0x800103a4: 00 f7 07 33 add	a4, a4, a5
0x800103a8: 01 01 07 93 addi	a5, sp, 16
0x800103ac: 00 f7 07 b3 add	a5, a4, a5
0x800103b0: 00 10 07 13 addi	a4, zero, 1
0x800103b4: f0 e7 a4 23 sw	a4, -248(a5)
0x800103b8: 80 00 07 37 lui	a4, 524288
0x800103bc: ff e7 47 13 xori	a4, a4, -2
0x800103c0: f0 e7 a6 23 sw	a4, -244(a5)
0x800103c4: f0 87 a6 83 lw	a3, -248(a5)
0x800103c8: f0 c7 a7 03 lw	a4, -244(a5)
0x800103cc: 08 e6 c0 63 blt	a3, a4, 0x8001044c
0x8001044c: 00 00 57 37 lui	a4, 5
0x80010450: ff ff e7 b7 lui	a5, 1048574
0x80010454: 19 07 07 13 addi	a4, a4, 400
0x80010458: 00 f7 07 33 add	a4, a4, a5
0x8001045c: 01 01 07 93 addi	a5, sp, 16
0x80010460: 00 f7 07 b3 add	a5, a4, a5
0x80010464: 00 10 07 13 addi	a4, zero, 1
0x80010468: f0 e7 a8 23 sw	a4, -240(a5)
0x8001046c: 80 00 07 37 lui	a4, 524288
0x80010470: ff f7 47 13 xori	a4, a4, -1
0x80010474: f0 e7 aa 23 sw	a4, -236(a5)
0x80010478: f1 07 a6 83 lw	a3, -240(a5)
0x8001047c: f1 47 a7 03 lw	a4, -236(a5)
0x80010480: 08 e6 c0 63 blt	a3, a4, 0x80010500
0x80010500: 00 00 57 37 lui	a4, 5
0x80010504: ff ff e7 b7 lui	a5, 1048574
0x80010508: 19 07 07 13 addi	a4, a4, 400
0x8001050c: 00 f7 07 33 add	a4, a4, a5
0x80010510: 01 01 07 93 addi	a5, sp, 16
0x80010514: 00 f7 07 b3 add	a5, a4, a5
0x80010518: 00 20 07 13 addi	a4, zero, 2
0x8001051c: f0 e7 ac 23 sw	a4, -232(a5)
0x80010520: f0 e7 ae 23 sw	a4, -228(a5)
0x80010524: f1 87 a6 83 lw	a3, -232(a5)
0x80010528: f1 c7 a7 03 lw	a4, -228(a5)
0x8001052c: 06 e6 de 63 bge	a3, a4, 0x800105a8
0x800105a8: 00 00 57 37 lui	a4, 5
0x800105ac: ff ff e7 b7 lui	a5, 1048574
0x800105b0: 19 07 07 13 addi	a4, a4, 400
0x800105b4: 00 f7 07 33 add	a4, a4, a5
0x800105b8: 01 01 07 93 addi	a5, sp, 16
0x800105bc: 00 f7 07 b3 add	a5, a4, a5
0x800105c0: 00 20 07 13 addi	a4, zero, 2
0x800105c4: f2 e7 a0 23 sw	a4, -224(a5)
0x800105c8: 80 00 07 37 lui	a4, 524288
0x800105cc: ff e7 47 13 xori	a4, a4, -2
0x800105d0: f2 e7 a2 23 sw	a4, -220(a5)
0x800105d4: f2 07 a6 83 lw	a3, -224(a5)
0x800105d8: f2 47 a7 03 lw	a4, -220(a5)
0x800105dc: 08 e6 c0 63 blt	a3, a4, 0x8001065c
0x8001065c: 00 00 57 37 lui	a4, 5
0x80010660: ff ff e7 b7 lui	a5, 1048574
0x80010664: 19 07 07 13 addi	a4, a4, 400
0x80010668: 00 f7 07 33 add	a4, a4, a5
0x8001066c: 01 01 07 93 addi	a5, sp, 16
0x80010670: 00 f7 07 b3 add	a5, a4, a5
0x80010674: 00 20 07 13 addi	a4, zero, 2
0x80010678: f2 e7 a4 23 sw	a4, -216(a5)
0x8001067c: 80 00 07 37 lui	a4, 524288
0x80010680: ff f7 47 13 xori	a4, a4, -1
0x80010684: f2 e7 a6 23 sw	a4, -212(a5)
0x80010688: f2 87 a6 83 lw	a3, -216(a5)
0x8001068c: f2 c7 a7 03 lw	a4, -212(a5)
0x80010690: 08 e6 c0 63 blt	a3, a4, 0x80010710
0x80010710: 00 00 57 37 lui	a4, 5
0x80010714: ff ff e7 b7 lui	a5, 1048574
0x80010718: 19 07 07 13 addi	a4, a4, 400
0x8001071c: 00 f7 07 33 add	a4, a4, a5
0x80010720: 01 01 07 93 addi	a5, sp, 16
0x80010724: 00 f7 07 b3 add	a5, a4, a5
0x80010728: 80 00 07 37 lui	a4, 524288
0x8001072c: ff e7 47 13 xori	a4, a4, -2
0x80010730: f2 e7 a8 23 sw	a4, -208(a5)
0x80010734: f2 e7 aa 23 sw	a4, -204(a5)
0x80010738: f3 07 a6 83 lw	a3, -208(a5)
0x8001073c: f3 47 a7 03 lw	a4, -204(a5)
0x80010740: 08 e6 d0 63 bge	a3, a4, 0x800107c0
0x800107c0: 00 00 56 b7 lui	a3, 5
0x800107c4: ff ff e7 b7 lui	a5, 1048574
0x800107c8: 19 06 86 93 addi	a3, a3, 400
0x800107cc: 00 f6 86 b3 add	a3, a3, a5
0x800107d0: 80 00 07 37 lui	a4, 524288
0x800107d4: 01 01 07 93 addi	a5, sp, 16
0x800107d8: 00 f6 87 b3 add	a5, a3, a5
0x800107dc: ff e7 46 93 xori	a3, a4, -2
0x800107e0: f2 d7 ac 23 sw	a3, -200(a5)
0x800107e4: ff f7 47 13 xori	a4, a4, -1
0x800107e8: f2 e7 ae 23 sw	a4, -196(a5)
0x800107ec: f3 87 a6 83 lw	a3, -200(a5)
0x800107f0: f3 c7 a7 03 lw	a4, -196(a5)
0x800107f4: 08 e6 c0 63 blt	a3, a4, 0x80010874
0x80010874: 00 00 57 37 lui	a4, 5
0x80010878: ff ff e7 b7 lui	a5, 1048574
0x8001087c: 19 07 07 13 addi	a4, a4, 400
0x80010880: 00 f7 07 33 add	a4, a4, a5
0x80010884: 01 01 07 93 addi	a5, sp, 16
0x80010888: 00 f7 07 b3 add	a5, a4, a5
0x8001088c: 80 00 07 37 lui	a4, 524288
0x80010890: ff f7 47 13 xori	a4, a4, -1
0x80010894: f4 e7 a0 23 sw	a4, -192(a5)
0x80010898: f4 e7 a2 23 sw	a4, -188(a5)
0x8001089c: f4 07 a6 83 lw	a3, -192(a5)
0x800108a0: f4 47 a7 03 lw	a4, -188(a5)
0x800108a4: 08 e6 d0 63 bge	a3, a4, 0x80010924
0x80010924: 00 00 57 37 lui	a4, 5
0x80010928: ff ff e7 b7 lui	a5, 1048574
0x8001092c: 19 07 07 13 addi	a4, a4, 400
0x80010930: 00 f7 07 33 add	a4, a4, a5
0x80010934: 01 01 07 93 addi	a5, sp, 16
0x80010938: 00 f7 07 b3 add	a5, a4, a5
0x8001093c: 80 00 07 37 lui	a4, 524288
0x80010940: f4 e7 a4 23 sw	a4, -184(a5)
0x80010944: f4 e7 a6 23 sw	a4, -180(a5)
0x80010948: f4 87 a6 83 lw	a3, -184(a5)
0x8001094c: f4 c7 a7 03 lw	a4, -180(a5)
0x80010950: 08 e6 d0 63 bge	a3, a4, 0x800109d0
0x800109d0: 00 00 57 37 lui	a4, 5
0x800109d4: ff ff e7 b7 lui	a5, 1048574
0x800109d8: 19 07 07 13 addi	a4, a4, 400
0x800109dc: 00 f7 07 33 add	a4, a4, a5
0x800109e0: 01 01 07 93 addi	a5, sp, 16
0x800109e4: 00 f7 07 b3 add	a5, a4, a5
0x800109e8: 80 00 07 37 lui	a4, 524288
0x800109ec: f4 e7 a8 23 sw	a4, -176(a5)
0x800109f0: 00 17 07 13 addi	a4, a4, 1
0x800109f4: f4 e7 aa 23 sw	a4, -172(a5)
0x800109f8: f5 07 a6 83 lw	a3, -176(a5)
0x800109fc: f5 47 a7 03 lw	a4, -172(a5)
0x80010a00: 08 e6 c2 63 blt	a3, a4, 0x80010a84
0x80010a84: 00 00 57 37 lui	a4, 5
0x80010a88: ff ff e7 b7 lui	a5, 1048574
0x80010a8c: 19 07 07 13 addi	a4, a4, 400
0x80010a90: 00 f7 07 33 add	a4, a4, a5
0x80010a94: 01 01 07 93 addi	a5, sp, 16
0x80010a98: 00 f7 07 b3 add	a5, a4, a5
0x80010a9c: 80 00 07 37 lui	a4, 524288
0x80010aa0: f4 e7 ac 23 sw	a4, -168(a5)
0x80010aa4: ff e0 07 13 addi	a4, zero, -2
0x80010aa8: f4 e7 ae 23 sw	a4, -164(a5)
0x80010aac: f5 87 a6 83 lw	a3, -168(a5)
0x80010ab0: f5 c7 a7 03 lw	a4, -164(a5)
0x80010ab4: 08 e6 c0 63 blt	a3, a4, 0x80010b34
0x80010b34: 00 00 57 37 lui	a4, 5
0x80010b38: ff ff e7 b7 lui	a5, 1048574
0x80010b3c: 19 07 07 13 addi	a4, a4, 400
0x80010b40: 00 f7 07 33 add	a4, a4, a5
0x80010b44: 01 01 07 93 addi	a5, sp, 16
0x80010b48: 00 f7 07 b3 add	a5, a4, a5
0x80010b4c: 80 00 07 37 lui	a4, 524288
0x80010b50: f6 e7 a0 23 sw	a4, -160(a5)
0x80010b54: ff f0 07 13 addi	a4, zero, -1
0x80010b58: f6 e7 a2 23 sw	a4, -156(a5)
0x80010b5c: f6 07 a6 83 lw	a3, -160(a5)
0x80010b60: f6 47 a7 03 lw	a4, -156(a5)
0x80010b64: 08 e6 c0 63 blt	a3, a4, 0x80010be4
0x80010be4: 00 00 57 37 lui	a4, 5
0x80010be8: ff ff e7 b7 lui	a5, 1048574
0x80010bec: 19 07 07 13 addi	a4, a4, 400
0x80010bf0: 00 f7 07 33 add	a4, a4, a5
0x80010bf4: 01 01 07 93 addi	a5, sp, 16
0x80010bf8: 00 f7 07 b3 add	a5, a4, a5
0x80010bfc: 80 00 07 37 lui	a4, 524288
0x80010c00: f6 e7 a4 23 sw	a4, -152(a5)
0x80010c04: f6 07 a6 23 sw	zero, -148(a5)
0x80010c08: f6 87 a6 83 lw	a3, -152(a5)
0x80010c0c: f6 c7 a7 03 lw	a4, -148(a5)
0x80010c10: 08 e6 c0 63 blt	a3, a4, 0x80010c90
0x80010c90: 00 00 57 37 lui	a4, 5
0x80010c94: ff ff e7 b7 lui	a5, 1048574
0x80010c98: 19 07 07 13 addi	a4, a4, 400
0x80010c9c: 00 f7 07 33 add	a4, a4, a5
0x80010ca0: 01 01 07 93 addi	a5, sp, 16
0x80010ca4: 00 f7 07 b3 add	a5, a4, a5
0x80010ca8: 80 00 07 37 lui	a4, 524288
0x80010cac: f6 e7 a8 23 sw	a4, -144(a5)
0x80010cb0: 00 10 07 13 addi	a4, zero, 1
0x80010cb4: f6 e7 aa 23 sw	a4, -140(a5)
0x80010cb8: f7 07 a6 83 lw	a3, -144(a5)
0x80010cbc: f7 47 a7 03 lw	a4, -140(a5)
0x80010cc0: 08 e6 c0 63 blt	a3, a4, 0x80010d40
0x80010d40: 00 00 57 37 lui	a4, 5
0x80010d44: ff ff e7 b7 lui	a5, 1048574
0x80010d48: 19 07 07 13 addi	a4, a4, 400
0x80010d4c: 00 f7 07 33 add	a4, a4, a5
0x80010d50: 01 01 07 93 addi	a5, sp, 16
0x80010d54: 00 f7 07 b3 add	a5, a4, a5
0x80010d58: 80 00 07 37 lui	a4, 524288
0x80010d5c: f6 e7 ac 23 sw	a4, -136(a5)
0x80010d60: 00 20 07 13 addi	a4, zero, 2
0x80010d64: f6 e7 ae 23 sw	a4, -132(a5)
0x80010d68: f7 87 a6 83 lw	a3, -136(a5)
0x80010d6c: f7 c7 a7 03 lw	a4, -132(a5)
0x80010d70: 08 e6 c0 63 blt	a3, a4, 0x80010df0
0x80010df0: 00 00 57 37 lui	a4, 5
0x80010df4: ff ff e7 b7 lui	a5, 1048574
0x80010df8: 19 07 07 13 addi	a4, a4, 400
0x80010dfc: 00 f7 07 33 add	a4, a4, a5
0x80010e00: 01 01 07 93 addi	a5, sp, 16
0x80010e04: 00 f7 07 b3 add	a5, a4, a5
0x80010e08: 80 00 07 37 lui	a4, 524288
0x80010e0c: f8 e7 a0 23 sw	a4, -128(a5)
0x80010e10: ff e7 47 13 xori	a4, a4, -2
0x80010e14: f8 e7 a2 23 sw	a4, -124(a5)
0x80010e18: f8 07 a6 83 lw	a3, -128(a5)
0x80010e1c: f8 47 a7 03 lw	a4, -124(a5)
0x80010e20: 08 e6 c2 63 blt	a3, a4, 0x80010ea4
0x80010ea4: 00 00 57 37 lui	a4, 5
0x80010ea8: ff ff e7 b7 lui	a5, 1048574
0x80010eac: 19 07 07 13 addi	a4, a4, 400
0x80010eb0: 00 f7 07 33 add	a4, a4, a5
0x80010eb4: 01 01 07 93 addi	a5, sp, 16
0x80010eb8: 00 f7 07 b3 add	a5, a4, a5
0x80010ebc: 80 00 07 37 lui	a4, 524288
0x80010ec0: f8 e7 a4 23 sw	a4, -120(a5)
0x80010ec4: ff f7 47 13 xori	a4, a4, -1
0x80010ec8: f8 e7 a6 23 sw	a4, -116(a5)
0x80010ecc: f8 87 a6 83 lw	a3, -120(a5)
0x80010ed0: f8 c7 a7 03 lw	a4, -116(a5)
0x80010ed4: 08 e6 c2 63 blt	a3, a4, 0x80010f58
0x80010f58: 00 00 57 37 lui	a4, 5
0x80010f5c: ff ff e7 b7 lui	a5, 1048574
0x80010f60: 19 07 07 13 addi	a4, a4, 400
0x80010f64: 00 f7 07 33 add	a4, a4, a5
0x80010f68: 01 01 07 93 addi	a5, sp, 16
0x80010f6c: 00 f7 07 b3 add	a5, a4, a5
0x80010f70: 80 00 07 37 lui	a4, 524288
0x80010f74: 00 17 07 13 addi	a4, a4, 1
0x80010f78: f8 e7 a8 23 sw	a4, -112(a5)
0x80010f7c: f8 e7 aa 23 sw	a4, -108(a5)
0x80010f80: f9 07 a6 83 lw	a3, -112(a5)
0x80010f84: f9 47 a7 03 lw	a4, -108(a5)
0x80010f88: 08 e6 d2 63 bge	a3, a4, 0x8001100c
0x8001100c: 00 00 57 37 lui	a4, 5
0x80011010: ff ff e7 b7 lui	a5, 1048574
0x80011014: 19 07 07 13 addi	a4, a4, 400
0x80011018: 00 f7 07 33 add	a4, a4, a5
0x8001101c: 01 01 07 93 addi	a5, sp, 16
0x80011020: 00 f7 07 b3 add	a5, a4, a5
0x80011024: 80 00 07 37 lui	a4, 524288
0x80011028: 00 17 07 13 addi	a4, a4, 1
0x8001102c: f8 e7 ac 23 sw	a4, -104(a5)
0x80011030: ff e0 07 13 addi	a4, zero, -2
0x80011034: f8 e7 ae 23 sw	a4, -100(a5)
0x80011038: f9 87 a6 83 lw	a3, -104(a5)
0x8001103c: f9 c7 a7 03 lw	a4, -100(a5)
0x80011040: 08 e6 c2 63 blt	a3, a4, 0x800110c4
0x800110c4: 00 00 57 37 lui	a4, 5
0x800110c8: ff ff e7 b7 lui	a5, 1048574
0x800110cc: 19 07 07 13 addi	a4, a4, 400
0x800110d0: 00 f7 07 33 add	a4, a4, a5
0x800110d4: 01 01 07 93 addi	a5, sp, 16
0x800110d8: 00 f7 07 b3 add	a5, a4, a5
0x800110dc: 80 00 07 37 lui	a4, 524288
0x800110e0: 00 17 07 13 addi	a4, a4, 1
0x800110e4: fa e7 a0 23 sw	a4, -96(a5)
0x800110e8: ff f0 07 13 addi	a4, zero, -1
0x800110ec: fa e7 a2 23 sw	a4, -92(a5)
0x800110f0: fa 07 a6 83 lw	a3, -96(a5)
0x800110f4: fa 47 a7 03 lw	a4, -92(a5)
0x800110f8: 08 e6 c2 63 blt	a3, a4, 0x8001117c
0x8001117c: 00 00 57 37 lui	a4, 5
0x80011180: ff ff e7 b7 lui	a5, 1048574
0x80011184: 19 07 07 13 addi	a4, a4, 400
0x80011188: 00 f7 07 33 add	a4, a4, a5
0x8001118c: 01 01 07 93 addi	a5, sp, 16
0x80011190: 00 f7 07 b3 add	a5, a4, a5
0x80011194: 80 00 07 37 lui	a4, 524288
0x80011198: 00 17 07 13 addi	a4, a4, 1
0x8001119c: fa e7 a4 23 sw	a4, -88(a5)
0x800111a0: fa 07 a6 23 sw	zero, -84(a5)
0x800111a4: fa 87 a6 83 lw	a3, -88(a5)
0x800111a8: fa c7 a7 03 lw	a4, -84(a5)
0x800111ac: 08 e6 c2 63 blt	a3, a4, 0x80011230
0x80011230: 00 00 57 37 lui	a4, 5
0x80011234: ff ff e7 b7 lui	a5, 1048574
0x80011238: 19 07 07 13 addi	a4, a4, 400
0x8001123c: 00 f7 07 33 add	a4, a4, a5
0x80011240: 01 01 07 93 addi	a5, sp, 16
0x80011244: 00 f7 07 b3 add	a5, a4, a5
0x80011248: 80 00 07 37 lui	a4, 524288
0x8001124c: 00 17 07 13 addi	a4, a4, 1
0x80011250: fa e7 a8 23 sw	a4, -80(a5)
0x80011254: 00 10 07 13 addi	a4, zero, 1
0x80011258: fa e7 aa 23 sw	a4, -76(a5)
0x8001125c: fb 07 a6 83 lw	a3, -80(a5)
0x80011260: fb 47 a7 03 lw	a4, -76(a5)
0x80011264: 08 e6 c2 63 blt	a3, a4, 0x800112e8
0x800112e8: 00 00 57 37 lui	a4, 5
0x800112ec: ff ff e7 b7 lui	a5, 1048574
0x800112f0: 19 07 07 13 addi	a4, a4, 400
0x800112f4: 00 f7 07 33 add	a4, a4, a5
0x800112f8: 01 01 07 93 addi	a5, sp, 16
0x800112fc: 00 f7 07 b3 add	a5, a4, a5
0x80011300: 80 00 07 37 lui	a4, 524288
0x80011304: 00 17 07 13 addi	a4, a4, 1
0x80011308: fa e7 ac 23 sw	a4, -72(a5)
0x8001130c: 00 20 07 13 addi	a4, zero, 2
0x80011310: fa e7 ae 23 sw	a4, -68(a5)
0x80011314: fb 87 a6 83 lw	a3, -72(a5)
0x80011318: fb c7 a7 03 lw	a4, -68(a5)
0x8001131c: 08 e6 c2 63 blt	a3, a4, 0x800113a0
0x800113a0: 00 00 56 b7 lui	a3, 5
0x800113a4: ff ff e7 b7 lui	a5, 1048574
0x800113a8: 19 06 86 93 addi	a3, a3, 400
0x800113ac: 00 f6 86 b3 add	a3, a3, a5
0x800113b0: 80 00 07 37 lui	a4, 524288
0x800113b4: 01 01 07 93 addi	a5, sp, 16
0x800113b8: 00 f6 87 b3 add	a5, a3, a5
0x800113bc: 00 17 06 93 addi	a3, a4, 1
0x800113c0: fc d7 a0 23 sw	a3, -64(a5)
0x800113c4: ff e7 47 13 xori	a4, a4, -2
0x800113c8: fc e7 a2 23 sw	a4, -60(a5)
0x800113cc: fc 07 a6 83 lw	a3, -64(a5)
0x800113d0: fc 47 a7 03 lw	a4, -60(a5)
0x800113d4: 08 e6 c2 63 blt	a3, a4, 0x80011458
0x80011458: 00 00 56 b7 lui	a3, 5
0x8001145c: ff ff e7 b7 lui	a5, 1048574
0x80011460: 19 06 86 93 addi	a3, a3, 400
0x80011464: 00 f6 86 b3 add	a3, a3, a5
0x80011468: 80 00 07 37 lui	a4, 524288
0x8001146c: 01 01 07 93 addi	a5, sp, 16
0x80011470: 00 f6 87 b3 add	a5, a3, a5
0x80011474: 00 17 06 93 addi	a3, a4, 1
0x80011478: fc d7 a4 23 sw	a3, -56(a5)
0x8001147c: ff f7 47 13 xori	a4, a4, -1
0x80011480: fc e7 a6 23 sw	a4, -52(a5)
0x80011484: fc 87 a6 83 lw	a3, -56(a5)
0x80011488: fc c7 a7 03 lw	a4, -52(a5)
0x8001148c: 08 e6 c2 63 blt	a3, a4, 0x80011510
0x80011510: 00 00 57 37 lui	a4, 5
0x80011514: ff ff e7 b7 lui	a5, 1048574
0x80011518: 19 07 07 13 addi	a4, a4, 400
0x8001151c: 00 f7 07 33 add	a4, a4, a5
0x80011520: 01 01 07 93 addi	a5, sp, 16
0x80011524: 00 f7 07 b3 add	a5, a4, a5
0x80011528: ff e0 07 13 addi	a4, zero, -2
0x8001152c: fc e7 a8 23 sw	a4, -48(a5)
0x80011530: fc e7 aa 23 sw	a4, -44(a5)
0x80011534: fd 07 a6 83 lw	a3, -48(a5)
0x80011538: fd 47 a7 03 lw	a4, -44(a5)
0x8001153c: 08 e6 d0 63 bge	a3, a4, 0x800115bc
0x800115bc: 00 00 57 37 lui	a4, 5
0x800115c0: ff ff e7 b7 lui	a5, 1048574
0x800115c4: 19 07 07 13 addi	a4, a4, 400
0x800115c8: 00 f7 07 33 add	a4, a4, a5
0x800115cc: 01 01 07 93 addi	a5, sp, 16
0x800115d0: 00 f7 07 b3 add	a5, a4, a5
0x800115d4: ff e0 07 13 addi	a4, zero, -2
0x800115d8: fc e7 ac 23 sw	a4, -40(a5)
0x800115dc: ff f0 07 13 addi	a4, zero, -1
0x800115e0: fc e7 ae 23 sw	a4, -36(a5)
0x800115e4: fd 87 a6 83 lw	a3, -40(a5)
0x800115e8: fd c7 a7 03 lw	a4, -36(a5)
0x800115ec: 08 e6 c0 63 blt	a3, a4, 0x8001166c
0x8001166c: 00 00 57 37 lui	a4, 5
0x80011670: ff ff e7 b7 lui	a5, 1048574
0x80011674: 19 07 07 13 addi	a4, a4, 400
0x80011678: 00 f7 07 33 add	a4, a4, a5
0x8001167c: 01 01 07 93 addi	a5, sp, 16
0x80011680: 00 f7 07 b3 add	a5, a4, a5
0x80011684: ff e0 07 13 addi	a4, zero, -2
0x80011688: fe e7 a0 23 sw	a4, -32(a5)
0x8001168c: fe 07 a2 23 sw	zero, -28(a5)
0x80011690: fe 07 a6 83 lw	a3, -32(a5)
0x80011694: fe 47 a7 03 lw	a4, -28(a5)
0x80011698: 08 e6 c0 63 blt	a3, a4, 0x80011718
0x80011718: 00 00 57 37 lui	a4, 5
0x8001171c: ff ff e7 b7 lui	a5, 1048574
0x80011720: 19 07 07 13 addi	a4, a4, 400
0x80011724: 00 f7 07 33 add	a4, a4, a5
0x80011728: 01 01 07 93 addi	a5, sp, 16
0x8001172c: 00 f7 07 b3 add	a5, a4, a5
0x80011730: ff e0 07 13 addi	a4, zero, -2
0x80011734: fe e7 a4 23 sw	a4, -24(a5)
0x80011738: 00 10 07 13 addi	a4, zero, 1
0x8001173c: fe e7 a6 23 sw	a4, -20(a5)
0x80011740: fe 87 a6 83 lw	a3, -24(a5)
0x80011744: fe c7 a7 03 lw	a4, -20(a5)
0x80011748: 08 e6 c0 63 blt	a3, a4, 0x800117c8
0x800117c8: 00 00 57 37 lui	a4, 5
0x800117cc: ff ff e7 b7 lui	a5, 1048574
0x800117d0: 19 07 07 13 addi	a4, a4, 400
0x800117d4: 00 f7 07 33 add	a4, a4, a5
0x800117d8: 01 01 07 93 addi	a5, sp, 16
0x800117dc: 00 f7 07 b3 add	a5, a4, a5
0x800117e0: ff e0 07 13 addi	a4, zero, -2
0x800117e4: fe e7 a8 23 sw	a4, -16(a5)
0x800117e8: 00 20 07 13 addi	a4, zero, 2
0x800117ec: fe e7 aa 23 sw	a4, -12(a5)
0x800117f0: ff 07 a6 83 lw	a3, -16(a5)
0x800117f4: ff 47 a7 03 lw	a4, -12(a5)
0x800117f8: 08 e6 c0 63 blt	a3, a4, 0x80011878
0x80011878: 00 00 57 37 lui	a4, 5
0x8001187c: ff ff e7 b7 lui	a5, 1048574
0x80011880: 19 07 07 13 addi	a4, a4, 400
0x80011884: 00 f7 07 33 add	a4, a4, a5
0x80011888: 01 01 07 93 addi	a5, sp, 16
0x8001188c: 00 f7 07 b3 add	a5, a4, a5
0x80011890: ff e0 07 13 addi	a4, zero, -2
0x80011894: fe e7 ac 23 sw	a4, -8(a5)
0x80011898: 80 00 07 37 lui	a4, 524288
0x8001189c: ff e7 47 13 xori	a4, a4, -2
0x800118a0: fe e7 ae 23 sw	a4, -4(a5)
0x800118a4: ff 87 a6 83 lw	a3, -8(a5)
0x800118a8: ff c7 a7 03 lw	a4, -4(a5)
0x800118ac: 08 e6 c2 63 blt	a3, a4, 0x80011930
0x80011930: 00 00 57 37 lui	a4, 5
0x80011934: ff ff e7 b7 lui	a5, 1048574
0x80011938: 19 07 07 13 addi	a4, a4, 400
0x8001193c: 00 f7 07 33 add	a4, a4, a5
0x80011940: 01 01 07 93 addi	a5, sp, 16
0x80011944: 00 f7 07 b3 add	a5, a4, a5
0x80011948: ff e0 07 13 addi	a4, zero, -2
0x8001194c: 00 e7 a0 23 sw	a4, 0(a5)
0x80011950: 80 00 07 37 lui	a4, 524288
0x80011954: ff f7 47 13 xori	a4, a4, -1
0x80011958: 00 e7 a2 23 sw	a4, 4(a5)
0x8001195c: 00 07 a6 83 lw	a3, 0(a5)
0x80011960: 00 47 a7 03 lw	a4, 4(a5)
0x80011964: 08 e6 c2 63 blt	a3, a4, 0x800119e8
0x800119e8: 00 00 57 37 lui	a4, 5
0x800119ec: ff ff e7 b7 lui	a5, 1048574
0x800119f0: 19 07 07 13 addi	a4, a4, 400
0x800119f4: 00 f7 07 33 add	a4, a4, a5
0x800119f8: 01 01 07 93 addi	a5, sp, 16
0x800119fc: 00 f7 07 b3 add	a5, a4, a5
0x80011a00: ff f0 07 13 addi	a4, zero, -1
0x80011a04: 00 e7 a4 23 sw	a4, 8(a5)
0x80011a08: 00 e7 a6 23 sw	a4, 12(a5)
0x80011a0c: 00 87 a6 83 lw	a3, 8(a5)
0x80011a10: 00 c7 a7 03 lw	a4, 12(a5)
0x80011a14: 08 e6 d0 63 bge	a3, a4, 0x80011a94
0x80011a94: 00 00 57 37 lui	a4, 5
0x80011a98: ff ff e7 b7 lui	a5, 1048574
0x80011a9c: 19 07 07 13 addi	a4, a4, 400
0x80011aa0: 00 f7 07 33 add	a4, a4, a5
0x80011aa4: 01 01 07 93 addi	a5, sp, 16
0x80011aa8: 00 f7 07 b3 add	a5, a4, a5
0x80011aac: ff f0 07 13 addi	a4, zero, -1
0x80011ab0: 00 e7 a8 23 sw	a4, 16(a5)
0x80011ab4: 00 07 aa 23 sw	zero, 20(a5)
0x80011ab8: 01 07 a6 83 lw	a3, 16(a5)
0x80011abc: 01 47 a7 03 lw	a4, 20(a5)
0x80011ac0: 08 e6 c0 63 blt	a3, a4, 0x80011b40
0x80011b40: 00 00 57 37 lui	a4, 5
0x80011b44: ff ff e7 b7 lui	a5, 1048574
0x80011b48: 19 07 07 13 addi	a4, a4, 400
0x80011b4c: 00 f7 07 33 add	a4, a4, a5
0x80011b50: 01 01 07 93 addi	a5, sp, 16
0x80011b54: 00 f7 07 b3 add	a5, a4, a5
0x80011b58: ff f0 07 13 addi	a4, zero, -1
0x80011b5c: 00 e7 ac 23 sw	a4, 24(a5)
0x80011b60: 00 10 07 13 addi	a4, zero, 1
0x80011b64: 00 e7 ae 23 sw	a4, 28(a5)
0x80011b68: 01 87 a6 83 lw	a3, 24(a5)
0x80011b6c: 01 c7 a7 03 lw	a4, 28(a5)
0x80011b70: 08 e6 c0 63 blt	a3, a4, 0x80011bf0
0x80011bf0: 00 00 57 37 lui	a4, 5
0x80011bf4: ff ff e7 b7 lui	a5, 1048574
0x80011bf8: 19 07 07 13 addi	a4, a4, 400
0x80011bfc: 00 f7 07 33 add	a4, a4, a5
0x80011c00: 01 01 07 93 addi	a5, sp, 16
0x80011c04: 00 f7 07 b3 add	a5, a4, a5
0x80011c08: ff f0 07 13 addi	a4, zero, -1
0x80011c0c: 02 e7 a0 23 sw	a4, 32(a5)
0x80011c10: 00 20 07 13 addi	a4, zero, 2
0x80011c14: 02 e7 a2 23 sw	a4, 36(a5)
0x80011c18: 02 07 a6 83 lw	a3, 32(a5)
0x80011c1c: 02 47 a7 03 lw	a4, 36(a5)
0x80011c20: 08 e6 c0 63 blt	a3, a4, 0x80011ca0
0x80011ca0: 00 00 57 37 lui	a4, 5
0x80011ca4: ff ff e7 b7 lui	a5, 1048574
0x80011ca8: 19 07 07 13 addi	a4, a4, 400
0x80011cac: 00 f7 07 33 add	a4, a4, a5
0x80011cb0: 01 01 07 93 addi	a5, sp, 16
0x80011cb4: 00 f7 07 b3 add	a5, a4, a5
0x80011cb8: ff f0 07 13 addi	a4, zero, -1
0x80011cbc: 02 e7 a4 23 sw	a4, 40(a5)
0x80011cc0: 80 00 07 37 lui	a4, 524288
0x80011cc4: ff e7 47 13 xori	a4, a4, -2
0x80011cc8: 02 e7 a6 23 sw	a4, 44(a5)
0x80011ccc: 02 87 a6 83 lw	a3, 40(a5)
0x80011cd0: 02 c7 a7 03 lw	a4, 44(a5)
0x80011cd4: 08 e6 c2 63 blt	a3, a4, 0x80011d58
0x80011d58: 00 00 57 37 lui	a4, 5
0x80011d5c: ff ff e7 b7 lui	a5, 1048574
0x80011d60: 19 07 07 13 addi	a4, a4, 400
0x80011d64: 00 f7 07 33 add	a4, a4, a5
0x80011d68: 01 01 07 93 addi	a5, sp, 16
0x80011d6c: 00 f7 07 b3 add	a5, a4, a5
0x80011d70: ff f0 07 13 addi	a4, zero, -1
0x80011d74: 02 e7 a8 23 sw	a4, 48(a5)
0x80011d78: 80 00 07 37 lui	a4, 524288
0x80011d7c: ff f7 47 13 xori	a4, a4, -1
0x80011d80: 02 e7 aa 23 sw	a4, 52(a5)
0x80011d84: 03 07 a6 83 lw	a3, 48(a5)
0x80011d88: 03 47 a7 03 lw	a4, 52(a5)
0x80011d8c: 08 e6 c2 63 blt	a3, a4, 0x80011e10
0x80011e10: 00 00 57 37 lui	a4, 5
0x80011e14: ff ff e7 b7 lui	a5, 1048574
0x80011e18: 19 07 07 13 addi	a4, a4, 400
0x80011e1c: 00 f7 07 33 add	a4, a4, a5
0x80011e20: 01 01 07 93 addi	a5, sp, 16
0x80011e24: 00 f7 07 b3 add	a5, a4, a5
0x80011e28: 02 07 ac 23 sw	zero, 56(a5)
0x80011e2c: 02 07 ae 23 sw	zero, 60(a5)
0x80011e30: 03 87 a6 83 lw	a3, 56(a5)
0x80011e34: 03 c7 a7 03 lw	a4, 60(a5)
0x80011e38: 08 e6 d0 63 bge	a3, a4, 0x80011eb8
0x80011eb8: 00 00 57 37 lui	a4, 5
0x80011ebc: ff ff e7 b7 lui	a5, 1048574
0x80011ec0: 19 07 07 13 addi	a4, a4, 400
0x80011ec4: 00 f7 07 33 add	a4, a4, a5
0x80011ec8: 01 01 07 93 addi	a5, sp, 16
0x80011ecc: 00 f7 07 b3 add	a5, a4, a5
0x80011ed0: 04 07 a0 23 sw	zero, 64(a5)
0x80011ed4: 00 10 07 13 addi	a4, zero, 1
0x80011ed8: 04 e7 a2 23 sw	a4, 68(a5)
0x80011edc: 04 07 a6 83 lw	a3, 64(a5)
0x80011ee0: 04 47 a7 03 lw	a4, 68(a5)
0x80011ee4: 08 e6 c0 63 blt	a3, a4, 0x80011f64
0x80011f64: 00 00 57 37 lui	a4, 5
0x80011f68: ff ff e7 b7 lui	a5, 1048574
0x80011f6c: 19 07 07 13 addi	a4, a4, 400
0x80011f70: 00 f7 07 33 add	a4, a4, a5
0x80011f74: 01 01 07 93 addi	a5, sp, 16
0x80011f78: 00 f7 07 b3 add	a5, a4, a5
0x80011f7c: 04 07 a4 23 sw	zero, 72(a5)
0x80011f80: 00 20 07 13 addi	a4, zero, 2
0x80011f84: 04 e7 a6 23 sw	a4, 76(a5)
0x80011f88: 04 87 a6 83 lw	a3, 72(a5)
0x80011f8c: 04 c7 a7 03 lw	a4, 76(a5)
0x80011f90: 08 e6 c0 63 blt	a3, a4, 0x80012010
0x80012010: 00 00 57 37 lui	a4, 5
0x80012014: ff ff e7 b7 lui	a5, 1048574
0x80012018: 19 07 07 13 addi	a4, a4, 400
0x8001201c: 00 f7 07 33 add	a4, a4, a5
0x80012020: 01 01 07 93 addi	a5, sp, 16
0x80012024: 00 f7 07 b3 add	a5, a4, a5
0x80012028: 80 00 07 37 lui	a4, 524288
0x8001202c: 04 07 a8 23 sw	zero, 80(a5)
0x80012030: ff e7 47 13 xori	a4, a4, -2
0x80012034: 04 e7 aa 23 sw	a4, 84(a5)
0x80012038: 05 07 a6 83 lw	a3, 80(a5)
0x8001203c: 05 47 a7 03 lw	a4, 84(a5)
0x80012040: 08 e6 c2 63 blt	a3, a4, 0x800120c4
0x800120c4: 00 00 57 37 lui	a4, 5
0x800120c8: ff ff e7 b7 lui	a5, 1048574
0x800120cc: 19 07 07 13 addi	a4, a4, 400
0x800120d0: 00 f7 07 33 add	a4, a4, a5
0x800120d4: 01 01 07 93 addi	a5, sp, 16
0x800120d8: 00 f7 07 b3 add	a5, a4, a5
0x800120dc: 80 00 07 37 lui	a4, 524288
0x800120e0: 04 07 ac 23 sw	zero, 88(a5)
0x800120e4: ff f7 47 13 xori	a4, a4, -1
0x800120e8: 04 e7 ae 23 sw	a4, 92(a5)
0x800120ec: 05 87 a6 83 lw	a3, 88(a5)
0x800120f0: 05 c7 a7 03 lw	a4, 92(a5)
0x800120f4: 08 e6 c2 63 blt	a3, a4, 0x80012178
0x80012178: 00 00 57 37 lui	a4, 5
0x8001217c: ff ff e7 b7 lui	a5, 1048574
0x80012180: 19 07 07 13 addi	a4, a4, 400
0x80012184: 00 f7 07 33 add	a4, a4, a5
0x80012188: 01 01 07 93 addi	a5, sp, 16
0x8001218c: 00 f7 07 b3 add	a5, a4, a5
0x80012190: 00 10 07 13 addi	a4, zero, 1
0x80012194: 06 e7 a0 23 sw	a4, 96(a5)
0x80012198: 06 e7 a2 23 sw	a4, 100(a5)
0x8001219c: 06 07 a6 83 lw	a3, 96(a5)
0x800121a0: 06 47 a7 03 lw	a4, 100(a5)
0x800121a4: 08 e6 d0 63 bge	a3, a4, 0x80012224
0x80012224: 00 00 57 37 lui	a4, 5
0x80012228: ff ff e7 b7 lui	a5, 1048574
0x8001222c: 19 07 07 13 addi	a4, a4, 400
0x80012230: 00 f7 07 33 add	a4, a4, a5
0x80012234: 01 01 07 93 addi	a5, sp, 16
0x80012238: 00 f7 07 b3 add	a5, a4, a5
0x8001223c: 00 10 07 13 addi	a4, zero, 1
0x80012240: 06 e7 a4 23 sw	a4, 104(a5)
0x80012244: 00 20 07 13 addi	a4, zero, 2
0x80012248: 06 e7 a6 23 sw	a4, 108(a5)
0x8001224c: 06 87 a6 83 lw	a3, 104(a5)
0x80012250: 06 c7 a7 03 lw	a4, 108(a5)
0x80012254: 08 e6 c0 63 blt	a3, a4, 0x800122d4
0x800122d4: 00 00 57 37 lui	a4, 5
0x800122d8: ff ff e7 b7 lui	a5, 1048574
0x800122dc: 19 07 07 13 addi	a4, a4, 400
0x800122e0: 00 f7 07 33 add	a4, a4, a5
0x800122e4: 01 01 07 93 addi	a5, sp, 16
0x800122e8: 00 f7 07 b3 add	a5, a4, a5
0x800122ec: 00 10 07 13 addi	a4, zero, 1
0x800122f0: 06 e7 a8 23 sw	a4, 112(a5)
0x800122f4: 80 00 07 37 lui	a4, 524288
0x800122f8: ff e7 47 13 xori	a4, a4, -2
0x800122fc: 06 e7 aa 23 sw	a4, 116(a5)
0x80012300: 07 07 a6 83 lw	a3, 112(a5)
0x80012304: 07 47 a7 03 lw	a4, 116(a5)
0x80012308: 08 e6 c2 63 blt	a3, a4, 0x8001238c
0x8001238c: 00 00 57 37 lui	a4, 5
0x80012390: ff ff e7 b7 lui	a5, 1048574
0x80012394: 19 07 07 13 addi	a4, a4, 400
0x80012398: 00 f7 07 33 add	a4, a4, a5
0x8001239c: 01 01 07 93 addi	a5, sp, 16
0x800123a0: 00 f7 07 b3 add	a5, a4, a5
0x800123a4: 00 10 07 13 addi	a4, zero, 1
0x800123a8: 06 e7 ac 23 sw	a4, 120(a5)
0x800123ac: 80 00 07 37 lui	a4, 524288
0x800123b0: ff f7 47 13 xori	a4, a4, -1
0x800123b4: 06 e7 ae 23 sw	a4, 124(a5)
0x800123b8: 07 87 a6 83 lw	a3, 120(a5)
0x800123bc: 07 c7 a7 03 lw	a4, 124(a5)
0x800123c0: 08 e6 c2 63 blt	a3, a4, 0x80012444
0x80012444: 00 00 57 37 lui	a4, 5
0x80012448: ff ff e7 b7 lui	a5, 1048574
0x8001244c: 19 07 07 13 addi	a4, a4, 400
0x80012450: 00 f7 07 33 add	a4, a4, a5
0x80012454: 01 01 07 93 addi	a5, sp, 16
0x80012458: 00 f7 07 b3 add	a5, a4, a5
0x8001245c: 00 20 07 13 addi	a4, zero, 2
0x80012460: 08 e7 a0 23 sw	a4, 128(a5)
0x80012464: 08 e7 a2 23 sw	a4, 132(a5)
0x80012468: 08 07 a6 83 lw	a3, 128(a5)
0x8001246c: 08 47 a7 03 lw	a4, 132(a5)
0x80012470: 08 e6 d0 63 bge	a3, a4, 0x800124f0
0x800124f0: 00 00 57 37 lui	a4, 5
0x800124f4: ff ff e7 b7 lui	a5, 1048574
0x800124f8: 19 07 07 13 addi	a4, a4, 400
0x800124fc: 00 f7 07 33 add	a4, a4, a5
0x80012500: 01 01 07 93 addi	a5, sp, 16
0x80012504: 00 f7 07 b3 add	a5, a4, a5
0x80012508: 00 20 07 13 addi	a4, zero, 2
0x8001250c: 08 e7 a4 23 sw	a4, 136(a5)
0x80012510: 80 00 07 37 lui	a4, 524288
0x80012514: ff e7 47 13 xori	a4, a4, -2
0x80012518: 08 e7 a6 23 sw	a4, 140(a5)
0x8001251c: 08 87 a6 83 lw	a3, 136(a5)
0x80012520: 08 c7 a7 03 lw	a4, 140(a5)
0x80012524: 08 e6 c2 63 blt	a3, a4, 0x800125a8
0x800125a8: 00 00 57 37 lui	a4, 5
0x800125ac: ff ff e7 b7 lui	a5, 1048574
0x800125b0: 19 07 07 13 addi	a4, a4, 400
0x800125b4: 00 f7 07 33 add	a4, a4, a5
0x800125b8: 01 01 07 93 addi	a5, sp, 16
0x800125bc: 00 f7 07 b3 add	a5, a4, a5
0x800125c0: 00 20 07 13 addi	a4, zero, 2
0x800125c4: 08 e7 a8 23 sw	a4, 144(a5)
0x800125c8: 80 00 07 37 lui	a4, 524288
0x800125cc: ff f7 47 13 xori	a4, a4, -1
0x800125d0: 08 e7 aa 23 sw	a4, 148(a5)
0x800125d4: 09 07 a6 83 lw	a3, 144(a5)
0x800125d8: 09 47 a7 03 lw	a4, 148(a5)
0x800125dc: 08 e6 c2 63 blt	a3, a4, 0x80012660
0x80012660: 00 00 57 37 lui	a4, 5
0x80012664: ff ff e7 b7 lui	a5, 1048574
0x80012668: 19 07 07 13 addi	a4, a4, 400
0x8001266c: 00 f7 07 33 add	a4, a4, a5
0x80012670: 01 01 07 93 addi	a5, sp, 16
0x80012674: 00 f7 07 b3 add	a5, a4, a5
0x80012678: 80 00 07 37 lui	a4, 524288
0x8001267c: ff e7 47 13 xori	a4, a4, -2
0x80012680: 08 e7 ac 23 sw	a4, 152(a5)
0x80012684: 08 e7 ae 23 sw	a4, 156(a5)
0x80012688: 09 87 a6 83 lw	a3, 152(a5)
0x8001268c: 09 c7 a7 03 lw	a4, 156(a5)
0x80012690: 08 e6 d2 63 bge	a3, a4, 0x80012714
0x80012714: 00 00 56 b7 lui	a3, 5
0x80012718: ff ff e7 b7 lui	a5, 1048574
0x8001271c: 19 06 86 93 addi	a3, a3, 400
0x80012720: 00 f6 86 b3 add	a3, a3, a5
0x80012724: 80 00 07 37 lui	a4, 524288
0x80012728: 01 01 07 93 addi	a5, sp, 16
0x8001272c: 00 f6 87 b3 add	a5, a3, a5
0x80012730: ff e7 46 93 xori	a3, a4, -2
0x80012734: 0a d7 a0 23 sw	a3, 160(a5)
0x80012738: ff f7 47 13 xori	a4, a4, -1
0x8001273c: 0a e7 a2 23 sw	a4, 164(a5)
0x80012740: 0a 07 a6 83 lw	a3, 160(a5)
0x80012744: 0a 47 a7 03 lw	a4, 164(a5)
0x80012748: 08 e6 c2 63 blt	a3, a4, 0x800127cc
0x800127cc: 00 00 57 37 lui	a4, 5
0x800127d0: ff ff e7 b7 lui	a5, 1048574
0x800127d4: 19 07 07 13 addi	a4, a4, 400
0x800127d8: 00 f7 07 33 add	a4, a4, a5
0x800127dc: 01 01 07 93 addi	a5, sp, 16
0x800127e0: 00 f7 07 b3 add	a5, a4, a5
0x800127e4: 80 00 07 37 lui	a4, 524288
0x800127e8: ff f7 47 13 xori	a4, a4, -1
0x800127ec: 0a e7 a4 23 sw	a4, 168(a5)
0x800127f0: 0a e7 a6 23 sw	a4, 172(a5)
0x800127f4: 0a 87 a6 83 lw	a3, 168(a5)
0x800127f8: 0a c7 a7 03 lw	a4, 172(a5)
0x800127fc: 08 e6 d2 63 bge	a3, a4, 0x80012880
0x80012880: 00 00 57 37 lui	a4, 5
0x80012884: ff ff e7 b7 lui	a5, 1048574
0x80012888: 19 07 07 13 addi	a4, a4, 400
0x8001288c: 00 f7 07 33 add	a4, a4, a5
0x80012890: 01 01 07 93 addi	a5, sp, 16
0x80012894: 00 f7 07 b3 add	a5, a4, a5
0x80012898: 80 00 07 37 lui	a4, 524288
0x8001289c: 0a e7 a8 23 sw	a4, 176(a5)
0x800128a0: 0a e7 aa 23 sw	a4, 180(a5)
0x800128a4: 0b 07 a6 83 lw	a3, 176(a5)
0x800128a8: 0b 47 a7 03 lw	a4, 180(a5)
0x800128ac: 08 d7 50 63 bge	a4, a3, 0x8001292c
0x8001292c: 00 00 57 37 lui	a4, 5
0x80012930: ff ff e7 b7 lui	a5, 1048574
0x80012934: 19 07 07 13 addi	a4, a4, 400
0x80012938: 00 f7 07 33 add	a4, a4, a5
0x8001293c: 01 01 07 93 addi	a5, sp, 16
0x80012940: 00 f7 07 b3 add	a5, a4, a5
0x80012944: 80 00 07 37 lui	a4, 524288
0x80012948: 0a e7 ac 23 sw	a4, 184(a5)
0x8001294c: 00 17 07 13 addi	a4, a4, 1
0x80012950: 0a e7 ae 23 sw	a4, 188(a5)
0x80012954: 0b 87 a6 83 lw	a3, 184(a5)
0x80012958: 0b c7 a7 03 lw	a4, 188(a5)
0x8001295c: 08 d7 52 63 bge	a4, a3, 0x800129e0
0x800129e0: 00 00 57 37 lui	a4, 5
0x800129e4: ff ff e7 b7 lui	a5, 1048574
0x800129e8: 19 07 07 13 addi	a4, a4, 400
0x800129ec: 00 f7 07 33 add	a4, a4, a5
0x800129f0: 01 01 07 93 addi	a5, sp, 16
0x800129f4: 00 f7 07 b3 add	a5, a4, a5
0x800129f8: 80 00 07 37 lui	a4, 524288
0x800129fc: 0c e7 a0 23 sw	a4, 192(a5)
0x80012a00: ff e0 07 13 addi	a4, zero, -2
0x80012a04: 0c e7 a2 23 sw	a4, 196(a5)
0x80012a08: 0c 07 a6 83 lw	a3, 192(a5)
0x80012a0c: 0c 47 a7 03 lw	a4, 196(a5)
0x80012a10: 08 d7 50 63 bge	a4, a3, 0x80012a90
0x80012a90: 00 00 57 37 lui	a4, 5
0x80012a94: ff ff e7 b7 lui	a5, 1048574
0x80012a98: 19 07 07 13 addi	a4, a4, 400
0x80012a9c: 00 f7 07 33 add	a4, a4, a5
0x80012aa0: 01 01 07 93 addi	a5, sp, 16
0x80012aa4: 00 f7 07 b3 add	a5, a4, a5
0x80012aa8: 80 00 07 37 lui	a4, 524288
0x80012aac: 0c e7 a4 23 sw	a4, 200(a5)
0x80012ab0: ff f0 07 13 addi	a4, zero, -1
0x80012ab4: 0c e7 a6 23 sw	a4, 204(a5)
0x80012ab8: 0c 87 a6 83 lw	a3, 200(a5)
0x80012abc: 0c c7 a7 03 lw	a4, 204(a5)
0x80012ac0: 08 d7 50 63 bge	a4, a3, 0x80012b40
0x80012b40: 00 00 57 37 lui	a4, 5
0x80012b44: ff ff e7 b7 lui	a5, 1048574
0x80012b48: 19 07 07 13 addi	a4, a4, 400
0x80012b4c: 00 f7 07 33 add	a4, a4, a5
0x80012b50: 01 01 07 93 addi	a5, sp, 16
0x80012b54: 00 f7 07 b3 add	a5, a4, a5
0x80012b58: 80 00 07 37 lui	a4, 524288
0x80012b5c: 0c e7 a8 23 sw	a4, 208(a5)
0x80012b60: 0c 07 aa 23 sw	zero, 212(a5)
0x80012b64: 0d 07 a6 83 lw	a3, 208(a5)
0x80012b68: 0d 47 a7 03 lw	a4, 212(a5)
0x80012b6c: 08 d7 50 63 bge	a4, a3, 0x80012bec
0x80012bec: 00 00 57 37 lui	a4, 5
0x80012bf0: ff ff e7 b7 lui	a5, 1048574
0x80012bf4: 19 07 07 13 addi	a4, a4, 400
0x80012bf8: 00 f7 07 33 add	a4, a4, a5
0x80012bfc: 01 01 07 93 addi	a5, sp, 16
0x80012c00: 00 f7 07 b3 add	a5, a4, a5
0x80012c04: 80 00 07 37 lui	a4, 524288
0x80012c08: 0c e7 ac 23 sw	a4, 216(a5)
0x80012c0c: 00 10 07 13 addi	a4, zero, 1
0x80012c10: 0c e7 ae 23 sw	a4, 220(a5)
0x80012c14: 0d 87 a6 83 lw	a3, 216(a5)
0x80012c18: 0d c7 a7 03 lw	a4, 220(a5)
0x80012c1c: 08 d7 50 63 bge	a4, a3, 0x80012c9c
0x80012c9c: 00 00 57 37 lui	a4, 5
0x80012ca0: ff ff e7 b7 lui	a5, 1048574
0x80012ca4: 19 07 07 13 addi	a4, a4, 400
0x80012ca8: 00 f7 07 33 add	a4, a4, a5
0x80012cac: 01 01 07 93 addi	a5, sp, 16
0x80012cb0: 00 f7 07 b3 add	a5, a4, a5
0x80012cb4: 80 00 07 37 lui	a4, 524288
0x80012cb8: 0e e7 a0 23 sw	a4, 224(a5)
0x80012cbc: 00 20 07 13 addi	a4, zero, 2
0x80012cc0: 0e e7 a2 23 sw	a4, 228(a5)
0x80012cc4: 0e 07 a6 83 lw	a3, 224(a5)
0x80012cc8: 0e 47 a7 03 lw	a4, 228(a5)
0x80012ccc: 08 d7 50 63 bge	a4, a3, 0x80012d4c
0x80012d4c: 00 00 57 37 lui	a4, 5
0x80012d50: ff ff e7 b7 lui	a5, 1048574
0x80012d54: 19 07 07 13 addi	a4, a4, 400
0x80012d58: 00 f7 07 33 add	a4, a4, a5
0x80012d5c: 01 01 07 93 addi	a5, sp, 16
0x80012d60: 00 f7 07 b3 add	a5, a4, a5
0x80012d64: 80 00 07 37 lui	a4, 524288
0x80012d68: 0e e7 a4 23 sw	a4, 232(a5)
0x80012d6c: ff e7 47 13 xori	a4, a4, -2
0x80012d70: 0e e7 a6 23 sw	a4, 236(a5)
0x80012d74: 0e 87 a6 83 lw	a3, 232(a5)
0x80012d78: 0e c7 a7 03 lw	a4, 236(a5)
0x80012d7c: 08 d7 52 63 bge	a4, a3, 0x80012e00
0x80012e00: 00 00 57 37 lui	a4, 5
0x80012e04: ff ff e7 b7 lui	a5, 1048574
0x80012e08: 19 07 07 13 addi	a4, a4, 400
0x80012e0c: 00 f7 07 33 add	a4, a4, a5
0x80012e10: 01 01 07 93 addi	a5, sp, 16
0x80012e14: 00 f7 07 b3 add	a5, a4, a5
0x80012e18: 80 00 07 37 lui	a4, 524288
0x80012e1c: 0e e7 a8 23 sw	a4, 240(a5)
0x80012e20: ff f7 47 13 xori	a4, a4, -1
0x80012e24: 0e e7 aa 23 sw	a4, 244(a5)
0x80012e28: 0f 07 a6 83 lw	a3, 240(a5)
0x80012e2c: 0f 47 a7 03 lw	a4, 244(a5)
0x80012e30: 08 d7 52 63 bge	a4, a3, 0x80012eb4
0x80012eb4: 00 00 57 37 lui	a4, 5
0x80012eb8: ff ff e7 b7 lui	a5, 1048574
0x80012ebc: 19 07 07 13 addi	a4, a4, 400
0x80012ec0: 00 f7 07 33 add	a4, a4, a5
0x80012ec4: 01 01 07 93 addi	a5, sp, 16
0x80012ec8: 00 f7 07 b3 add	a5, a4, a5
0x80012ecc: 80 00 07 37 lui	a4, 524288
0x80012ed0: 00 17 07 13 addi	a4, a4, 1
0x80012ed4: 0e e7 ac 23 sw	a4, 248(a5)
0x80012ed8: 0e e7 ae 23 sw	a4, 252(a5)
0x80012edc: 0f 87 a6 83 lw	a3, 248(a5)
0x80012ee0: 0f c7 a7 03 lw	a4, 252(a5)
0x80012ee4: 08 d7 52 63 bge	a4, a3, 0x80012f68
0x80012f68: 00 00 57 37 lui	a4, 5
0x80012f6c: ff ff e7 b7 lui	a5, 1048574
0x80012f70: 19 07 07 13 addi	a4, a4, 400
0x80012f74: 00 f7 07 33 add	a4, a4, a5
0x80012f78: 01 01 07 93 addi	a5, sp, 16
0x80012f7c: 00 f7 07 b3 add	a5, a4, a5
0x80012f80: 80 00 07 37 lui	a4, 524288
0x80012f84: 00 17 07 13 addi	a4, a4, 1
0x80012f88: 10 e7 a0 23 sw	a4, 256(a5)
0x80012f8c: ff e0 07 13 addi	a4, zero, -2
0x80012f90: 10 e7 a2 23 sw	a4, 260(a5)
0x80012f94: 10 07 a6 83 lw	a3, 256(a5)
0x80012f98: 10 47 a7 03 lw	a4, 260(a5)
0x80012f9c: 08 d7 52 63 bge	a4, a3, 0x80013020
0x80013020: 00 00 57 37 lui	a4, 5
0x80013024: ff ff e7 b7 lui	a5, 1048574
0x80013028: 19 07 07 13 addi	a4, a4, 400
0x8001302c: 00 f7 07 33 add	a4, a4, a5
0x80013030: 01 01 07 93 addi	a5, sp, 16
0x80013034: 00 f7 07 b3 add	a5, a4, a5
0x80013038: 80 00 07 37 lui	a4, 524288
0x8001303c: 00 17 07 13 addi	a4, a4, 1
0x80013040: 10 e7 a4 23 sw	a4, 264(a5)
0x80013044: ff f0 07 13 addi	a4, zero, -1
0x80013048: 10 e7 a6 23 sw	a4, 268(a5)
0x8001304c: 10 87 a6 83 lw	a3, 264(a5)
0x80013050: 10 c7 a7 03 lw	a4, 268(a5)
0x80013054: 08 d7 52 63 bge	a4, a3, 0x800130d8
0x800130d8: 00 00 57 37 lui	a4, 5
0x800130dc: ff ff e7 b7 lui	a5, 1048574
0x800130e0: 19 07 07 13 addi	a4, a4, 400
0x800130e4: 00 f7 07 33 add	a4, a4, a5
0x800130e8: 01 01 07 93 addi	a5, sp, 16
0x800130ec: 00 f7 07 b3 add	a5, a4, a5
0x800130f0: 80 00 07 37 lui	a4, 524288
0x800130f4: 00 17 07 13 addi	a4, a4, 1
0x800130f8: 10 e7 a8 23 sw	a4, 272(a5)
0x800130fc: 10 07 aa 23 sw	zero, 276(a5)
0x80013100: 11 07 a6 83 lw	a3, 272(a5)
0x80013104: 11 47 a7 03 lw	a4, 276(a5)
0x80013108: 08 d7 52 63 bge	a4, a3, 0x8001318c
0x8001318c: 00 00 57 37 lui	a4, 5
0x80013190: ff ff e7 b7 lui	a5, 1048574
0x80013194: 19 07 07 13 addi	a4, a4, 400
0x80013198: 00 f7 07 33 add	a4, a4, a5
0x8001319c: 01 01 07 93 addi	a5, sp, 16
0x800131a0: 00 f7 07 b3 add	a5, a4, a5
0x800131a4: 80 00 07 37 lui	a4, 524288
0x800131a8: 00 17 07 13 addi	a4, a4, 1
0x800131ac: 10 e7 ac 23 sw	a4, 280(a5)
0x800131b0: 00 10 07 13 addi	a4, zero, 1
0x800131b4: 10 e7 ae 23 sw	a4, 284(a5)
0x800131b8: 11 87 a6 83 lw	a3, 280(a5)
0x800131bc: 11 c7 a7 03 lw	a4, 284(a5)
0x800131c0: 08 d7 52 63 bge	a4, a3, 0x80013244
0x80013244: 00 00 57 37 lui	a4, 5
0x80013248: ff ff e7 b7 lui	a5, 1048574
0x8001324c: 19 07 07 13 addi	a4, a4, 400
0x80013250: 00 f7 07 33 add	a4, a4, a5
0x80013254: 01 01 07 93 addi	a5, sp, 16
0x80013258: 00 f7 07 b3 add	a5, a4, a5
0x8001325c: 80 00 07 37 lui	a4, 524288
0x80013260: 00 17 07 13 addi	a4, a4, 1
0x80013264: 12 e7 a0 23 sw	a4, 288(a5)
0x80013268: 00 20 07 13 addi	a4, zero, 2
0x8001326c: 12 e7 a2 23 sw	a4, 292(a5)
0x80013270: 12 07 a6 83 lw	a3, 288(a5)
0x80013274: 12 47 a7 03 lw	a4, 292(a5)
0x80013278: 08 d7 52 63 bge	a4, a3, 0x800132fc
0x800132fc: 00 00 56 b7 lui	a3, 5
0x80013300: ff ff e7 b7 lui	a5, 1048574
0x80013304: 19 06 86 93 addi	a3, a3, 400
0x80013308: 00 f6 86 b3 add	a3, a3, a5
0x8001330c: 80 00 07 37 lui	a4, 524288
0x80013310: 01 01 07 93 addi	a5, sp, 16
0x80013314: 00 f6 87 b3 add	a5, a3, a5
0x80013318: 00 17 06 93 addi	a3, a4, 1
0x8001331c: 12 d7 a4 23 sw	a3, 296(a5)
0x80013320: ff e7 47 13 xori	a4, a4, -2
0x80013324: 12 e7 a6 23 sw	a4, 300(a5)
0x80013328: 12 87 a6 83 lw	a3, 296(a5)
0x8001332c: 12 c7 a7 03 lw	a4, 300(a5)
0x80013330: 08 d7 52 63 bge	a4, a3, 0x800133b4
0x800133b4: 00 00 56 b7 lui	a3, 5
0x800133b8: ff ff e7 b7 lui	a5, 1048574
0x800133bc: 19 06 86 93 addi	a3, a3, 400
0x800133c0: 00 f6 86 b3 add	a3, a3, a5
0x800133c4: 80 00 07 37 lui	a4, 524288
0x800133c8: 01 01 07 93 addi	a5, sp, 16
0x800133cc: 00 f6 87 b3 add	a5, a3, a5
0x800133d0: 00 17 06 93 addi	a3, a4, 1
0x800133d4: 12 d7 a8 23 sw	a3, 304(a5)
0x800133d8: ff f7 47 13 xori	a4, a4, -1
0x800133dc: 12 e7 aa 23 sw	a4, 308(a5)
0x800133e0: 13 07 a6 83 lw	a3, 304(a5)
0x800133e4: 13 47 a7 03 lw	a4, 308(a5)
0x800133e8: 08 d7 52 63 bge	a4, a3, 0x8001346c
0x8001346c: 00 00 57 37 lui	a4, 5
0x80013470: ff ff e7 b7 lui	a5, 1048574
0x80013474: 19 07 07 13 addi	a4, a4, 400
0x80013478: 00 f7 07 33 add	a4, a4, a5
0x8001347c: 01 01 07 93 addi	a5, sp, 16
0x80013480: 00 f7 07 b3 add	a5, a4, a5
0x80013484: ff e0 07 13 addi	a4, zero, -2
0x80013488: 12 e7 ac 23 sw	a4, 312(a5)
0x8001348c: 12 e7 ae 23 sw	a4, 316(a5)
0x80013490: 13 87 a6 83 lw	a3, 312(a5)
0x80013494: 13 c7 a7 03 lw	a4, 316(a5)
0x80013498: 08 d7 50 63 bge	a4, a3, 0x80013518
0x80013518: 00 00 57 37 lui	a4, 5
0x8001351c: ff ff e7 b7 lui	a5, 1048574
0x80013520: 19 07 07 13 addi	a4, a4, 400
0x80013524: 00 f7 07 33 add	a4, a4, a5
0x80013528: 01 01 07 93 addi	a5, sp, 16
0x8001352c: 00 f7 07 b3 add	a5, a4, a5
0x80013530: ff e0 07 13 addi	a4, zero, -2
0x80013534: 14 e7 a0 23 sw	a4, 320(a5)
0x80013538: ff f0 07 13 addi	a4, zero, -1
0x8001353c: 14 e7 a2 23 sw	a4, 324(a5)
0x80013540: 14 07 a6 83 lw	a3, 320(a5)
0x80013544: 14 47 a7 03 lw	a4, 324(a5)
0x80013548: 08 d7 50 63 bge	a4, a3, 0x800135c8
0x800135c8: 00 00 57 37 lui	a4, 5
0x800135cc: ff ff e7 b7 lui	a5, 1048574
0x800135d0: 19 07 07 13 addi	a4, a4, 400
0x800135d4: 00 f7 07 33 add	a4, a4, a5
0x800135d8: 01 01 07 93 addi	a5, sp, 16
0x800135dc: 00 f7 07 b3 add	a5, a4, a5
0x800135e0: ff e0 07 13 addi	a4, zero, -2
0x800135e4: 14 e7 a4 23 sw	a4, 328(a5)
0x800135e8: 14 07 a6 23 sw	zero, 332(a5)
0x800135ec: 14 87 a6 83 lw	a3, 328(a5)
0x800135f0: 14 c7 a7 03 lw	a4, 332(a5)
0x800135f4: 08 d7 50 63 bge	a4, a3, 0x80013674
0x80013674: 00 00 57 37 lui	a4, 5
0x80013678: ff ff e7 b7 lui	a5, 1048574
0x8001367c: 19 07 07 13 addi	a4, a4, 400
0x80013680: 00 f7 07 33 add	a4, a4, a5
0x80013684: 01 01 07 93 addi	a5, sp, 16
0x80013688: 00 f7 07 b3 add	a5, a4, a5
0x8001368c: ff e0 07 13 addi	a4, zero, -2
0x80013690: 14 e7 a8 23 sw	a4, 336(a5)
0x80013694: 00 10 07 13 addi	a4, zero, 1
0x80013698: 14 e7 aa 23 sw	a4, 340(a5)
0x8001369c: 15 07 a6 83 lw	a3, 336(a5)
0x800136a0: 15 47 a7 03 lw	a4, 340(a5)
0x800136a4: 08 d7 50 63 bge	a4, a3, 0x80013724
0x80013724: 00 00 57 37 lui	a4, 5
0x80013728: ff ff e7 b7 lui	a5, 1048574
0x8001372c: 19 07 07 13 addi	a4, a4, 400
0x80013730: 00 f7 07 33 add	a4, a4, a5
0x80013734: 01 01 07 93 addi	a5, sp, 16
0x80013738: 00 f7 07 b3 add	a5, a4, a5
0x8001373c: ff e0 07 13 addi	a4, zero, -2
0x80013740: 14 e7 ac 23 sw	a4, 344(a5)
0x80013744: 00 20 07 13 addi	a4, zero, 2
0x80013748: 14 e7 ae 23 sw	a4, 348(a5)
0x8001374c: 15 87 a6 83 lw	a3, 344(a5)
0x80013750: 15 c7 a7 03 lw	a4, 348(a5)
0x80013754: 08 d7 50 63 bge	a4, a3, 0x800137d4
0x800137d4: 00 00 57 37 lui	a4, 5
0x800137d8: ff ff e7 b7 lui	a5, 1048574
0x800137dc: 19 07 07 13 addi	a4, a4, 400
0x800137e0: 00 f7 07 33 add	a4, a4, a5
0x800137e4: 01 01 07 93 addi	a5, sp, 16
0x800137e8: 00 f7 07 b3 add	a5, a4, a5
0x800137ec: ff e0 07 13 addi	a4, zero, -2
0x800137f0: 16 e7 a0 23 sw	a4, 352(a5)
0x800137f4: 80 00 07 37 lui	a4, 524288
0x800137f8: ff e7 47 13 xori	a4, a4, -2
0x800137fc: 16 e7 a2 23 sw	a4, 356(a5)
0x80013800: 16 07 a6 83 lw	a3, 352(a5)
0x80013804: 16 47 a7 03 lw	a4, 356(a5)
0x80013808: 08 d7 52 63 bge	a4, a3, 0x8001388c
0x8001388c: 00 00 57 37 lui	a4, 5
0x80013890: ff ff e7 b7 lui	a5, 1048574
0x80013894: 19 07 07 13 addi	a4, a4, 400
0x80013898: 00 f7 07 33 add	a4, a4, a5
0x8001389c: 01 01 07 93 addi	a5, sp, 16
0x800138a0: 00 f7 07 b3 add	a5, a4, a5
0x800138a4: ff e0 07 13 addi	a4, zero, -2
0x800138a8: 16 e7 a4 23 sw	a4, 360(a5)
0x800138ac: 80 00 07 37 lui	a4, 524288
0x800138b0: ff f7 47 13 xori	a4, a4, -1
0x800138b4: 16 e7 a6 23 sw	a4, 364(a5)
0x800138b8: 16 87 a6 83 lw	a3, 360(a5)
0x800138bc: 16 c7 a7 03 lw	a4, 364(a5)
0x800138c0: 08 d7 52 63 bge	a4, a3, 0x80013944
0x80013944: 00 00 57 37 lui	a4, 5
0x80013948: ff ff e7 b7 lui	a5, 1048574
0x8001394c: 19 07 07 13 addi	a4, a4, 400
0x80013950: 00 f7 07 33 add	a4, a4, a5
0x80013954: 01 01 07 93 addi	a5, sp, 16
0x80013958: 00 f7 07 b3 add	a5, a4, a5
0x8001395c: ff f0 07 13 addi	a4, zero, -1
0x80013960: 16 e7 a8 23 sw	a4, 368(a5)
0x80013964: 16 e7 aa 23 sw	a4, 372(a5)
0x80013968: 17 07 a6 83 lw	a3, 368(a5)
0x8001396c: 17 47 a7 03 lw	a4, 372(a5)
0x80013970: 08 d7 50 63 bge	a4, a3, 0x800139f0
0x800139f0: 00 00 57 37 lui	a4, 5
0x800139f4: ff ff e7 b7 lui	a5, 1048574
0x800139f8: 19 07 07 13 addi	a4, a4, 400
0x800139fc: 00 f7 07 33 add	a4, a4, a5
0x80013a00: 01 01 07 93 addi	a5, sp, 16
0x80013a04: 00 f7 07 b3 add	a5, a4, a5
0x80013a08: ff f0 07 13 addi	a4, zero, -1
0x80013a0c: 16 e7 ac 23 sw	a4, 376(a5)
0x80013a10: 16 07 ae 23 sw	zero, 380(a5)
0x80013a14: 17 87 a6 83 lw	a3, 376(a5)
0x80013a18: 17 c7 a7 03 lw	a4, 380(a5)
0x80013a1c: 08 d7 50 63 bge	a4, a3, 0x80013a9c
0x80013a9c: 00 00 57 37 lui	a4, 5
0x80013aa0: ff ff e7 b7 lui	a5, 1048574
0x80013aa4: 19 07 07 13 addi	a4, a4, 400
0x80013aa8: 00 f7 07 33 add	a4, a4, a5
0x80013aac: 01 01 07 93 addi	a5, sp, 16
0x80013ab0: 00 f7 07 b3 add	a5, a4, a5
0x80013ab4: ff f0 07 13 addi	a4, zero, -1
0x80013ab8: 18 e7 a0 23 sw	a4, 384(a5)
0x80013abc: 00 10 07 13 addi	a4, zero, 1
0x80013ac0: 18 e7 a2 23 sw	a4, 388(a5)
0x80013ac4: 18 07 a6 83 lw	a3, 384(a5)
0x80013ac8: 18 47 a7 03 lw	a4, 388(a5)
0x80013acc: 08 d7 50 63 bge	a4, a3, 0x80013b4c
0x80013b4c: 00 00 57 37 lui	a4, 5
0x80013b50: ff ff e7 b7 lui	a5, 1048574
0x80013b54: 19 07 07 13 addi	a4, a4, 400
0x80013b58: 00 f7 07 33 add	a4, a4, a5
0x80013b5c: 01 01 07 93 addi	a5, sp, 16
0x80013b60: 00 f7 07 b3 add	a5, a4, a5
0x80013b64: ff f0 07 13 addi	a4, zero, -1
0x80013b68: 18 e7 a4 23 sw	a4, 392(a5)
0x80013b6c: 00 20 07 13 addi	a4, zero, 2
0x80013b70: 18 e7 a6 23 sw	a4, 396(a5)
0x80013b74: 18 87 a6 83 lw	a3, 392(a5)
0x80013b78: 18 c7 a7 03 lw	a4, 396(a5)
0x80013b7c: 08 d7 50 63 bge	a4, a3, 0x80013bfc
0x80013bfc: 00 00 57 37 lui	a4, 5
0x80013c00: ff ff e7 b7 lui	a5, 1048574
0x80013c04: 19 07 07 13 addi	a4, a4, 400
0x80013c08: 00 f7 07 33 add	a4, a4, a5
0x80013c0c: 01 01 07 93 addi	a5, sp, 16
0x80013c10: 00 f7 07 b3 add	a5, a4, a5
0x80013c14: ff f0 07 13 addi	a4, zero, -1
0x80013c18: 18 e7 a8 23 sw	a4, 400(a5)
0x80013c1c: 80 00 07 37 lui	a4, 524288
0x80013c20: ff e7 47 13 xori	a4, a4, -2
0x80013c24: 18 e7 aa 23 sw	a4, 404(a5)
0x80013c28: 19 07 a6 83 lw	a3, 400(a5)
0x80013c2c: 19 47 a7 03 lw	a4, 404(a5)
0x80013c30: 08 d7 52 63 bge	a4, a3, 0x80013cb4
0x80013cb4: 00 00 57 37 lui	a4, 5
0x80013cb8: ff ff e7 b7 lui	a5, 1048574
0x80013cbc: 19 07 07 13 addi	a4, a4, 400
0x80013cc0: 00 f7 07 33 add	a4, a4, a5
0x80013cc4: 01 01 07 93 addi	a5, sp, 16
0x80013cc8: 00 f7 07 b3 add	a5, a4, a5
0x80013ccc: ff f0 07 13 addi	a4, zero, -1
0x80013cd0: 18 e7 ac 23 sw	a4, 408(a5)
0x80013cd4: 80 00 07 37 lui	a4, 524288
0x80013cd8: ff f7 47 13 xori	a4, a4, -1
0x80013cdc: 18 e7 ae 23 sw	a4, 412(a5)
0x80013ce0: 19 87 a6 83 lw	a3, 408(a5)
0x80013ce4: 19 c7 a7 03 lw	a4, 412(a5)
0x80013ce8: 08 d7 52 63 bge	a4, a3, 0x80013d6c
0x80013d6c: 00 00 57 37 lui	a4, 5
0x80013d70: ff ff e7 b7 lui	a5, 1048574
0x80013d74: 19 07 07 13 addi	a4, a4, 400
0x80013d78: 00 f7 07 33 add	a4, a4, a5
0x80013d7c: 01 01 07 93 addi	a5, sp, 16
0x80013d80: 00 f7 07 b3 add	a5, a4, a5
0x80013d84: 1a 07 a0 23 sw	zero, 416(a5)
0x80013d88: 1a 07 a2 23 sw	zero, 420(a5)
0x80013d8c: 1a 07 a6 83 lw	a3, 416(a5)
0x80013d90: 1a 47 a7 03 lw	a4, 420(a5)
0x80013d94: 08 d7 50 63 bge	a4, a3, 0x80013e14
0x80013e14: 00 00 57 37 lui	a4, 5
0x80013e18: ff ff e7 b7 lui	a5, 1048574
0x80013e1c: 19 07 07 13 addi	a4, a4, 400
0x80013e20: 00 f7 07 33 add	a4, a4, a5
0x80013e24: 01 01 07 93 addi	a5, sp, 16
0x80013e28: 00 f7 07 b3 add	a5, a4, a5
0x80013e2c: 1a 07 a4 23 sw	zero, 424(a5)
0x80013e30: 00 10 07 13 addi	a4, zero, 1
0x80013e34: 1a e7 a6 23 sw	a4, 428(a5)
0x80013e38: 1a 87 a6 83 lw	a3, 424(a5)
0x80013e3c: 1a c7 a7 03 lw	a4, 428(a5)
0x80013e40: 08 d7 50 63 bge	a4, a3, 0x80013ec0
0x80013ec0: 00 00 57 37 lui	a4, 5
0x80013ec4: ff ff e7 b7 lui	a5, 1048574
0x80013ec8: 19 07 07 13 addi	a4, a4, 400
0x80013ecc: 00 f7 07 33 add	a4, a4, a5
0x80013ed0: 01 01 07 93 addi	a5, sp, 16
0x80013ed4: 00 f7 07 b3 add	a5, a4, a5
0x80013ed8: 1a 07 a8 23 sw	zero, 432(a5)
0x80013edc: 00 20 07 13 addi	a4, zero, 2
0x80013ee0: 1a e7 aa 23 sw	a4, 436(a5)
0x80013ee4: 1b 07 a6 83 lw	a3, 432(a5)
0x80013ee8: 1b 47 a7 03 lw	a4, 436(a5)
0x80013eec: 08 d7 50 63 bge	a4, a3, 0x80013f6c
0x80013f6c: 00 00 57 37 lui	a4, 5
0x80013f70: ff ff e7 b7 lui	a5, 1048574
0x80013f74: 19 07 07 13 addi	a4, a4, 400
0x80013f78: 00 f7 07 33 add	a4, a4, a5
0x80013f7c: 01 01 07 93 addi	a5, sp, 16
0x80013f80: 00 f7 07 b3 add	a5, a4, a5
0x80013f84: 80 00 07 37 lui	a4, 524288
0x80013f88: 1a 07 ac 23 sw	zero, 440(a5)
0x80013f8c: ff e7 47 13 xori	a4, a4, -2
0x80013f90: 1a e7 ae 23 sw	a4, 444(a5)
0x80013f94: 1b 87 a6 83 lw	a3, 440(a5)
0x80013f98: 1b c7 a7 03 lw	a4, 444(a5)
0x80013f9c: 08 d7 52 63 bge	a4, a3, 0x80014020
0x80014020: 00 00 57 37 lui	a4, 5
0x80014024: ff ff e7 b7 lui	a5, 1048574
0x80014028: 19 07 07 13 addi	a4, a4, 400
0x8001402c: 00 f7 07 33 add	a4, a4, a5
0x80014030: 01 01 07 93 addi	a5, sp, 16
0x80014034: 00 f7 07 b3 add	a5, a4, a5
0x80014038: 80 00 07 37 lui	a4, 524288
0x8001403c: 1c 07 a0 23 sw	zero, 448(a5)
0x80014040: ff f7 47 13 xori	a4, a4, -1
0x80014044: 1c e7 a2 23 sw	a4, 452(a5)
0x80014048: 1c 07 a6 83 lw	a3, 448(a5)
0x8001404c: 1c 47 a7 03 lw	a4, 452(a5)
0x80014050: 08 d7 52 63 bge	a4, a3, 0x800140d4
0x800140d4: 00 00 57 37 lui	a4, 5
0x800140d8: ff ff e7 b7 lui	a5, 1048574
0x800140dc: 19 07 07 13 addi	a4, a4, 400
0x800140e0: 00 f7 07 33 add	a4, a4, a5
0x800140e4: 01 01 07 93 addi	a5, sp, 16
0x800140e8: 00 f7 07 b3 add	a5, a4, a5
0x800140ec: 00 10 07 13 addi	a4, zero, 1
0x800140f0: 1c e7 a4 23 sw	a4, 456(a5)
0x800140f4: 1c e7 a6 23 sw	a4, 460(a5)
0x800140f8: 1c 87 a6 83 lw	a3, 456(a5)
0x800140fc: 1c c7 a7 03 lw	a4, 460(a5)
0x80014100: 08 d7 50 63 bge	a4, a3, 0x80014180
0x80014180: 00 00 57 37 lui	a4, 5
0x80014184: ff ff e7 b7 lui	a5, 1048574
0x80014188: 19 07 07 13 addi	a4, a4, 400
0x8001418c: 00 f7 07 33 add	a4, a4, a5
0x80014190: 01 01 07 93 addi	a5, sp, 16
0x80014194: 00 f7 07 b3 add	a5, a4, a5
0x80014198: 00 10 07 13 addi	a4, zero, 1
0x8001419c: 1c e7 a8 23 sw	a4, 464(a5)
0x800141a0: 00 20 07 13 addi	a4, zero, 2
0x800141a4: 1c e7 aa 23 sw	a4, 468(a5)
0x800141a8: 1d 07 a6 83 lw	a3, 464(a5)
0x800141ac: 1d 47 a7 03 lw	a4, 468(a5)
0x800141b0: 08 d7 50 63 bge	a4, a3, 0x80014230
0x80014230: 00 00 57 37 lui	a4, 5
0x80014234: ff ff e7 b7 lui	a5, 1048574
0x80014238: 19 07 07 13 addi	a4, a4, 400
0x8001423c: 00 f7 07 33 add	a4, a4, a5
0x80014240: 01 01 07 93 addi	a5, sp, 16
0x80014244: 00 f7 07 b3 add	a5, a4, a5
0x80014248: 00 10 07 13 addi	a4, zero, 1
0x8001424c: 1c e7 ac 23 sw	a4, 472(a5)
0x80014250: 80 00 07 37 lui	a4, 524288
0x80014254: ff e7 47 13 xori	a4, a4, -2
0x80014258: 1c e7 ae 23 sw	a4, 476(a5)
0x8001425c: 1d 87 a6 83 lw	a3, 472(a5)
0x80014260: 1d c7 a7 03 lw	a4, 476(a5)
0x80014264: 08 d7 52 63 bge	a4, a3, 0x800142e8
0x800142e8: 00 00 57 37 lui	a4, 5
0x800142ec: ff ff e7 b7 lui	a5, 1048574
0x800142f0: 19 07 07 13 addi	a4, a4, 400
0x800142f4: 00 f7 07 33 add	a4, a4, a5
0x800142f8: 01 01 07 93 addi	a5, sp, 16
0x800142fc: 00 f7 07 b3 add	a5, a4, a5
0x80014300: 00 10 07 13 addi	a4, zero, 1
0x80014304: 1e e7 a0 23 sw	a4, 480(a5)
0x80014308: 80 00 07 37 lui	a4, 524288
0x8001430c: ff f7 47 13 xori	a4, a4, -1
0x80014310: 1e e7 a2 23 sw	a4, 484(a5)
0x80014314: 1e 07 a6 83 lw	a3, 480(a5)
0x80014318: 1e 47 a7 03 lw	a4, 484(a5)
0x8001431c: 08 d7 52 63 bge	a4, a3, 0x800143a0
0x800143a0: 00 00 57 37 lui	a4, 5
0x800143a4: ff ff e7 b7 lui	a5, 1048574
0x800143a8: 19 07 07 13 addi	a4, a4, 400
0x800143ac: 00 f7 07 33 add	a4, a4, a5
0x800143b0: 01 01 07 93 addi	a5, sp, 16
0x800143b4: 00 f7 07 b3 add	a5, a4, a5
0x800143b8: 00 20 07 13 addi	a4, zero, 2
0x800143bc: 1e e7 a4 23 sw	a4, 488(a5)
0x800143c0: 1e e7 a6 23 sw	a4, 492(a5)
0x800143c4: 1e 87 a6 83 lw	a3, 488(a5)
0x800143c8: 1e c7 a7 03 lw	a4, 492(a5)
0x800143cc: 08 d7 50 63 bge	a4, a3, 0x8001444c
0x8001444c: 00 00 57 37 lui	a4, 5
0x80014450: ff ff e7 b7 lui	a5, 1048574
0x80014454: 19 07 07 13 addi	a4, a4, 400
0x80014458: 00 f7 07 33 add	a4, a4, a5
0x8001445c: 01 01 07 93 addi	a5, sp, 16
0x80014460: 00 f7 07 b3 add	a5, a4, a5
0x80014464: 00 20 07 13 addi	a4, zero, 2
0x80014468: 1e e7 a8 23 sw	a4, 496(a5)
0x8001446c: 80 00 07 37 lui	a4, 524288
0x80014470: ff e7 47 13 xori	a4, a4, -2
0x80014474: 1e e7 aa 23 sw	a4, 500(a5)
0x80014478: 1f 07 a6 83 lw	a3, 496(a5)
0x8001447c: 1f 47 a7 03 lw	a4, 500(a5)
0x80014480: 08 d7 52 63 bge	a4, a3, 0x80014504
0x80014504: 00 00 57 37 lui	a4, 5
0x80014508: ff ff e7 b7 lui	a5, 1048574
0x8001450c: 19 07 07 13 addi	a4, a4, 400
0x80014510: 00 f7 07 33 add	a4, a4, a5
0x80014514: 01 01 07 93 addi	a5, sp, 16
0x80014518: 00 f7 07 b3 add	a5, a4, a5
0x8001451c: 00 20 07 13 addi	a4, zero, 2
0x80014520: 1e e7 ac 23 sw	a4, 504(a5)
0x80014524: 80 00 07 37 lui	a4, 524288
0x80014528: ff f7 47 13 xori	a4, a4, -1
0x8001452c: 1e e7 ae 23 sw	a4, 508(a5)
0x80014530: 1f 87 a6 83 lw	a3, 504(a5)
0x80014534: 1f c7 a7 03 lw	a4, 508(a5)
0x80014538: 08 d7 52 63 bge	a4, a3, 0x800145bc
0x800145bc: 00 00 57 37 lui	a4, 5
0x800145c0: ff ff e7 b7 lui	a5, 1048574
0x800145c4: 19 07 07 13 addi	a4, a4, 400
0x800145c8: 00 f7 07 33 add	a4, a4, a5
0x800145cc: 01 01 07 93 addi	a5, sp, 16
0x800145d0: 00 f7 07 b3 add	a5, a4, a5
0x800145d4: 80 00 07 37 lui	a4, 524288
0x800145d8: ff e7 47 13 xori	a4, a4, -2
0x800145dc: 20 e7 a0 23 sw	a4, 512(a5)
0x800145e0: 20 e7 a2 23 sw	a4, 516(a5)
0x800145e4: 20 07 a6 83 lw	a3, 512(a5)
0x800145e8: 20 47 a7 03 lw	a4, 516(a5)
0x800145ec: 08 d7 52 63 bge	a4, a3, 0x80014670
0x80014670: 00 00 56 b7 lui	a3, 5
0x80014674: ff ff e7 b7 lui	a5, 1048574
0x80014678: 19 06 86 93 addi	a3, a3, 400
0x8001467c: 00 f6 86 b3 add	a3, a3, a5
0x80014680: 80 00 07 37 lui	a4, 524288
0x80014684: 01 01 07 93 addi	a5, sp, 16
0x80014688: 00 f6 87 b3 add	a5, a3, a5
0x8001468c: ff e7 46 93 xori	a3, a4, -2
0x80014690: 20 d7 a4 23 sw	a3, 520(a5)
0x80014694: ff f7 47 13 xori	a4, a4, -1
0x80014698: 20 e7 a6 23 sw	a4, 524(a5)
0x8001469c: 20 87 a6 83 lw	a3, 520(a5)
0x800146a0: 20 c7 a7 03 lw	a4, 524(a5)
0x800146a4: 08 d7 52 63 bge	a4, a3, 0x80014728
0x80014728: 00 00 57 37 lui	a4, 5
0x8001472c: ff ff e7 b7 lui	a5, 1048574
0x80014730: 19 07 07 13 addi	a4, a4, 400
0x80014734: 00 f7 07 33 add	a4, a4, a5
0x80014738: 01 01 07 93 addi	a5, sp, 16
0x8001473c: 00 f7 07 b3 add	a5, a4, a5
0x80014740: 80 00 07 37 lui	a4, 524288
0x80014744: ff f7 47 13 xori	a4, a4, -1
0x80014748: 20 e7 a8 23 sw	a4, 528(a5)
0x8001474c: 20 e7 aa 23 sw	a4, 532(a5)
0x80014750: 21 07 a6 83 lw	a3, 528(a5)
0x80014754: 21 47 a7 03 lw	a4, 532(a5)
0x80014758: 08 d7 52 63 bge	a4, a3, 0x800147dc
0x800147dc: 00 00 57 37 lui	a4, 5
0x800147e0: ff ff e7 b7 lui	a5, 1048574
0x800147e4: 19 07 07 13 addi	a4, a4, 400
0x800147e8: 00 f7 07 33 add	a4, a4, a5
0x800147ec: 01 01 07 93 addi	a5, sp, 16
0x800147f0: 00 f7 07 b3 add	a5, a4, a5
0x800147f4: 80 00 07 37 lui	a4, 524288
0x800147f8: 20 e7 ac 23 sw	a4, 536(a5)
0x800147fc: 20 e7 ae 23 sw	a4, 540(a5)
0x80014800: 21 87 a6 83 lw	a3, 536(a5)
0x80014804: 21 c7 a7 03 lw	a4, 540(a5)
0x80014808: 08 e6 80 63 beq	a3, a4, 0x80014888
0x80014888: 00 00 57 37 lui	a4, 5
0x8001488c: ff ff e7 b7 lui	a5, 1048574
0x80014890: 19 07 07 13 addi	a4, a4, 400
0x80014894: 00 f7 07 33 add	a4, a4, a5
0x80014898: 01 01 07 93 addi	a5, sp, 16
0x8001489c: 00 f7 07 b3 add	a5, a4, a5
0x800148a0: 80 00 07 37 lui	a4, 524288
0x800148a4: 22 e7 a0 23 sw	a4, 544(a5)
0x800148a8: 00 17 07 13 addi	a4, a4, 1
0x800148ac: 22 e7 a2 23 sw	a4, 548(a5)
0x800148b0: 22 07 a6 83 lw	a3, 544(a5)
0x800148b4: 22 47 a7 03 lw	a4, 548(a5)
0x800148b8: 00 e6 94 63 bne	a3, a4, 0x800148c0
0x800148c0: 00 00 57 37 lui	a4, 5
0x800148c4: ff ff e7 b7 lui	a5, 1048574
0x800148c8: 19 07 07 13 addi	a4, a4, 400
0x800148cc: 00 f7 07 33 add	a4, a4, a5
0x800148d0: 01 01 07 93 addi	a5, sp, 16
0x800148d4: 00 f7 07 b3 add	a5, a4, a5
0x800148d8: 80 00 07 37 lui	a4, 524288
0x800148dc: 22 e7 a4 23 sw	a4, 552(a5)
0x800148e0: ff e0 07 13 addi	a4, zero, -2
0x800148e4: 22 e7 a6 23 sw	a4, 556(a5)
0x800148e8: 22 87 a6 83 lw	a3, 552(a5)
0x800148ec: 22 c7 a7 03 lw	a4, 556(a5)
0x800148f0: 00 e6 94 63 bne	a3, a4, 0x800148f8
0x800148f8: 00 00 57 37 lui	a4, 5
0x800148fc: ff ff e7 b7 lui	a5, 1048574
0x80014900: 19 07 07 13 addi	a4, a4, 400
0x80014904: 00 f7 07 33 add	a4, a4, a5
0x80014908: 01 01 07 93 addi	a5, sp, 16
0x8001490c: 00 f7 07 b3 add	a5, a4, a5
0x80014910: 80 00 07 37 lui	a4, 524288
0x80014914: 22 e7 a8 23 sw	a4, 560(a5)
0x80014918: ff f0 07 13 addi	a4, zero, -1
0x8001491c: 22 e7 aa 23 sw	a4, 564(a5)
0x80014920: 23 07 a6 83 lw	a3, 560(a5)
0x80014924: 23 47 a7 03 lw	a4, 564(a5)
0x80014928: 00 e6 94 63 bne	a3, a4, 0x80014930
0x80014930: 00 00 57 37 lui	a4, 5
0x80014934: ff ff e7 b7 lui	a5, 1048574
0x80014938: 19 07 07 13 addi	a4, a4, 400
0x8001493c: 00 f7 07 33 add	a4, a4, a5
0x80014940: 01 01 07 93 addi	a5, sp, 16
0x80014944: 00 f7 07 b3 add	a5, a4, a5
0x80014948: 80 00 07 37 lui	a4, 524288
0x8001494c: 22 e7 ac 23 sw	a4, 568(a5)
0x80014950: 22 07 ae 23 sw	zero, 572(a5)
0x80014954: 23 87 a6 83 lw	a3, 568(a5)
0x80014958: 23 c7 a7 03 lw	a4, 572(a5)
0x8001495c: 00 e6 94 63 bne	a3, a4, 0x80014964
0x80014964: 00 00 57 37 lui	a4, 5
0x80014968: ff ff e7 b7 lui	a5, 1048574
0x8001496c: 19 07 07 13 addi	a4, a4, 400
0x80014970: 00 f7 07 33 add	a4, a4, a5
0x80014974: 01 01 07 93 addi	a5, sp, 16
0x80014978: 00 f7 07 b3 add	a5, a4, a5
0x8001497c: 80 00 07 37 lui	a4, 524288
0x80014980: 24 e7 a0 23 sw	a4, 576(a5)
0x80014984: 00 10 07 13 addi	a4, zero, 1
0x80014988: 24 e7 a2 23 sw	a4, 580(a5)
0x8001498c: 24 07 a6 83 lw	a3, 576(a5)
0x80014990: 24 47 a7 03 lw	a4, 580(a5)
0x80014994: 00 e6 94 63 bne	a3, a4, 0x8001499c
0x8001499c: 00 00 57 37 lui	a4, 5
0x800149a0: ff ff e7 b7 lui	a5, 1048574
0x800149a4: 19 07 07 13 addi	a4, a4, 400
0x800149a8: 00 f7 07 33 add	a4, a4, a5
0x800149ac: 01 01 07 93 addi	a5, sp, 16
0x800149b0: 00 f7 07 b3 add	a5, a4, a5
0x800149b4: 80 00 07 37 lui	a4, 524288
0x800149b8: 24 e7 a4 23 sw	a4, 584(a5)
0x800149bc: 00 20 07 13 addi	a4, zero, 2
0x800149c0: 24 e7 a6 23 sw	a4, 588(a5)
0x800149c4: 24 87 a6 83 lw	a3, 584(a5)
0x800149c8: 24 c7 a7 03 lw	a4, 588(a5)
0x800149cc: 00 e6 94 63 bne	a3, a4, 0x800149d4
0x800149d4: 00 00 57 37 lui	a4, 5
0x800149d8: ff ff e7 b7 lui	a5, 1048574
0x800149dc: 19 07 07 13 addi	a4, a4, 400
0x800149e0: 00 f7 07 33 add	a4, a4, a5
0x800149e4: 01 01 07 93 addi	a5, sp, 16
0x800149e8: 00 f7 07 b3 add	a5, a4, a5
0x800149ec: 80 00 07 37 lui	a4, 524288
0x800149f0: 24 e7 a8 23 sw	a4, 592(a5)
0x800149f4: ff e7 47 13 xori	a4, a4, -2
0x800149f8: 24 e7 aa 23 sw	a4, 596(a5)
0x800149fc: 25 07 a6 83 lw	a3, 592(a5)
0x80014a00: 25 47 a7 03 lw	a4, 596(a5)
0x80014a04: 00 e6 94 63 bne	a3, a4, 0x80014a0c
0x80014a0c: 00 00 57 37 lui	a4, 5
0x80014a10: ff ff e7 b7 lui	a5, 1048574
0x80014a14: 19 07 07 13 addi	a4, a4, 400
0x80014a18: 00 f7 07 33 add	a4, a4, a5
0x80014a1c: 01 01 07 93 addi	a5, sp, 16
0x80014a20: 00 f7 07 b3 add	a5, a4, a5
0x80014a24: 80 00 07 37 lui	a4, 524288
0x80014a28: 24 e7 ac 23 sw	a4, 600(a5)
0x80014a2c: ff f7 47 13 xori	a4, a4, -1
0x80014a30: 24 e7 ae 23 sw	a4, 604(a5)
0x80014a34: 25 87 a6 83 lw	a3, 600(a5)
0x80014a38: 25 c7 a7 03 lw	a4, 604(a5)
0x80014a3c: 00 e6 94 63 bne	a3, a4, 0x80014a44
0x80014a44: 00 00 57 37 lui	a4, 5
0x80014a48: ff ff e7 b7 lui	a5, 1048574
0x80014a4c: 19 07 07 13 addi	a4, a4, 400
0x80014a50: 00 f7 07 33 add	a4, a4, a5
0x80014a54: 01 01 07 93 addi	a5, sp, 16
0x80014a58: 00 f7 07 b3 add	a5, a4, a5
0x80014a5c: 80 00 07 37 lui	a4, 524288
0x80014a60: 00 17 07 13 addi	a4, a4, 1
0x80014a64: 26 e7 a0 23 sw	a4, 608(a5)
0x80014a68: 26 e7 a2 23 sw	a4, 612(a5)
0x80014a6c: 26 07 a6 83 lw	a3, 608(a5)
0x80014a70: 26 47 a7 03 lw	a4, 612(a5)
0x80014a74: 08 e6 82 63 beq	a3, a4, 0x80014af8
0x80014af8: 00 00 57 37 lui	a4, 5
0x80014afc: ff ff e7 b7 lui	a5, 1048574
0x80014b00: 19 07 07 13 addi	a4, a4, 400
0x80014b04: 00 f7 07 33 add	a4, a4, a5
0x80014b08: 01 01 07 93 addi	a5, sp, 16
0x80014b0c: 00 f7 07 b3 add	a5, a4, a5
0x80014b10: 80 00 07 37 lui	a4, 524288
0x80014b14: 00 17 07 13 addi	a4, a4, 1
0x80014b18: 26 e7 a4 23 sw	a4, 616(a5)
0x80014b1c: ff e0 07 13 addi	a4, zero, -2
0x80014b20: 26 e7 a6 23 sw	a4, 620(a5)
0x80014b24: 26 87 a6 83 lw	a3, 616(a5)
0x80014b28: 26 c7 a7 03 lw	a4, 620(a5)
0x80014b2c: 00 e6 94 63 bne	a3, a4, 0x80014b34
0x80014b34: 00 00 57 37 lui	a4, 5
0x80014b38: ff ff e7 b7 lui	a5, 1048574
0x80014b3c: 19 07 07 13 addi	a4, a4, 400
0x80014b40: 00 f7 07 33 add	a4, a4, a5
0x80014b44: 01 01 07 93 addi	a5, sp, 16
0x80014b48: 00 f7 07 b3 add	a5, a4, a5
0x80014b4c: 80 00 07 37 lui	a4, 524288
0x80014b50: 00 17 07 13 addi	a4, a4, 1
0x80014b54: 26 e7 a8 23 sw	a4, 624(a5)
0x80014b58: ff f0 07 13 addi	a4, zero, -1
0x80014b5c: 26 e7 aa 23 sw	a4, 628(a5)
0x80014b60: 27 07 a6 83 lw	a3, 624(a5)
0x80014b64: 27 47 a7 03 lw	a4, 628(a5)
0x80014b68: 00 e6 94 63 bne	a3, a4, 0x80014b70
0x80014b70: 00 00 57 37 lui	a4, 5
0x80014b74: ff ff e7 b7 lui	a5, 1048574
0x80014b78: 19 07 07 13 addi	a4, a4, 400
0x80014b7c: 00 f7 07 33 add	a4, a4, a5
0x80014b80: 01 01 07 93 addi	a5, sp, 16
0x80014b84: 00 f7 07 b3 add	a5, a4, a5
0x80014b88: 80 00 07 37 lui	a4, 524288
0x80014b8c: 00 17 07 13 addi	a4, a4, 1
0x80014b90: 26 e7 ac 23 sw	a4, 632(a5)
0x80014b94: 26 07 ae 23 sw	zero, 636(a5)
0x80014b98: 27 87 a6 83 lw	a3, 632(a5)
0x80014b9c: 27 c7 a7 03 lw	a4, 636(a5)
0x80014ba0: 00 e6 94 63 bne	a3, a4, 0x80014ba8
0x80014ba8: 00 00 57 37 lui	a4, 5
0x80014bac: ff ff e7 b7 lui	a5, 1048574
0x80014bb0: 19 07 07 13 addi	a4, a4, 400
0x80014bb4: 00 f7 07 33 add	a4, a4, a5
0x80014bb8: 01 01 07 93 addi	a5, sp, 16
0x80014bbc: 00 f7 07 b3 add	a5, a4, a5
0x80014bc0: 80 00 07 37 lui	a4, 524288
0x80014bc4: 00 17 07 13 addi	a4, a4, 1
0x80014bc8: 28 e7 a0 23 sw	a4, 640(a5)
0x80014bcc: 00 10 07 13 addi	a4, zero, 1
0x80014bd0: 28 e7 a2 23 sw	a4, 644(a5)
0x80014bd4: 28 07 a6 83 lw	a3, 640(a5)
0x80014bd8: 28 47 a7 03 lw	a4, 644(a5)
0x80014bdc: 00 e6 94 63 bne	a3, a4, 0x80014be4
0x80014be4: 00 00 57 37 lui	a4, 5
0x80014be8: ff ff e7 b7 lui	a5, 1048574
0x80014bec: 19 07 07 13 addi	a4, a4, 400
0x80014bf0: 00 f7 07 33 add	a4, a4, a5
0x80014bf4: 01 01 07 93 addi	a5, sp, 16
0x80014bf8: 00 f7 07 b3 add	a5, a4, a5
0x80014bfc: 80 00 07 37 lui	a4, 524288
0x80014c00: 00 17 07 13 addi	a4, a4, 1
0x80014c04: 28 e7 a4 23 sw	a4, 648(a5)
0x80014c08: 00 20 07 13 addi	a4, zero, 2
0x80014c0c: 28 e7 a6 23 sw	a4, 652(a5)
0x80014c10: 28 87 a6 83 lw	a3, 648(a5)
0x80014c14: 28 c7 a7 03 lw	a4, 652(a5)
0x80014c18: 00 e6 94 63 bne	a3, a4, 0x80014c20
0x80014c20: 00 00 56 b7 lui	a3, 5
0x80014c24: ff ff e7 b7 lui	a5, 1048574
0x80014c28: 19 06 86 93 addi	a3, a3, 400
0x80014c2c: 00 f6 86 b3 add	a3, a3, a5
0x80014c30: 80 00 07 37 lui	a4, 524288
0x80014c34: 01 01 07 93 addi	a5, sp, 16
0x80014c38: 00 f6 87 b3 add	a5, a3, a5
0x80014c3c: 00 17 06 93 addi	a3, a4, 1
0x80014c40: 28 d7 a8 23 sw	a3, 656(a5)
0x80014c44: ff e7 47 13 xori	a4, a4, -2
0x80014c48: 28 e7 aa 23 sw	a4, 660(a5)
0x80014c4c: 29 07 a6 83 lw	a3, 656(a5)
0x80014c50: 29 47 a7 03 lw	a4, 660(a5)
0x80014c54: 00 e6 94 63 bne	a3, a4, 0x80014c5c
0x80014c5c: 00 00 56 b7 lui	a3, 5
0x80014c60: ff ff e7 b7 lui	a5, 1048574
0x80014c64: 19 06 86 93 addi	a3, a3, 400
0x80014c68: 00 f6 86 b3 add	a3, a3, a5
0x80014c6c: 80 00 07 37 lui	a4, 524288
0x80014c70: 01 01 07 93 addi	a5, sp, 16
0x80014c74: 00 f6 87 b3 add	a5, a3, a5
0x80014c78: 00 17 06 93 addi	a3, a4, 1
0x80014c7c: 28 d7 ac 23 sw	a3, 664(a5)
0x80014c80: ff f7 47 13 xori	a4, a4, -1
0x80014c84: 28 e7 ae 23 sw	a4, 668(a5)
0x80014c88: 29 87 a6 83 lw	a3, 664(a5)
0x80014c8c: 29 c7 a7 03 lw	a4, 668(a5)
0x80014c90: 00 e6 94 63 bne	a3, a4, 0x80014c98
0x80014c98: 00 00 57 37 lui	a4, 5
0x80014c9c: ff ff e7 b7 lui	a5, 1048574
0x80014ca0: 19 07 07 13 addi	a4, a4, 400
0x80014ca4: 00 f7 07 33 add	a4, a4, a5
0x80014ca8: 01 01 07 93 addi	a5, sp, 16
0x80014cac: 00 f7 07 b3 add	a5, a4, a5
0x80014cb0: ff e0 07 13 addi	a4, zero, -2
0x80014cb4: 2a e7 a0 23 sw	a4, 672(a5)
0x80014cb8: 2a e7 a2 23 sw	a4, 676(a5)
0x80014cbc: 2a 07 a6 83 lw	a3, 672(a5)
0x80014cc0: 2a 47 a7 03 lw	a4, 676(a5)
0x80014cc4: 08 e6 80 63 beq	a3, a4, 0x80014d44
0x80014d44: 00 00 57 37 lui	a4, 5
0x80014d48: ff ff e7 b7 lui	a5, 1048574
0x80014d4c: 19 07 07 13 addi	a4, a4, 400
0x80014d50: 00 f7 07 33 add	a4, a4, a5
0x80014d54: 01 01 07 93 addi	a5, sp, 16
0x80014d58: 00 f7 07 b3 add	a5, a4, a5
0x80014d5c: ff e0 07 13 addi	a4, zero, -2
0x80014d60: 2a e7 a4 23 sw	a4, 680(a5)
0x80014d64: ff f0 07 13 addi	a4, zero, -1
0x80014d68: 2a e7 a6 23 sw	a4, 684(a5)
0x80014d6c: 2a 87 a6 83 lw	a3, 680(a5)
0x80014d70: 2a c7 a7 03 lw	a4, 684(a5)
0x80014d74: 00 e6 94 63 bne	a3, a4, 0x80014d7c
0x80014d7c: 00 00 57 37 lui	a4, 5
0x80014d80: ff ff e7 b7 lui	a5, 1048574
0x80014d84: 19 07 07 13 addi	a4, a4, 400
0x80014d88: 00 f7 07 33 add	a4, a4, a5
0x80014d8c: 01 01 07 93 addi	a5, sp, 16
0x80014d90: 00 f7 07 b3 add	a5, a4, a5
0x80014d94: ff e0 07 13 addi	a4, zero, -2
0x80014d98: 2a e7 a8 23 sw	a4, 688(a5)
0x80014d9c: 2a 07 aa 23 sw	zero, 692(a5)
0x80014da0: 2b 07 a6 83 lw	a3, 688(a5)
0x80014da4: 2b 47 a7 03 lw	a4, 692(a5)
0x80014da8: 00 e6 94 63 bne	a3, a4, 0x80014db0
0x80014db0: 00 00 57 37 lui	a4, 5
0x80014db4: ff ff e7 b7 lui	a5, 1048574
0x80014db8: 19 07 07 13 addi	a4, a4, 400
0x80014dbc: 00 f7 07 33 add	a4, a4, a5
0x80014dc0: 01 01 07 93 addi	a5, sp, 16
0x80014dc4: 00 f7 07 b3 add	a5, a4, a5
0x80014dc8: ff e0 07 13 addi	a4, zero, -2
0x80014dcc: 2a e7 ac 23 sw	a4, 696(a5)
0x80014dd0: 00 10 07 13 addi	a4, zero, 1
0x80014dd4: 2a e7 ae 23 sw	a4, 700(a5)
0x80014dd8: 2b 87 a6 83 lw	a3, 696(a5)
0x80014ddc: 2b c7 a7 03 lw	a4, 700(a5)
0x80014de0: 00 e6 94 63 bne	a3, a4, 0x80014de8
0x80014de8: 00 00 57 37 lui	a4, 5
0x80014dec: ff ff e7 b7 lui	a5, 1048574
0x80014df0: 19 07 07 13 addi	a4, a4, 400
0x80014df4: 00 f7 07 33 add	a4, a4, a5
0x80014df8: 01 01 07 93 addi	a5, sp, 16
0x80014dfc: 00 f7 07 b3 add	a5, a4, a5
0x80014e00: ff e0 07 13 addi	a4, zero, -2
0x80014e04: 2c e7 a0 23 sw	a4, 704(a5)
0x80014e08: 00 20 07 13 addi	a4, zero, 2
0x80014e0c: 2c e7 a2 23 sw	a4, 708(a5)
0x80014e10: 2c 07 a6 83 lw	a3, 704(a5)
0x80014e14: 2c 47 a7 03 lw	a4, 708(a5)
0x80014e18: 00 e6 94 63 bne	a3, a4, 0x80014e20
0x80014e20: 00 00 57 37 lui	a4, 5
0x80014e24: ff ff e7 b7 lui	a5, 1048574
0x80014e28: 19 07 07 13 addi	a4, a4, 400
0x80014e2c: 00 f7 07 33 add	a4, a4, a5
0x80014e30: 01 01 07 93 addi	a5, sp, 16
0x80014e34: 00 f7 07 b3 add	a5, a4, a5
0x80014e38: ff e0 07 13 addi	a4, zero, -2
0x80014e3c: 2c e7 a4 23 sw	a4, 712(a5)
0x80014e40: 80 00 07 37 lui	a4, 524288
0x80014e44: ff e7 47 13 xori	a4, a4, -2
0x80014e48: 2c e7 a6 23 sw	a4, 716(a5)
0x80014e4c: 2c 87 a6 83 lw	a3, 712(a5)
0x80014e50: 2c c7 a7 03 lw	a4, 716(a5)
0x80014e54: 00 e6 94 63 bne	a3, a4, 0x80014e5c
0x80014e5c: 00 00 57 37 lui	a4, 5
0x80014e60: ff ff e7 b7 lui	a5, 1048574
0x80014e64: 19 07 07 13 addi	a4, a4, 400
0x80014e68: 00 f7 07 33 add	a4, a4, a5
0x80014e6c: 01 01 07 93 addi	a5, sp, 16
0x80014e70: 00 f7 07 b3 add	a5, a4, a5
0x80014e74: ff e0 07 13 addi	a4, zero, -2
0x80014e78: 2c e7 a8 23 sw	a4, 720(a5)
0x80014e7c: 80 00 07 37 lui	a4, 524288
0x80014e80: ff f7 47 13 xori	a4, a4, -1
0x80014e84: 2c e7 aa 23 sw	a4, 724(a5)
0x80014e88: 2d 07 a6 83 lw	a3, 720(a5)
0x80014e8c: 2d 47 a7 03 lw	a4, 724(a5)
0x80014e90: 00 e6 94 63 bne	a3, a4, 0x80014e98
0x80014e98: 00 00 57 37 lui	a4, 5
0x80014e9c: ff ff e7 b7 lui	a5, 1048574
0x80014ea0: 19 07 07 13 addi	a4, a4, 400
0x80014ea4: 00 f7 07 33 add	a4, a4, a5
0x80014ea8: 01 01 07 93 addi	a5, sp, 16
0x80014eac: 00 f7 07 b3 add	a5, a4, a5
0x80014eb0: ff f0 07 13 addi	a4, zero, -1
0x80014eb4: 2c e7 ac 23 sw	a4, 728(a5)
0x80014eb8: 2c e7 ae 23 sw	a4, 732(a5)
0x80014ebc: 2d 87 a6 83 lw	a3, 728(a5)
0x80014ec0: 2d c7 a7 03 lw	a4, 732(a5)
0x80014ec4: 08 e6 80 63 beq	a3, a4, 0x80014f44
0x80014f44: 00 00 57 37 lui	a4, 5
0x80014f48: ff ff e7 b7 lui	a5, 1048574
0x80014f4c: 19 07 07 13 addi	a4, a4, 400
0x80014f50: 00 f7 07 33 add	a4, a4, a5
0x80014f54: 01 01 07 93 addi	a5, sp, 16
0x80014f58: 00 f7 07 b3 add	a5, a4, a5
0x80014f5c: ff f0 07 13 addi	a4, zero, -1
0x80014f60: 2e e7 a0 23 sw	a4, 736(a5)
0x80014f64: 2e 07 a2 23 sw	zero, 740(a5)
0x80014f68: 2e 07 a6 83 lw	a3, 736(a5)
0x80014f6c: 2e 47 a7 03 lw	a4, 740(a5)
0x80014f70: 00 e6 94 63 bne	a3, a4, 0x80014f78
0x80014f78: 00 00 57 37 lui	a4, 5
0x80014f7c: ff ff e7 b7 lui	a5, 1048574
0x80014f80: 19 07 07 13 addi	a4, a4, 400
0x80014f84: 00 f7 07 33 add	a4, a4, a5
0x80014f88: 01 01 07 93 addi	a5, sp, 16
0x80014f8c: 00 f7 07 b3 add	a5, a4, a5
0x80014f90: ff f0 07 13 addi	a4, zero, -1
0x80014f94: 2e e7 a4 23 sw	a4, 744(a5)
0x80014f98: 00 10 07 13 addi	a4, zero, 1
0x80014f9c: 2e e7 a6 23 sw	a4, 748(a5)
0x80014fa0: 2e 87 a6 83 lw	a3, 744(a5)
0x80014fa4: 2e c7 a7 03 lw	a4, 748(a5)
0x80014fa8: 00 e6 94 63 bne	a3, a4, 0x80014fb0
0x80014fb0: 00 00 57 37 lui	a4, 5
0x80014fb4: ff ff e7 b7 lui	a5, 1048574
0x80014fb8: 19 07 07 13 addi	a4, a4, 400
0x80014fbc: 00 f7 07 33 add	a4, a4, a5
0x80014fc0: 01 01 07 93 addi	a5, sp, 16
0x80014fc4: 00 f7 07 b3 add	a5, a4, a5
0x80014fc8: ff f0 07 13 addi	a4, zero, -1
0x80014fcc: 2e e7 a8 23 sw	a4, 752(a5)
0x80014fd0: 00 20 07 13 addi	a4, zero, 2
0x80014fd4: 2e e7 aa 23 sw	a4, 756(a5)
0x80014fd8: 2f 07 a6 83 lw	a3, 752(a5)
0x80014fdc: 2f 47 a7 03 lw	a4, 756(a5)
0x80014fe0: 00 e6 94 63 bne	a3, a4, 0x80014fe8
0x80014fe8: 00 00 57 37 lui	a4, 5
0x80014fec: ff ff e7 b7 lui	a5, 1048574
0x80014ff0: 19 07 07 13 addi	a4, a4, 400
0x80014ff4: 00 f7 07 33 add	a4, a4, a5
0x80014ff8: 01 01 07 93 addi	a5, sp, 16
0x80014ffc: 00 f7 07 b3 add	a5, a4, a5
0x80015000: ff f0 07 13 addi	a4, zero, -1
0x80015004: 2e e7 ac 23 sw	a4, 760(a5)
0x80015008: 80 00 07 37 lui	a4, 524288
0x8001500c: ff e7 47 13 xori	a4, a4, -2
0x80015010: 2e e7 ae 23 sw	a4, 764(a5)
0x80015014: 2f 87 a6 83 lw	a3, 760(a5)
0x80015018: 2f c7 a7 03 lw	a4, 764(a5)
0x8001501c: 00 e6 94 63 bne	a3, a4, 0x80015024
0x80015024: 00 00 57 37 lui	a4, 5
0x80015028: ff ff e7 b7 lui	a5, 1048574
0x8001502c: 19 07 07 13 addi	a4, a4, 400
0x80015030: 00 f7 07 33 add	a4, a4, a5
0x80015034: 01 01 07 93 addi	a5, sp, 16
0x80015038: 00 f7 07 b3 add	a5, a4, a5
0x8001503c: ff f0 07 13 addi	a4, zero, -1
0x80015040: 30 e7 a0 23 sw	a4, 768(a5)
0x80015044: 80 00 07 37 lui	a4, 524288
0x80015048: ff f7 47 13 xori	a4, a4, -1
0x8001504c: 30 e7 a2 23 sw	a4, 772(a5)
0x80015050: 30 07 a6 83 lw	a3, 768(a5)
0x80015054: 30 47 a7 03 lw	a4, 772(a5)
0x80015058: 00 e6 94 63 bne	a3, a4, 0x80015060
0x80015060: 00 00 57 37 lui	a4, 5
0x80015064: ff ff e7 b7 lui	a5, 1048574
0x80015068: 19 07 07 13 addi	a4, a4, 400
0x8001506c: 00 f7 07 33 add	a4, a4, a5
0x80015070: 01 01 07 93 addi	a5, sp, 16
0x80015074: 00 f7 07 b3 add	a5, a4, a5
0x80015078: 30 07 a4 23 sw	zero, 776(a5)
0x8001507c: 30 07 a6 23 sw	zero, 780(a5)
0x80015080: 30 87 a6 83 lw	a3, 776(a5)
0x80015084: 30 c7 a7 03 lw	a4, 780(a5)
0x80015088: 08 e6 80 63 beq	a3, a4, 0x80015108
0x80015108: 00 00 57 37 lui	a4, 5
0x8001510c: ff ff e7 b7 lui	a5, 1048574
0x80015110: 19 07 07 13 addi	a4, a4, 400
0x80015114: 00 f7 07 33 add	a4, a4, a5
0x80015118: 01 01 07 93 addi	a5, sp, 16
0x8001511c: 00 f7 07 b3 add	a5, a4, a5
0x80015120: 30 07 a8 23 sw	zero, 784(a5)
0x80015124: 00 10 07 13 addi	a4, zero, 1
0x80015128: 30 e7 aa 23 sw	a4, 788(a5)
0x8001512c: 31 07 a6 83 lw	a3, 784(a5)
0x80015130: 31 47 a7 03 lw	a4, 788(a5)
0x80015134: 00 e6 94 63 bne	a3, a4, 0x8001513c
0x8001513c: 00 00 57 37 lui	a4, 5
0x80015140: ff ff e7 b7 lui	a5, 1048574
0x80015144: 19 07 07 13 addi	a4, a4, 400
0x80015148: 00 f7 07 33 add	a4, a4, a5
0x8001514c: 01 01 07 93 addi	a5, sp, 16
0x80015150: 00 f7 07 b3 add	a5, a4, a5
0x80015154: 30 07 ac 23 sw	zero, 792(a5)
0x80015158: 00 20 07 13 addi	a4, zero, 2
0x8001515c: 30 e7 ae 23 sw	a4, 796(a5)
0x80015160: 31 87 a6 83 lw	a3, 792(a5)
0x80015164: 31 c7 a7 03 lw	a4, 796(a5)
0x80015168: 00 e6 94 63 bne	a3, a4, 0x80015170
0x80015170: 00 00 57 37 lui	a4, 5
0x80015174: ff ff e7 b7 lui	a5, 1048574
0x80015178: 19 07 07 13 addi	a4, a4, 400
0x8001517c: 00 f7 07 33 add	a4, a4, a5
0x80015180: 01 01 07 93 addi	a5, sp, 16
0x80015184: 00 f7 07 b3 add	a5, a4, a5
0x80015188: 80 00 07 37 lui	a4, 524288
0x8001518c: 32 07 a0 23 sw	zero, 800(a5)
0x80015190: ff e7 47 13 xori	a4, a4, -2
0x80015194: 32 e7 a2 23 sw	a4, 804(a5)
0x80015198: 32 07 a6 83 lw	a3, 800(a5)
0x8001519c: 32 47 a7 03 lw	a4, 804(a5)
0x800151a0: 00 e6 94 63 bne	a3, a4, 0x800151a8
0x800151a8: 00 00 57 37 lui	a4, 5
0x800151ac: ff ff e7 b7 lui	a5, 1048574
0x800151b0: 19 07 07 13 addi	a4, a4, 400
0x800151b4: 00 f7 07 33 add	a4, a4, a5
0x800151b8: 01 01 07 93 addi	a5, sp, 16
0x800151bc: 00 f7 07 b3 add	a5, a4, a5
0x800151c0: 80 00 07 37 lui	a4, 524288
0x800151c4: 32 07 a4 23 sw	zero, 808(a5)
0x800151c8: ff f7 47 13 xori	a4, a4, -1
0x800151cc: 32 e7 a6 23 sw	a4, 812(a5)
0x800151d0: 32 87 a6 83 lw	a3, 808(a5)
0x800151d4: 32 c7 a7 03 lw	a4, 812(a5)
0x800151d8: 00 e6 94 63 bne	a3, a4, 0x800151e0
0x800151e0: 00 00 57 37 lui	a4, 5
0x800151e4: ff ff e7 b7 lui	a5, 1048574
0x800151e8: 19 07 07 13 addi	a4, a4, 400
0x800151ec: 00 f7 07 33 add	a4, a4, a5
0x800151f0: 01 01 07 93 addi	a5, sp, 16
0x800151f4: 00 f7 07 b3 add	a5, a4, a5
0x800151f8: 00 10 07 13 addi	a4, zero, 1
0x800151fc: 32 e7 a8 23 sw	a4, 816(a5)
0x80015200: 32 e7 aa 23 sw	a4, 820(a5)
0x80015204: 33 07 a6 83 lw	a3, 816(a5)
0x80015208: 33 47 a7 03 lw	a4, 820(a5)
0x8001520c: 08 e6 80 63 beq	a3, a4, 0x8001528c
0x8001528c: 00 00 57 37 lui	a4, 5
0x80015290: ff ff e7 b7 lui	a5, 1048574
0x80015294: 19 07 07 13 addi	a4, a4, 400
0x80015298: 00 f7 07 33 add	a4, a4, a5
0x8001529c: 01 01 07 93 addi	a5, sp, 16
0x800152a0: 00 f7 07 b3 add	a5, a4, a5
0x800152a4: 00 10 07 13 addi	a4, zero, 1
0x800152a8: 32 e7 ac 23 sw	a4, 824(a5)
0x800152ac: 00 20 07 13 addi	a4, zero, 2
0x800152b0: 32 e7 ae 23 sw	a4, 828(a5)
0x800152b4: 33 87 a6 83 lw	a3, 824(a5)
0x800152b8: 33 c7 a7 03 lw	a4, 828(a5)
0x800152bc: 00 e6 94 63 bne	a3, a4, 0x800152c4
0x800152c4: 00 00 57 37 lui	a4, 5
0x800152c8: ff ff e7 b7 lui	a5, 1048574
0x800152cc: 19 07 07 13 addi	a4, a4, 400
0x800152d0: 00 f7 07 33 add	a4, a4, a5
0x800152d4: 01 01 07 93 addi	a5, sp, 16
0x800152d8: 00 f7 07 b3 add	a5, a4, a5
0x800152dc: 00 10 07 13 addi	a4, zero, 1
0x800152e0: 34 e7 a0 23 sw	a4, 832(a5)
0x800152e4: 80 00 07 37 lui	a4, 524288
0x800152e8: ff e7 47 13 xori	a4, a4, -2
0x800152ec: 34 e7 a2 23 sw	a4, 836(a5)
0x800152f0: 34 07 a6 83 lw	a3, 832(a5)
0x800152f4: 34 47 a7 03 lw	a4, 836(a5)
0x800152f8: 00 e6 94 63 bne	a3, a4, 0x80015300
0x80015300: 00 00 57 37 lui	a4, 5
0x80015304: ff ff e7 b7 lui	a5, 1048574
0x80015308: 19 07 07 13 addi	a4, a4, 400
0x8001530c: 00 f7 07 33 add	a4, a4, a5
0x80015310: 01 01 07 93 addi	a5, sp, 16
0x80015314: 00 f7 07 b3 add	a5, a4, a5
0x80015318: 00 10 07 13 addi	a4, zero, 1
0x8001531c: 34 e7 a4 23 sw	a4, 840(a5)
0x80015320: 80 00 07 37 lui	a4, 524288
0x80015324: ff f7 47 13 xori	a4, a4, -1
0x80015328: 34 e7 a6 23 sw	a4, 844(a5)
0x8001532c: 34 87 a6 83 lw	a3, 840(a5)
0x80015330: 34 c7 a7 03 lw	a4, 844(a5)
0x80015334: 00 e6 94 63 bne	a3, a4, 0x8001533c
0x8001533c: 00 00 57 37 lui	a4, 5
0x80015340: ff ff e7 b7 lui	a5, 1048574
0x80015344: 19 07 07 13 addi	a4, a4, 400
0x80015348: 00 f7 07 33 add	a4, a4, a5
0x8001534c: 01 01 07 93 addi	a5, sp, 16
0x80015350: 00 f7 07 b3 add	a5, a4, a5
0x80015354: 00 20 07 13 addi	a4, zero, 2
0x80015358: 34 e7 a8 23 sw	a4, 848(a5)
0x8001535c: 34 e7 aa 23 sw	a4, 852(a5)
0x80015360: 35 07 a6 83 lw	a3, 848(a5)
0x80015364: 35 47 a7 03 lw	a4, 852(a5)
0x80015368: 08 e6 80 63 beq	a3, a4, 0x800153e8
0x800153e8: 00 00 57 37 lui	a4, 5
0x800153ec: ff ff e7 b7 lui	a5, 1048574
0x800153f0: 19 07 07 13 addi	a4, a4, 400
0x800153f4: 00 f7 07 33 add	a4, a4, a5
0x800153f8: 01 01 07 93 addi	a5, sp, 16
0x800153fc: 00 f7 07 b3 add	a5, a4, a5
0x80015400: 00 20 07 13 addi	a4, zero, 2
0x80015404: 34 e7 ac 23 sw	a4, 856(a5)
0x80015408: 80 00 07 37 lui	a4, 524288
0x8001540c: ff e7 47 13 xori	a4, a4, -2
0x80015410: 34 e7 ae 23 sw	a4, 860(a5)
0x80015414: 35 87 a6 83 lw	a3, 856(a5)
0x80015418: 35 c7 a7 03 lw	a4, 860(a5)
0x8001541c: 00 e6 94 63 bne	a3, a4, 0x80015424
0x80015424: 00 00 57 37 lui	a4, 5
0x80015428: ff ff e7 b7 lui	a5, 1048574
0x8001542c: 19 07 07 13 addi	a4, a4, 400
0x80015430: 00 f7 07 33 add	a4, a4, a5
0x80015434: 01 01 07 93 addi	a5, sp, 16
0x80015438: 00 f7 07 b3 add	a5, a4, a5
0x8001543c: 00 20 07 13 addi	a4, zero, 2
0x80015440: 36 e7 a0 23 sw	a4, 864(a5)
0x80015444: 80 00 07 37 lui	a4, 524288
0x80015448: ff f7 47 13 xori	a4, a4, -1
0x8001544c: 36 e7 a2 23 sw	a4, 868(a5)
0x80015450: 36 07 a6 83 lw	a3, 864(a5)
0x80015454: 36 47 a7 03 lw	a4, 868(a5)
0x80015458: 00 e6 94 63 bne	a3, a4, 0x80015460
0x80015460: 00 00 57 37 lui	a4, 5
0x80015464: ff ff e7 b7 lui	a5, 1048574
0x80015468: 19 07 07 13 addi	a4, a4, 400
0x8001546c: 00 f7 07 33 add	a4, a4, a5
0x80015470: 01 01 07 93 addi	a5, sp, 16
0x80015474: 00 f7 07 b3 add	a5, a4, a5
0x80015478: 80 00 07 37 lui	a4, 524288
0x8001547c: ff e7 47 13 xori	a4, a4, -2
0x80015480: 36 e7 a4 23 sw	a4, 872(a5)
0x80015484: 36 e7 a6 23 sw	a4, 876(a5)
0x80015488: 36 87 a6 83 lw	a3, 872(a5)
0x8001548c: 36 c7 a7 03 lw	a4, 876(a5)
0x80015490: 08 e6 82 63 beq	a3, a4, 0x80015514
0x80015514: 00 00 56 b7 lui	a3, 5
0x80015518: ff ff e7 b7 lui	a5, 1048574
0x8001551c: 19 06 86 93 addi	a3, a3, 400
0x80015520: 00 f6 86 b3 add	a3, a3, a5
0x80015524: 80 00 07 37 lui	a4, 524288
0x80015528: 01 01 07 93 addi	a5, sp, 16
0x8001552c: 00 f6 87 b3 add	a5, a3, a5
0x80015530: ff e7 46 93 xori	a3, a4, -2
0x80015534: 36 d7 a8 23 sw	a3, 880(a5)
0x80015538: ff f7 47 13 xori	a4, a4, -1
0x8001553c: 36 e7 aa 23 sw	a4, 884(a5)
0x80015540: 37 07 a6 83 lw	a3, 880(a5)
0x80015544: 37 47 a7 03 lw	a4, 884(a5)
0x80015548: 00 e6 94 63 bne	a3, a4, 0x80015550
0x80015550: 00 00 57 37 lui	a4, 5
0x80015554: ff ff e7 b7 lui	a5, 1048574
0x80015558: 19 07 07 13 addi	a4, a4, 400
0x8001555c: 00 f7 07 33 add	a4, a4, a5
0x80015560: 01 01 07 93 addi	a5, sp, 16
0x80015564: 00 f7 07 b3 add	a5, a4, a5
0x80015568: 80 00 07 37 lui	a4, 524288
0x8001556c: ff f7 47 13 xori	a4, a4, -1
0x80015570: 36 e7 ac 23 sw	a4, 888(a5)
0x80015574: 36 e7 ae 23 sw	a4, 892(a5)
0x80015578: 37 87 a6 83 lw	a3, 888(a5)
0x8001557c: 37 c7 a7 03 lw	a4, 892(a5)
0x80015580: 08 e6 82 63 beq	a3, a4, 0x80015604
0x80015604: 00 00 57 37 lui	a4, 5
0x80015608: ff ff e7 b7 lui	a5, 1048574
0x8001560c: 19 07 07 13 addi	a4, a4, 400
0x80015610: 00 f7 07 33 add	a4, a4, a5
0x80015614: 01 01 07 93 addi	a5, sp, 16
0x80015618: 00 f7 07 b3 add	a5, a4, a5
0x8001561c: 80 00 07 37 lui	a4, 524288
0x80015620: 38 e7 a0 23 sw	a4, 896(a5)
0x80015624: 38 e7 a2 23 sw	a4, 900(a5)
0x80015628: 38 07 a6 83 lw	a3, 896(a5)
0x8001562c: 38 47 a7 03 lw	a4, 900(a5)
0x80015630: 08 e6 80 63 beq	a3, a4, 0x800156b0
0x800156b0: 00 00 57 37 lui	a4, 5
0x800156b4: ff ff e7 b7 lui	a5, 1048574
0x800156b8: 19 07 07 13 addi	a4, a4, 400
0x800156bc: 00 f7 07 33 add	a4, a4, a5
0x800156c0: 01 01 07 93 addi	a5, sp, 16
0x800156c4: 00 f7 07 b3 add	a5, a4, a5
0x800156c8: 80 00 07 37 lui	a4, 524288
0x800156cc: 38 e7 a4 23 sw	a4, 904(a5)
0x800156d0: 00 17 07 13 addi	a4, a4, 1
0x800156d4: 38 e7 a6 23 sw	a4, 908(a5)
0x800156d8: 38 87 a6 83 lw	a3, 904(a5)
0x800156dc: 38 c7 a7 03 lw	a4, 908(a5)
0x800156e0: 00 e6 94 63 bne	a3, a4, 0x800156e8
0x800156e8: 00 00 57 37 lui	a4, 5
0x800156ec: ff ff e7 b7 lui	a5, 1048574
0x800156f0: 19 07 07 13 addi	a4, a4, 400
0x800156f4: 00 f7 07 33 add	a4, a4, a5
0x800156f8: 01 01 07 93 addi	a5, sp, 16
0x800156fc: 00 f7 07 b3 add	a5, a4, a5
0x80015700: 80 00 07 37 lui	a4, 524288
0x80015704: 38 e7 a8 23 sw	a4, 912(a5)
0x80015708: ff e0 07 13 addi	a4, zero, -2
0x8001570c: 38 e7 aa 23 sw	a4, 916(a5)
0x80015710: 39 07 a6 83 lw	a3, 912(a5)
0x80015714: 39 47 a7 03 lw	a4, 916(a5)
0x80015718: 00 e6 94 63 bne	a3, a4, 0x80015720
0x80015720: 00 00 57 37 lui	a4, 5
0x80015724: ff ff e7 b7 lui	a5, 1048574
0x80015728: 19 07 07 13 addi	a4, a4, 400
0x8001572c: 00 f7 07 33 add	a4, a4, a5
0x80015730: 01 01 07 93 addi	a5, sp, 16
0x80015734: 00 f7 07 b3 add	a5, a4, a5
0x80015738: 80 00 07 37 lui	a4, 524288
0x8001573c: 38 e7 ac 23 sw	a4, 920(a5)
0x80015740: ff f0 07 13 addi	a4, zero, -1
0x80015744: 38 e7 ae 23 sw	a4, 924(a5)
0x80015748: 39 87 a6 83 lw	a3, 920(a5)
0x8001574c: 39 c7 a7 03 lw	a4, 924(a5)
0x80015750: 00 e6 94 63 bne	a3, a4, 0x80015758
0x80015758: 00 00 57 37 lui	a4, 5
0x8001575c: ff ff e7 b7 lui	a5, 1048574
0x80015760: 19 07 07 13 addi	a4, a4, 400
0x80015764: 00 f7 07 33 add	a4, a4, a5
0x80015768: 01 01 07 93 addi	a5, sp, 16
0x8001576c: 00 f7 07 b3 add	a5, a4, a5
0x80015770: 80 00 07 37 lui	a4, 524288
0x80015774: 3a e7 a0 23 sw	a4, 928(a5)
0x80015778: 3a 07 a2 23 sw	zero, 932(a5)
0x8001577c: 3a 07 a6 83 lw	a3, 928(a5)
0x80015780: 3a 47 a7 03 lw	a4, 932(a5)
0x80015784: 00 e6 94 63 bne	a3, a4, 0x8001578c
0x8001578c: 00 00 57 37 lui	a4, 5
0x80015790: ff ff e7 b7 lui	a5, 1048574
0x80015794: 19 07 07 13 addi	a4, a4, 400
0x80015798: 00 f7 07 33 add	a4, a4, a5
0x8001579c: 01 01 07 93 addi	a5, sp, 16
0x800157a0: 00 f7 07 b3 add	a5, a4, a5
0x800157a4: 80 00 07 37 lui	a4, 524288
0x800157a8: 3a e7 a4 23 sw	a4, 936(a5)
0x800157ac: 00 10 07 13 addi	a4, zero, 1
0x800157b0: 3a e7 a6 23 sw	a4, 940(a5)
0x800157b4: 3a 87 a6 83 lw	a3, 936(a5)
0x800157b8: 3a c7 a7 03 lw	a4, 940(a5)
0x800157bc: 00 e6 94 63 bne	a3, a4, 0x800157c4
0x800157c4: 00 00 57 37 lui	a4, 5
0x800157c8: ff ff e7 b7 lui	a5, 1048574
0x800157cc: 19 07 07 13 addi	a4, a4, 400
0x800157d0: 00 f7 07 33 add	a4, a4, a5
0x800157d4: 01 01 07 93 addi	a5, sp, 16
0x800157d8: 00 f7 07 b3 add	a5, a4, a5
0x800157dc: 80 00 07 37 lui	a4, 524288
0x800157e0: 3a e7 a8 23 sw	a4, 944(a5)
0x800157e4: 00 20 07 13 addi	a4, zero, 2
0x800157e8: 3a e7 aa 23 sw	a4, 948(a5)
0x800157ec: 3b 07 a6 83 lw	a3, 944(a5)
0x800157f0: 3b 47 a7 03 lw	a4, 948(a5)
0x800157f4: 00 e6 94 63 bne	a3, a4, 0x800157fc
0x800157fc: 00 00 57 37 lui	a4, 5
0x80015800: ff ff e7 b7 lui	a5, 1048574
0x80015804: 19 07 07 13 addi	a4, a4, 400
0x80015808: 00 f7 07 33 add	a4, a4, a5
0x8001580c: 01 01 07 93 addi	a5, sp, 16
0x80015810: 00 f7 07 b3 add	a5, a4, a5
0x80015814: 80 00 07 37 lui	a4, 524288
0x80015818: 3a e7 ac 23 sw	a4, 952(a5)
0x8001581c: ff e7 47 13 xori	a4, a4, -2
0x80015820: 3a e7 ae 23 sw	a4, 956(a5)
0x80015824: 3b 87 a6 83 lw	a3, 952(a5)
0x80015828: 3b c7 a7 03 lw	a4, 956(a5)
0x8001582c: 00 e6 94 63 bne	a3, a4, 0x80015834
0x80015834: 00 00 57 37 lui	a4, 5
0x80015838: ff ff e7 b7 lui	a5, 1048574
0x8001583c: 19 07 07 13 addi	a4, a4, 400
0x80015840: 00 f7 07 33 add	a4, a4, a5
0x80015844: 01 01 07 93 addi	a5, sp, 16
0x80015848: 00 f7 07 b3 add	a5, a4, a5
0x8001584c: 80 00 07 37 lui	a4, 524288
0x80015850: 3c e7 a0 23 sw	a4, 960(a5)
0x80015854: ff f7 47 13 xori	a4, a4, -1
0x80015858: 3c e7 a2 23 sw	a4, 964(a5)
0x8001585c: 3c 07 a6 83 lw	a3, 960(a5)
0x80015860: 3c 47 a7 03 lw	a4, 964(a5)
0x80015864: 00 e6 94 63 bne	a3, a4, 0x8001586c
0x8001586c: 00 00 57 37 lui	a4, 5
0x80015870: ff ff e7 b7 lui	a5, 1048574
0x80015874: 19 07 07 13 addi	a4, a4, 400
0x80015878: 00 f7 07 33 add	a4, a4, a5
0x8001587c: 01 01 07 93 addi	a5, sp, 16
0x80015880: 00 f7 07 b3 add	a5, a4, a5
0x80015884: 80 00 07 37 lui	a4, 524288
0x80015888: 00 17 07 13 addi	a4, a4, 1
0x8001588c: 3c e7 a4 23 sw	a4, 968(a5)
0x80015890: 3c e7 a6 23 sw	a4, 972(a5)
0x80015894: 3c 87 a6 83 lw	a3, 968(a5)
0x80015898: 3c c7 a7 03 lw	a4, 972(a5)
0x8001589c: 08 e6 82 63 beq	a3, a4, 0x80015920
0x80015920: 00 00 57 37 lui	a4, 5
0x80015924: ff ff e7 b7 lui	a5, 1048574
0x80015928: 19 07 07 13 addi	a4, a4, 400
0x8001592c: 00 f7 07 33 add	a4, a4, a5
0x80015930: 01 01 07 93 addi	a5, sp, 16
0x80015934: 00 f7 07 b3 add	a5, a4, a5
0x80015938: 80 00 07 37 lui	a4, 524288
0x8001593c: 00 17 07 13 addi	a4, a4, 1
0x80015940: 3c e7 a8 23 sw	a4, 976(a5)
0x80015944: ff e0 07 13 addi	a4, zero, -2
0x80015948: 3c e7 aa 23 sw	a4, 980(a5)
0x8001594c: 3d 07 a6 83 lw	a3, 976(a5)
0x80015950: 3d 47 a7 03 lw	a4, 980(a5)
0x80015954: 00 e6 94 63 bne	a3, a4, 0x8001595c
0x8001595c: 00 00 57 37 lui	a4, 5
0x80015960: ff ff e7 b7 lui	a5, 1048574
0x80015964: 19 07 07 13 addi	a4, a4, 400
0x80015968: 00 f7 07 33 add	a4, a4, a5
0x8001596c: 01 01 07 93 addi	a5, sp, 16
0x80015970: 00 f7 07 b3 add	a5, a4, a5
0x80015974: 80 00 07 37 lui	a4, 524288
0x80015978: 00 17 07 13 addi	a4, a4, 1
0x8001597c: 3c e7 ac 23 sw	a4, 984(a5)
0x80015980: ff f0 07 13 addi	a4, zero, -1
0x80015984: 3c e7 ae 23 sw	a4, 988(a5)
0x80015988: 3d 87 a6 83 lw	a3, 984(a5)
0x8001598c: 3d c7 a7 03 lw	a4, 988(a5)
0x80015990: 00 e6 94 63 bne	a3, a4, 0x80015998
0x80015998: 00 00 57 37 lui	a4, 5
0x8001599c: ff ff e7 b7 lui	a5, 1048574
0x800159a0: 19 07 07 13 addi	a4, a4, 400
0x800159a4: 00 f7 07 33 add	a4, a4, a5
0x800159a8: 01 01 07 93 addi	a5, sp, 16
0x800159ac: 00 f7 07 b3 add	a5, a4, a5
0x800159b0: 80 00 07 37 lui	a4, 524288
0x800159b4: 00 17 07 13 addi	a4, a4, 1
0x800159b8: 3e e7 a0 23 sw	a4, 992(a5)
0x800159bc: 3e 07 a2 23 sw	zero, 996(a5)
0x800159c0: 3e 07 a6 83 lw	a3, 992(a5)
0x800159c4: 3e 47 a7 03 lw	a4, 996(a5)
0x800159c8: 00 e6 94 63 bne	a3, a4, 0x800159d0
0x800159d0: 00 00 57 37 lui	a4, 5
0x800159d4: ff ff e7 b7 lui	a5, 1048574
0x800159d8: 19 07 07 13 addi	a4, a4, 400
0x800159dc: 00 f7 07 33 add	a4, a4, a5
0x800159e0: 01 01 07 93 addi	a5, sp, 16
0x800159e4: 00 f7 07 b3 add	a5, a4, a5
0x800159e8: 80 00 07 37 lui	a4, 524288
0x800159ec: 00 17 07 13 addi	a4, a4, 1
0x800159f0: 3e e7 a4 23 sw	a4, 1000(a5)
0x800159f4: 00 10 07 13 addi	a4, zero, 1
0x800159f8: 3e e7 a6 23 sw	a4, 1004(a5)
0x800159fc: 3e 87 a6 83 lw	a3, 1000(a5)
0x80015a00: 3e c7 a7 03 lw	a4, 1004(a5)
0x80015a04: 00 e6 94 63 bne	a3, a4, 0x80015a0c
0x80015a0c: 00 00 57 37 lui	a4, 5
0x80015a10: ff ff e7 b7 lui	a5, 1048574
0x80015a14: 19 07 07 13 addi	a4, a4, 400
0x80015a18: 00 f7 07 33 add	a4, a4, a5
0x80015a1c: 01 01 07 93 addi	a5, sp, 16
0x80015a20: 00 f7 07 b3 add	a5, a4, a5
0x80015a24: 80 00 07 37 lui	a4, 524288
0x80015a28: 00 17 07 13 addi	a4, a4, 1
0x80015a2c: 3e e7 a8 23 sw	a4, 1008(a5)
0x80015a30: 00 20 07 13 addi	a4, zero, 2
0x80015a34: 3e e7 aa 23 sw	a4, 1012(a5)
0x80015a38: 3f 07 a6 83 lw	a3, 1008(a5)
0x80015a3c: 3f 47 a7 03 lw	a4, 1012(a5)
0x80015a40: 00 e6 94 63 bne	a3, a4, 0x80015a48
0x80015a48: 00 00 56 b7 lui	a3, 5
0x80015a4c: ff ff e7 b7 lui	a5, 1048574
0x80015a50: 19 06 86 93 addi	a3, a3, 400
0x80015a54: 00 f6 86 b3 add	a3, a3, a5
0x80015a58: 80 00 07 37 lui	a4, 524288
0x80015a5c: 01 01 07 93 addi	a5, sp, 16
0x80015a60: 00 f6 87 b3 add	a5, a3, a5
0x80015a64: 00 17 06 93 addi	a3, a4, 1
0x80015a68: 3e d7 ac 23 sw	a3, 1016(a5)
0x80015a6c: ff e7 47 13 xori	a4, a4, -2
0x80015a70: 3e e7 ae 23 sw	a4, 1020(a5)
0x80015a74: 3f 87 a6 83 lw	a3, 1016(a5)
0x80015a78: 3f c7 a7 03 lw	a4, 1020(a5)
0x80015a7c: 00 e6 94 63 bne	a3, a4, 0x80015a84
0x80015a84: 00 00 56 b7 lui	a3, 5
0x80015a88: ff ff e7 b7 lui	a5, 1048574
0x80015a8c: 19 06 86 93 addi	a3, a3, 400
0x80015a90: 00 f6 86 b3 add	a3, a3, a5
0x80015a94: 80 00 07 37 lui	a4, 524288
0x80015a98: 01 01 07 93 addi	a5, sp, 16
0x80015a9c: 00 f6 87 b3 add	a5, a3, a5
0x80015aa0: 00 17 06 93 addi	a3, a4, 1
0x80015aa4: 40 d7 a0 23 sw	a3, 1024(a5)
0x80015aa8: ff f7 47 13 xori	a4, a4, -1
0x80015aac: 40 e7 a2 23 sw	a4, 1028(a5)
0x80015ab0: 40 07 a6 83 lw	a3, 1024(a5)
0x80015ab4: 40 47 a7 03 lw	a4, 1028(a5)
0x80015ab8: 00 e6 94 63 bne	a3, a4, 0x80015ac0
0x80015ac0: 00 00 57 37 lui	a4, 5
0x80015ac4: ff ff e7 b7 lui	a5, 1048574
0x80015ac8: 19 07 07 13 addi	a4, a4, 400
0x80015acc: 00 f7 07 33 add	a4, a4, a5
0x80015ad0: 01 01 07 93 addi	a5, sp, 16
0x80015ad4: 00 f7 07 b3 add	a5, a4, a5
0x80015ad8: ff e0 07 13 addi	a4, zero, -2
0x80015adc: 40 e7 a4 23 sw	a4, 1032(a5)
0x80015ae0: 40 e7 a6 23 sw	a4, 1036(a5)
0x80015ae4: 40 87 a6 83 lw	a3, 1032(a5)
0x80015ae8: 40 c7 a7 03 lw	a4, 1036(a5)
0x80015aec: 08 e6 80 63 beq	a3, a4, 0x80015b6c
0x80015b6c: 00 00 57 37 lui	a4, 5
0x80015b70: ff ff e7 b7 lui	a5, 1048574
0x80015b74: 19 07 07 13 addi	a4, a4, 400
0x80015b78: 00 f7 07 33 add	a4, a4, a5
0x80015b7c: 01 01 07 93 addi	a5, sp, 16
0x80015b80: 00 f7 07 b3 add	a5, a4, a5
0x80015b84: ff e0 07 13 addi	a4, zero, -2
0x80015b88: 40 e7 a8 23 sw	a4, 1040(a5)
0x80015b8c: ff f0 07 13 addi	a4, zero, -1
0x80015b90: 40 e7 aa 23 sw	a4, 1044(a5)
0x80015b94: 41 07 a6 83 lw	a3, 1040(a5)
0x80015b98: 41 47 a7 03 lw	a4, 1044(a5)
0x80015b9c: 00 e6 94 63 bne	a3, a4, 0x80015ba4
0x80015ba4: 00 00 57 37 lui	a4, 5
0x80015ba8: ff ff e7 b7 lui	a5, 1048574
0x80015bac: 19 07 07 13 addi	a4, a4, 400
0x80015bb0: 00 f7 07 33 add	a4, a4, a5
0x80015bb4: 01 01 07 93 addi	a5, sp, 16
0x80015bb8: 00 f7 07 b3 add	a5, a4, a5
0x80015bbc: ff e0 07 13 addi	a4, zero, -2
0x80015bc0: 40 e7 ac 23 sw	a4, 1048(a5)
0x80015bc4: 40 07 ae 23 sw	zero, 1052(a5)
0x80015bc8: 41 87 a6 83 lw	a3, 1048(a5)
0x80015bcc: 41 c7 a7 03 lw	a4, 1052(a5)
0x80015bd0: 00 e6 94 63 bne	a3, a4, 0x80015bd8
0x80015bd8: 00 00 57 37 lui	a4, 5
0x80015bdc: ff ff e7 b7 lui	a5, 1048574
0x80015be0: 19 07 07 13 addi	a4, a4, 400
0x80015be4: 00 f7 07 33 add	a4, a4, a5
0x80015be8: 01 01 07 93 addi	a5, sp, 16
0x80015bec: 00 f7 07 b3 add	a5, a4, a5
0x80015bf0: ff e0 07 13 addi	a4, zero, -2
0x80015bf4: 42 e7 a0 23 sw	a4, 1056(a5)
0x80015bf8: 00 10 07 13 addi	a4, zero, 1
0x80015bfc: 42 e7 a2 23 sw	a4, 1060(a5)
0x80015c00: 42 07 a6 83 lw	a3, 1056(a5)
0x80015c04: 42 47 a7 03 lw	a4, 1060(a5)
0x80015c08: 00 e6 94 63 bne	a3, a4, 0x80015c10
0x80015c10: 00 00 57 37 lui	a4, 5
0x80015c14: ff ff e7 b7 lui	a5, 1048574
0x80015c18: 19 07 07 13 addi	a4, a4, 400
0x80015c1c: 00 f7 07 33 add	a4, a4, a5
0x80015c20: 01 01 07 93 addi	a5, sp, 16
0x80015c24: 00 f7 07 b3 add	a5, a4, a5
0x80015c28: ff e0 07 13 addi	a4, zero, -2
0x80015c2c: 42 e7 a4 23 sw	a4, 1064(a5)
0x80015c30: 00 20 07 13 addi	a4, zero, 2
0x80015c34: 42 e7 a6 23 sw	a4, 1068(a5)
0x80015c38: 42 87 a6 83 lw	a3, 1064(a5)
0x80015c3c: 42 c7 a7 03 lw	a4, 1068(a5)
0x80015c40: 00 e6 94 63 bne	a3, a4, 0x80015c48
0x80015c48: 00 00 57 37 lui	a4, 5
0x80015c4c: ff ff e7 b7 lui	a5, 1048574
0x80015c50: 19 07 07 13 addi	a4, a4, 400
0x80015c54: 00 f7 07 33 add	a4, a4, a5
0x80015c58: 01 01 07 93 addi	a5, sp, 16
0x80015c5c: 00 f7 07 b3 add	a5, a4, a5
0x80015c60: ff e0 07 13 addi	a4, zero, -2
0x80015c64: 42 e7 a8 23 sw	a4, 1072(a5)
0x80015c68: 80 00 07 37 lui	a4, 524288
0x80015c6c: ff e7 47 13 xori	a4, a4, -2
0x80015c70: 42 e7 aa 23 sw	a4, 1076(a5)
0x80015c74: 43 07 a6 83 lw	a3, 1072(a5)
0x80015c78: 43 47 a7 03 lw	a4, 1076(a5)
0x80015c7c: 00 e6 94 63 bne	a3, a4, 0x80015c84
0x80015c84: 00 00 57 37 lui	a4, 5
0x80015c88: ff ff e7 b7 lui	a5, 1048574
0x80015c8c: 19 07 07 13 addi	a4, a4, 400
0x80015c90: 00 f7 07 33 add	a4, a4, a5
0x80015c94: 01 01 07 93 addi	a5, sp, 16
0x80015c98: 00 f7 07 b3 add	a5, a4, a5
0x80015c9c: ff e0 07 13 addi	a4, zero, -2
0x80015ca0: 42 e7 ac 23 sw	a4, 1080(a5)
0x80015ca4: 80 00 07 37 lui	a4, 524288
0x80015ca8: ff f7 47 13 xori	a4, a4, -1
0x80015cac: 42 e7 ae 23 sw	a4, 1084(a5)
0x80015cb0: 43 87 a6 83 lw	a3, 1080(a5)
0x80015cb4: 43 c7 a7 03 lw	a4, 1084(a5)
0x80015cb8: 00 e6 94 63 bne	a3, a4, 0x80015cc0
0x80015cc0: 00 00 57 37 lui	a4, 5
0x80015cc4: ff ff e7 b7 lui	a5, 1048574
0x80015cc8: 19 07 07 13 addi	a4, a4, 400
0x80015ccc: 00 f7 07 33 add	a4, a4, a5
0x80015cd0: 01 01 07 93 addi	a5, sp, 16
0x80015cd4: 00 f7 07 b3 add	a5, a4, a5
0x80015cd8: ff f0 07 13 addi	a4, zero, -1
0x80015cdc: 44 e7 a0 23 sw	a4, 1088(a5)
0x80015ce0: 44 e7 a2 23 sw	a4, 1092(a5)
0x80015ce4: 44 07 a6 83 lw	a3, 1088(a5)
0x80015ce8: 44 47 a7 03 lw	a4, 1092(a5)
0x80015cec: 08 e6 80 63 beq	a3, a4, 0x80015d6c
0x80015d6c: 00 00 57 37 lui	a4, 5
0x80015d70: ff ff e7 b7 lui	a5, 1048574
0x80015d74: 19 07 07 13 addi	a4, a4, 400
0x80015d78: 00 f7 07 33 add	a4, a4, a5
0x80015d7c: 01 01 07 93 addi	a5, sp, 16
0x80015d80: 00 f7 07 b3 add	a5, a4, a5
0x80015d84: ff f0 07 13 addi	a4, zero, -1
0x80015d88: 44 e7 a4 23 sw	a4, 1096(a5)
0x80015d8c: 44 07 a6 23 sw	zero, 1100(a5)
0x80015d90: 44 87 a6 83 lw	a3, 1096(a5)
0x80015d94: 44 c7 a7 03 lw	a4, 1100(a5)
0x80015d98: 00 e6 94 63 bne	a3, a4, 0x80015da0
0x80015da0: 00 00 57 37 lui	a4, 5
0x80015da4: ff ff e7 b7 lui	a5, 1048574
0x80015da8: 19 07 07 13 addi	a4, a4, 400
0x80015dac: 00 f7 07 33 add	a4, a4, a5
0x80015db0: 01 01 07 93 addi	a5, sp, 16
0x80015db4: 00 f7 07 b3 add	a5, a4, a5
0x80015db8: ff f0 07 13 addi	a4, zero, -1
0x80015dbc: 44 e7 a8 23 sw	a4, 1104(a5)
0x80015dc0: 00 10 07 13 addi	a4, zero, 1
0x80015dc4: 44 e7 aa 23 sw	a4, 1108(a5)
0x80015dc8: 45 07 a6 83 lw	a3, 1104(a5)
0x80015dcc: 45 47 a7 03 lw	a4, 1108(a5)
0x80015dd0: 00 e6 94 63 bne	a3, a4, 0x80015dd8
0x80015dd8: 00 00 57 37 lui	a4, 5
0x80015ddc: ff ff e7 b7 lui	a5, 1048574
0x80015de0: 19 07 07 13 addi	a4, a4, 400
0x80015de4: 00 f7 07 33 add	a4, a4, a5
0x80015de8: 01 01 07 93 addi	a5, sp, 16
0x80015dec: 00 f7 07 b3 add	a5, a4, a5
0x80015df0: ff f0 07 13 addi	a4, zero, -1
0x80015df4: 44 e7 ac 23 sw	a4, 1112(a5)
0x80015df8: 00 20 07 13 addi	a4, zero, 2
0x80015dfc: 44 e7 ae 23 sw	a4, 1116(a5)
0x80015e00: 45 87 a6 83 lw	a3, 1112(a5)
0x80015e04: 45 c7 a7 03 lw	a4, 1116(a5)
0x80015e08: 00 e6 94 63 bne	a3, a4, 0x80015e10
0x80015e10: 00 00 57 37 lui	a4, 5
0x80015e14: ff ff e7 b7 lui	a5, 1048574
0x80015e18: 19 07 07 13 addi	a4, a4, 400
0x80015e1c: 00 f7 07 33 add	a4, a4, a5
0x80015e20: 01 01 07 93 addi	a5, sp, 16
0x80015e24: 00 f7 07 b3 add	a5, a4, a5
0x80015e28: ff f0 07 13 addi	a4, zero, -1
0x80015e2c: 46 e7 a0 23 sw	a4, 1120(a5)
0x80015e30: 80 00 07 37 lui	a4, 524288
0x80015e34: ff e7 47 13 xori	a4, a4, -2
0x80015e38: 46 e7 a2 23 sw	a4, 1124(a5)
0x80015e3c: 46 07 a6 83 lw	a3, 1120(a5)
0x80015e40: 46 47 a7 03 lw	a4, 1124(a5)
0x80015e44: 00 e6 94 63 bne	a3, a4, 0x80015e4c
0x80015e4c: 00 00 57 37 lui	a4, 5
0x80015e50: ff ff e7 b7 lui	a5, 1048574
0x80015e54: 19 07 07 13 addi	a4, a4, 400
0x80015e58: 00 f7 07 33 add	a4, a4, a5
0x80015e5c: 01 01 07 93 addi	a5, sp, 16
0x80015e60: 00 f7 07 b3 add	a5, a4, a5
0x80015e64: ff f0 07 13 addi	a4, zero, -1
0x80015e68: 46 e7 a4 23 sw	a4, 1128(a5)
0x80015e6c: 80 00 07 37 lui	a4, 524288
0x80015e70: ff f7 47 13 xori	a4, a4, -1
0x80015e74: 46 e7 a6 23 sw	a4, 1132(a5)
0x80015e78: 46 87 a6 83 lw	a3, 1128(a5)
0x80015e7c: 46 c7 a7 03 lw	a4, 1132(a5)
0x80015e80: 00 e6 94 63 bne	a3, a4, 0x80015e88
0x80015e88: 00 00 57 37 lui	a4, 5
0x80015e8c: ff ff e7 b7 lui	a5, 1048574
0x80015e90: 19 07 07 13 addi	a4, a4, 400
0x80015e94: 00 f7 07 33 add	a4, a4, a5
0x80015e98: 01 01 07 93 addi	a5, sp, 16
0x80015e9c: 00 f7 07 b3 add	a5, a4, a5
0x80015ea0: 46 07 a8 23 sw	zero, 1136(a5)
0x80015ea4: 46 07 aa 23 sw	zero, 1140(a5)
0x80015ea8: 47 07 a6 83 lw	a3, 1136(a5)
0x80015eac: 47 47 a7 03 lw	a4, 1140(a5)
0x80015eb0: 08 e6 80 63 beq	a3, a4, 0x80015f30
0x80015f30: 00 00 57 37 lui	a4, 5
0x80015f34: ff ff e7 b7 lui	a5, 1048574
0x80015f38: 19 07 07 13 addi	a4, a4, 400
0x80015f3c: 00 f7 07 33 add	a4, a4, a5
0x80015f40: 01 01 07 93 addi	a5, sp, 16
0x80015f44: 00 f7 07 b3 add	a5, a4, a5
0x80015f48: 46 07 ac 23 sw	zero, 1144(a5)
0x80015f4c: 00 10 07 13 addi	a4, zero, 1
0x80015f50: 46 e7 ae 23 sw	a4, 1148(a5)
0x80015f54: 47 87 a6 83 lw	a3, 1144(a5)
0x80015f58: 47 c7 a7 03 lw	a4, 1148(a5)
0x80015f5c: 00 e6 94 63 bne	a3, a4, 0x80015f64
0x80015f64: 00 00 57 37 lui	a4, 5
0x80015f68: ff ff e7 b7 lui	a5, 1048574
0x80015f6c: 19 07 07 13 addi	a4, a4, 400
0x80015f70: 00 f7 07 33 add	a4, a4, a5
0x80015f74: 01 01 07 93 addi	a5, sp, 16
0x80015f78: 00 f7 07 b3 add	a5, a4, a5
0x80015f7c: 48 07 a0 23 sw	zero, 1152(a5)
0x80015f80: 00 20 07 13 addi	a4, zero, 2
0x80015f84: 48 e7 a2 23 sw	a4, 1156(a5)
0x80015f88: 48 07 a6 83 lw	a3, 1152(a5)
0x80015f8c: 48 47 a7 03 lw	a4, 1156(a5)
0x80015f90: 00 e6 94 63 bne	a3, a4, 0x80015f98
0x80015f98: 00 00 57 37 lui	a4, 5
0x80015f9c: ff ff e7 b7 lui	a5, 1048574
0x80015fa0: 19 07 07 13 addi	a4, a4, 400
0x80015fa4: 00 f7 07 33 add	a4, a4, a5
0x80015fa8: 01 01 07 93 addi	a5, sp, 16
0x80015fac: 00 f7 07 b3 add	a5, a4, a5
0x80015fb0: 80 00 07 37 lui	a4, 524288
0x80015fb4: 48 07 a4 23 sw	zero, 1160(a5)
0x80015fb8: ff e7 47 13 xori	a4, a4, -2
0x80015fbc: 48 e7 a6 23 sw	a4, 1164(a5)
0x80015fc0: 48 87 a6 83 lw	a3, 1160(a5)
0x80015fc4: 48 c7 a7 03 lw	a4, 1164(a5)
0x80015fc8: 00 e6 94 63 bne	a3, a4, 0x80015fd0
0x80015fd0: 00 00 57 37 lui	a4, 5
0x80015fd4: ff ff e7 b7 lui	a5, 1048574
0x80015fd8: 19 07 07 13 addi	a4, a4, 400
0x80015fdc: 00 f7 07 33 add	a4, a4, a5
0x80015fe0: 01 01 07 93 addi	a5, sp, 16
0x80015fe4: 00 f7 07 b3 add	a5, a4, a5
0x80015fe8: 80 00 07 37 lui	a4, 524288
0x80015fec: 48 07 a8 23 sw	zero, 1168(a5)
0x80015ff0: ff f7 47 13 xori	a4, a4, -1
0x80015ff4: 48 e7 aa 23 sw	a4, 1172(a5)
0x80015ff8: 49 07 a6 83 lw	a3, 1168(a5)
0x80015ffc: 49 47 a7 03 lw	a4, 1172(a5)
0x80016000: 00 e6 94 63 bne	a3, a4, 0x80016008
0x80016008: 00 00 57 37 lui	a4, 5
0x8001600c: ff ff e7 b7 lui	a5, 1048574
0x80016010: 19 07 07 13 addi	a4, a4, 400
0x80016014: 00 f7 07 33 add	a4, a4, a5
0x80016018: 01 01 07 93 addi	a5, sp, 16
0x8001601c: 00 f7 07 b3 add	a5, a4, a5
0x80016020: 00 10 07 13 addi	a4, zero, 1
0x80016024: 48 e7 ac 23 sw	a4, 1176(a5)
0x80016028: 48 e7 ae 23 sw	a4, 1180(a5)
0x8001602c: 49 87 a6 83 lw	a3, 1176(a5)
0x80016030: 49 c7 a7 03 lw	a4, 1180(a5)
0x80016034: 08 e6 80 63 beq	a3, a4, 0x800160b4
0x800160b4: 00 00 57 37 lui	a4, 5
0x800160b8: ff ff e7 b7 lui	a5, 1048574
0x800160bc: 19 07 07 13 addi	a4, a4, 400
0x800160c0: 00 f7 07 33 add	a4, a4, a5
0x800160c4: 01 01 07 93 addi	a5, sp, 16
0x800160c8: 00 f7 07 b3 add	a5, a4, a5
0x800160cc: 00 10 07 13 addi	a4, zero, 1
0x800160d0: 4a e7 a0 23 sw	a4, 1184(a5)
0x800160d4: 00 20 07 13 addi	a4, zero, 2
0x800160d8: 4a e7 a2 23 sw	a4, 1188(a5)
0x800160dc: 4a 07 a6 83 lw	a3, 1184(a5)
0x800160e0: 4a 47 a7 03 lw	a4, 1188(a5)
0x800160e4: 00 e6 94 63 bne	a3, a4, 0x800160ec
0x800160ec: 00 00 57 37 lui	a4, 5
0x800160f0: ff ff e7 b7 lui	a5, 1048574
0x800160f4: 19 07 07 13 addi	a4, a4, 400
0x800160f8: 00 f7 07 33 add	a4, a4, a5
0x800160fc: 01 01 07 93 addi	a5, sp, 16
0x80016100: 00 f7 07 b3 add	a5, a4, a5
0x80016104: 00 10 07 13 addi	a4, zero, 1
0x80016108: 4a e7 a4 23 sw	a4, 1192(a5)
0x8001610c: 80 00 07 37 lui	a4, 524288
0x80016110: ff e7 47 13 xori	a4, a4, -2
0x80016114: 4a e7 a6 23 sw	a4, 1196(a5)
0x80016118: 4a 87 a6 83 lw	a3, 1192(a5)
0x8001611c: 4a c7 a7 03 lw	a4, 1196(a5)
0x80016120: 00 e6 94 63 bne	a3, a4, 0x80016128
0x80016128: 00 00 57 37 lui	a4, 5
0x8001612c: ff ff e7 b7 lui	a5, 1048574
0x80016130: 19 07 07 13 addi	a4, a4, 400
0x80016134: 00 f7 07 33 add	a4, a4, a5
0x80016138: 01 01 07 93 addi	a5, sp, 16
0x8001613c: 00 f7 07 b3 add	a5, a4, a5
0x80016140: 00 10 07 13 addi	a4, zero, 1
0x80016144: 4a e7 a8 23 sw	a4, 1200(a5)
0x80016148: 80 00 07 37 lui	a4, 524288
0x8001614c: ff f7 47 13 xori	a4, a4, -1
0x80016150: 4a e7 aa 23 sw	a4, 1204(a5)
0x80016154: 4b 07 a6 83 lw	a3, 1200(a5)
0x80016158: 4b 47 a7 03 lw	a4, 1204(a5)
0x8001615c: 00 e6 94 63 bne	a3, a4, 0x80016164
0x80016164: 00 00 57 37 lui	a4, 5
0x80016168: ff ff e7 b7 lui	a5, 1048574
0x8001616c: 19 07 07 13 addi	a4, a4, 400
0x80016170: 00 f7 07 33 add	a4, a4, a5
0x80016174: 01 01 07 93 addi	a5, sp, 16
0x80016178: 00 f7 07 b3 add	a5, a4, a5
0x8001617c: 00 20 07 13 addi	a4, zero, 2
0x80016180: 4a e7 ac 23 sw	a4, 1208(a5)
0x80016184: 4a e7 ae 23 sw	a4, 1212(a5)
0x80016188: 4b 87 a6 83 lw	a3, 1208(a5)
0x8001618c: 4b c7 a7 03 lw	a4, 1212(a5)
0x80016190: 08 e6 80 63 beq	a3, a4, 0x80016210
0x80016210: 00 00 57 37 lui	a4, 5
0x80016214: ff ff e7 b7 lui	a5, 1048574
0x80016218: 19 07 07 13 addi	a4, a4, 400
0x8001621c: 00 f7 07 33 add	a4, a4, a5
0x80016220: 01 01 07 93 addi	a5, sp, 16
0x80016224: 00 f7 07 b3 add	a5, a4, a5
0x80016228: 00 20 07 13 addi	a4, zero, 2
0x8001622c: 4c e7 a0 23 sw	a4, 1216(a5)
0x80016230: 80 00 07 37 lui	a4, 524288
0x80016234: ff e7 47 13 xori	a4, a4, -2
0x80016238: 4c e7 a2 23 sw	a4, 1220(a5)
0x8001623c: 4c 07 a6 83 lw	a3, 1216(a5)
0x80016240: 4c 47 a7 03 lw	a4, 1220(a5)
0x80016244: 00 e6 94 63 bne	a3, a4, 0x8001624c
0x8001624c: 00 00 57 37 lui	a4, 5
0x80016250: ff ff e7 b7 lui	a5, 1048574
0x80016254: 19 07 07 13 addi	a4, a4, 400
0x80016258: 00 f7 07 33 add	a4, a4, a5
0x8001625c: 01 01 07 93 addi	a5, sp, 16
0x80016260: 00 f7 07 b3 add	a5, a4, a5
0x80016264: 00 20 07 13 addi	a4, zero, 2
0x80016268: 4c e7 a4 23 sw	a4, 1224(a5)
0x8001626c: 80 00 07 37 lui	a4, 524288
0x80016270: ff f7 47 13 xori	a4, a4, -1
0x80016274: 4c e7 a6 23 sw	a4, 1228(a5)
0x80016278: 4c 87 a6 83 lw	a3, 1224(a5)
0x8001627c: 4c c7 a7 03 lw	a4, 1228(a5)
0x80016280: 00 e6 94 63 bne	a3, a4, 0x80016288
0x80016288: 00 00 57 37 lui	a4, 5
0x8001628c: ff ff e7 b7 lui	a5, 1048574
0x80016290: 19 07 07 13 addi	a4, a4, 400
0x80016294: 00 f7 07 33 add	a4, a4, a5
0x80016298: 01 01 07 93 addi	a5, sp, 16
0x8001629c: 00 f7 07 b3 add	a5, a4, a5
0x800162a0: 80 00 07 37 lui	a4, 524288
0x800162a4: ff e7 47 13 xori	a4, a4, -2
0x800162a8: 4c e7 a8 23 sw	a4, 1232(a5)
0x800162ac: 4c e7 aa 23 sw	a4, 1236(a5)
0x800162b0: 4d 07 a6 83 lw	a3, 1232(a5)
0x800162b4: 4d 47 a7 03 lw	a4, 1236(a5)
0x800162b8: 08 e6 82 63 beq	a3, a4, 0x8001633c
0x8001633c: 00 00 56 b7 lui	a3, 5
0x80016340: ff ff e7 b7 lui	a5, 1048574
0x80016344: 19 06 86 93 addi	a3, a3, 400
0x80016348: 00 f6 86 b3 add	a3, a3, a5
0x8001634c: 80 00 07 37 lui	a4, 524288
0x80016350: 01 01 07 93 addi	a5, sp, 16
0x80016354: 00 f6 87 b3 add	a5, a3, a5
0x80016358: ff e7 46 93 xori	a3, a4, -2
0x8001635c: 4c d7 ac 23 sw	a3, 1240(a5)
0x80016360: ff f7 47 13 xori	a4, a4, -1
0x80016364: 4c e7 ae 23 sw	a4, 1244(a5)
0x80016368: 4d 87 a6 83 lw	a3, 1240(a5)
0x8001636c: 4d c7 a7 03 lw	a4, 1244(a5)
0x80016370: 00 e6 94 63 bne	a3, a4, 0x80016378
0x80016378: 00 00 57 37 lui	a4, 5
0x8001637c: ff ff e7 b7 lui	a5, 1048574
0x80016380: 19 07 07 13 addi	a4, a4, 400
0x80016384: 00 f7 07 33 add	a4, a4, a5
0x80016388: 01 01 07 93 addi	a5, sp, 16
0x8001638c: 00 f7 07 b3 add	a5, a4, a5
0x80016390: 80 00 07 37 lui	a4, 524288
0x80016394: ff f7 47 13 xori	a4, a4, -1
0x80016398: 4e e7 a0 23 sw	a4, 1248(a5)
0x8001639c: 4e e7 a2 23 sw	a4, 1252(a5)
0x800163a0: 4e 07 a6 83 lw	a3, 1248(a5)
0x800163a4: 4e 47 a7 03 lw	a4, 1252(a5)
0x800163a8: 08 e6 82 63 beq	a3, a4, 0x8001642c
0x8001642c: 00 00 57 37 lui	a4, 5
0x80016430: ff ff e7 b7 lui	a5, 1048574
0x80016434: 19 07 07 13 addi	a4, a4, 400
0x80016438: 00 f7 07 33 add	a4, a4, a5
0x8001643c: 01 01 07 93 addi	a5, sp, 16
0x80016440: 00 f7 07 b3 add	a5, a4, a5
0x80016444: 80 00 07 37 lui	a4, 524288
0x80016448: 4e e7 a4 23 sw	a4, 1256(a5)
0x8001644c: 4e e7 a6 23 sw	a4, 1260(a5)
0x80016450: 4e 87 a6 83 lw	a3, 1256(a5)
0x80016454: 4e c7 a7 03 lw	a4, 1260(a5)
0x80016458: 02 e6 87 33 mul	a4, a3, a4
0x8001645c: 08 07 00 63 beq	a4, zero, 0x800164dc
0x800164dc: 00 00 57 37 lui	a4, 5
0x800164e0: ff ff e7 b7 lui	a5, 1048574
0x800164e4: 19 07 07 13 addi	a4, a4, 400
0x800164e8: 00 f7 07 33 add	a4, a4, a5
0x800164ec: 01 01 07 93 addi	a5, sp, 16
0x800164f0: 00 f7 07 b3 add	a5, a4, a5
0x800164f4: 80 00 07 37 lui	a4, 524288
0x800164f8: 4e e7 a8 23 sw	a4, 1264(a5)
0x800164fc: 00 17 06 93 addi	a3, a4, 1
0x80016500: 4e d7 aa 23 sw	a3, 1268(a5)
0x80016504: 4f 07 a6 03 lw	a2, 1264(a5)
0x80016508: 4f 47 a6 83 lw	a3, 1268(a5)
0x8001650c: 02 d6 06 b3 mul	a3, a2, a3
0x80016510: 08 e6 82 63 beq	a3, a4, 0x80016594
0x80016594: 00 00 57 37 lui	a4, 5
0x80016598: ff ff e7 b7 lui	a5, 1048574
0x8001659c: 19 07 07 13 addi	a4, a4, 400
0x800165a0: 00 f7 07 33 add	a4, a4, a5
0x800165a4: 01 01 07 93 addi	a5, sp, 16
0x800165a8: 00 f7 07 b3 add	a5, a4, a5
0x800165ac: 80 00 07 37 lui	a4, 524288
0x800165b0: 4e e7 ac 23 sw	a4, 1272(a5)
0x800165b4: ff e0 07 13 addi	a4, zero, -2
0x800165b8: 4e e7 ae 23 sw	a4, 1276(a5)
0x800165bc: 4f 87 a6 83 lw	a3, 1272(a5)
0x800165c0: 4f c7 a7 03 lw	a4, 1276(a5)
0x800165c4: 02 e6 87 33 mul	a4, a3, a4
0x800165c8: 08 07 00 63 beq	a4, zero, 0x80016648
0x80016648: 00 00 57 37 lui	a4, 5
0x8001664c: ff ff e7 b7 lui	a5, 1048574
0x80016650: 19 07 07 13 addi	a4, a4, 400
0x80016654: 00 f7 07 33 add	a4, a4, a5
0x80016658: 01 01 07 93 addi	a5, sp, 16
0x8001665c: 00 f7 07 b3 add	a5, a4, a5
0x80016660: 80 00 07 37 lui	a4, 524288
0x80016664: 50 e7 a0 23 sw	a4, 1280(a5)
0x80016668: ff f0 06 93 addi	a3, zero, -1
0x8001666c: 50 d7 a2 23 sw	a3, 1284(a5)
0x80016670: 50 07 a6 03 lw	a2, 1280(a5)
0x80016674: 50 47 a6 83 lw	a3, 1284(a5)
0x80016678: 02 d6 06 b3 mul	a3, a2, a3
0x8001667c: 08 e6 80 63 beq	a3, a4, 0x800166fc
0x800166fc: 00 00 57 37 lui	a4, 5
0x80016700: ff ff e7 b7 lui	a5, 1048574
0x80016704: 19 07 07 13 addi	a4, a4, 400
0x80016708: 00 f7 07 33 add	a4, a4, a5
0x8001670c: 01 01 07 93 addi	a5, sp, 16
0x80016710: 00 f7 07 b3 add	a5, a4, a5
0x80016714: 80 00 07 37 lui	a4, 524288
0x80016718: 50 e7 a4 23 sw	a4, 1288(a5)
0x8001671c: 50 07 a6 23 sw	zero, 1292(a5)
0x80016720: 50 87 a6 83 lw	a3, 1288(a5)
0x80016724: 50 c7 a7 03 lw	a4, 1292(a5)
0x80016728: 02 e6 87 33 mul	a4, a3, a4
0x8001672c: 08 07 00 63 beq	a4, zero, 0x800167ac
0x800167ac: 00 00 57 37 lui	a4, 5
0x800167b0: ff ff e7 b7 lui	a5, 1048574
0x800167b4: 19 07 07 13 addi	a4, a4, 400
0x800167b8: 00 f7 07 33 add	a4, a4, a5
0x800167bc: 01 01 07 93 addi	a5, sp, 16
0x800167c0: 00 f7 07 b3 add	a5, a4, a5
0x800167c4: 80 00 07 37 lui	a4, 524288
0x800167c8: 50 e7 a8 23 sw	a4, 1296(a5)
0x800167cc: 00 10 06 93 addi	a3, zero, 1
0x800167d0: 50 d7 aa 23 sw	a3, 1300(a5)
0x800167d4: 51 07 a6 03 lw	a2, 1296(a5)
0x800167d8: 51 47 a6 83 lw	a3, 1300(a5)
0x800167dc: 02 d6 06 b3 mul	a3, a2, a3
0x800167e0: 08 e6 80 63 beq	a3, a4, 0x80016860
0x80016860: 00 00 57 37 lui	a4, 5
0x80016864: ff ff e7 b7 lui	a5, 1048574
0x80016868: 19 07 07 13 addi	a4, a4, 400
0x8001686c: 00 f7 07 33 add	a4, a4, a5
0x80016870: 01 01 07 93 addi	a5, sp, 16
0x80016874: 00 f7 07 b3 add	a5, a4, a5
0x80016878: 80 00 07 37 lui	a4, 524288
0x8001687c: 50 e7 ac 23 sw	a4, 1304(a5)
0x80016880: 00 20 07 13 addi	a4, zero, 2
0x80016884: 50 e7 ae 23 sw	a4, 1308(a5)
0x80016888: 51 87 a6 83 lw	a3, 1304(a5)
0x8001688c: 51 c7 a7 03 lw	a4, 1308(a5)
0x80016890: 02 e6 87 33 mul	a4, a3, a4
0x80016894: 08 07 00 63 beq	a4, zero, 0x80016914
0x80016914: 00 00 57 37 lui	a4, 5
0x80016918: ff ff e7 b7 lui	a5, 1048574
0x8001691c: 19 07 07 13 addi	a4, a4, 400
0x80016920: 00 f7 07 33 add	a4, a4, a5
0x80016924: 01 01 07 93 addi	a5, sp, 16
0x80016928: 00 f7 07 b3 add	a5, a4, a5
0x8001692c: 80 00 07 37 lui	a4, 524288
0x80016930: 52 e7 a0 23 sw	a4, 1312(a5)
0x80016934: ff e7 47 13 xori	a4, a4, -2
0x80016938: 52 e7 a2 23 sw	a4, 1316(a5)
0x8001693c: 52 07 a6 83 lw	a3, 1312(a5)
0x80016940: 52 47 a7 03 lw	a4, 1316(a5)
0x80016944: 02 e6 87 33 mul	a4, a3, a4
0x80016948: 08 07 02 63 beq	a4, zero, 0x800169cc
0x800169cc: 00 00 57 37 lui	a4, 5
0x800169d0: ff ff e7 b7 lui	a5, 1048574
0x800169d4: 19 07 07 13 addi	a4, a4, 400
0x800169d8: 00 f7 07 33 add	a4, a4, a5
0x800169dc: 01 01 07 93 addi	a5, sp, 16
0x800169e0: 00 f7 07 b3 add	a5, a4, a5
0x800169e4: 80 00 07 37 lui	a4, 524288
0x800169e8: 52 e7 a4 23 sw	a4, 1320(a5)
0x800169ec: ff f7 46 93 xori	a3, a4, -1
0x800169f0: 52 d7 a6 23 sw	a3, 1324(a5)
0x800169f4: 52 87 a6 03 lw	a2, 1320(a5)
0x800169f8: 52 c7 a6 83 lw	a3, 1324(a5)
0x800169fc: 02 d6 06 b3 mul	a3, a2, a3
0x80016a00: 08 e6 82 63 beq	a3, a4, 0x80016a84
0x80016a84: 00 00 57 37 lui	a4, 5
0x80016a88: ff ff e7 b7 lui	a5, 1048574
0x80016a8c: 19 07 07 13 addi	a4, a4, 400
0x80016a90: 00 f7 07 33 add	a4, a4, a5
0x80016a94: 01 01 07 93 addi	a5, sp, 16
0x80016a98: 00 f7 07 b3 add	a5, a4, a5
0x80016a9c: 80 00 07 37 lui	a4, 524288
0x80016aa0: 00 17 07 13 addi	a4, a4, 1
0x80016aa4: 52 e7 a8 23 sw	a4, 1328(a5)
0x80016aa8: 52 e7 aa 23 sw	a4, 1332(a5)
0x80016aac: 53 07 a6 03 lw	a2, 1328(a5)
0x80016ab0: 53 47 a6 83 lw	a3, 1332(a5)
0x80016ab4: 00 10 07 13 addi	a4, zero, 1
0x80016ab8: 02 d6 06 b3 mul	a3, a2, a3
0x80016abc: 08 e6 82 63 beq	a3, a4, 0x80016b40
0x80016b40: 00 00 57 37 lui	a4, 5
0x80016b44: ff ff e7 b7 lui	a5, 1048574
0x80016b48: 19 07 07 13 addi	a4, a4, 400
0x80016b4c: 00 f7 07 33 add	a4, a4, a5
0x80016b50: 01 01 07 93 addi	a5, sp, 16
0x80016b54: 00 f7 07 b3 add	a5, a4, a5
0x80016b58: 80 00 07 37 lui	a4, 524288
0x80016b5c: 00 17 07 13 addi	a4, a4, 1
0x80016b60: 52 e7 ac 23 sw	a4, 1336(a5)
0x80016b64: ff e0 07 13 addi	a4, zero, -2
0x80016b68: 52 e7 ae 23 sw	a4, 1340(a5)
0x80016b6c: 53 87 a6 03 lw	a2, 1336(a5)
0x80016b70: 53 c7 a6 83 lw	a3, 1340(a5)
0x80016b74: 02 d6 06 b3 mul	a3, a2, a3
0x80016b78: 08 e6 82 63 beq	a3, a4, 0x80016bfc
0x80016bfc: 00 00 56 b7 lui	a3, 5
0x80016c00: ff ff e7 b7 lui	a5, 1048574
0x80016c04: 19 06 86 93 addi	a3, a3, 400
0x80016c08: 00 f6 86 b3 add	a3, a3, a5
0x80016c0c: 80 00 07 37 lui	a4, 524288
0x80016c10: 01 01 07 93 addi	a5, sp, 16
0x80016c14: 00 f6 87 b3 add	a5, a3, a5
0x80016c18: 00 17 06 93 addi	a3, a4, 1
0x80016c1c: 54 d7 a0 23 sw	a3, 1344(a5)
0x80016c20: ff f0 06 93 addi	a3, zero, -1
0x80016c24: 54 d7 a2 23 sw	a3, 1348(a5)
0x80016c28: 54 07 a6 03 lw	a2, 1344(a5)
0x80016c2c: 54 47 a6 83 lw	a3, 1348(a5)
0x80016c30: ff f7 47 13 xori	a4, a4, -1
0x80016c34: 02 d6 06 b3 mul	a3, a2, a3
0x80016c38: 08 e6 82 63 beq	a3, a4, 0x80016cbc
0x80016cbc: 00 00 57 37 lui	a4, 5
0x80016cc0: ff ff e7 b7 lui	a5, 1048574
0x80016cc4: 19 07 07 13 addi	a4, a4, 400
0x80016cc8: 00 f7 07 33 add	a4, a4, a5
0x80016ccc: 01 01 07 93 addi	a5, sp, 16
0x80016cd0: 00 f7 07 b3 add	a5, a4, a5
0x80016cd4: 80 00 07 37 lui	a4, 524288
0x80016cd8: 00 17 07 13 addi	a4, a4, 1
0x80016cdc: 54 e7 a4 23 sw	a4, 1352(a5)
0x80016ce0: 54 07 a6 23 sw	zero, 1356(a5)
0x80016ce4: 54 87 a6 83 lw	a3, 1352(a5)
0x80016ce8: 54 c7 a7 03 lw	a4, 1356(a5)
0x80016cec: 02 e6 87 33 mul	a4, a3, a4
0x80016cf0: 08 07 02 63 beq	a4, zero, 0x80016d74
0x80016d74: 00 00 57 37 lui	a4, 5
0x80016d78: ff ff e7 b7 lui	a5, 1048574
0x80016d7c: 19 07 07 13 addi	a4, a4, 400
0x80016d80: 00 f7 07 33 add	a4, a4, a5
0x80016d84: 01 01 07 93 addi	a5, sp, 16
0x80016d88: 00 f7 07 b3 add	a5, a4, a5
0x80016d8c: 80 00 07 37 lui	a4, 524288
0x80016d90: 00 17 07 13 addi	a4, a4, 1
0x80016d94: 54 e7 a8 23 sw	a4, 1360(a5)
0x80016d98: 00 10 06 93 addi	a3, zero, 1
0x80016d9c: 54 d7 aa 23 sw	a3, 1364(a5)
0x80016da0: 55 07 a6 03 lw	a2, 1360(a5)
0x80016da4: 55 47 a6 83 lw	a3, 1364(a5)
0x80016da8: 02 d6 06 b3 mul	a3, a2, a3
0x80016dac: 08 e6 82 63 beq	a3, a4, 0x80016e30
0x80016e30: 00 00 57 37 lui	a4, 5
0x80016e34: ff ff e7 b7 lui	a5, 1048574
0x80016e38: 19 07 07 13 addi	a4, a4, 400
0x80016e3c: 00 f7 07 33 add	a4, a4, a5
0x80016e40: 01 01 07 93 addi	a5, sp, 16
0x80016e44: 00 f7 07 b3 add	a5, a4, a5
0x80016e48: 80 00 07 37 lui	a4, 524288
0x80016e4c: 00 17 07 13 addi	a4, a4, 1
0x80016e50: 54 e7 ac 23 sw	a4, 1368(a5)
0x80016e54: 00 20 07 13 addi	a4, zero, 2
0x80016e58: 54 e7 ae 23 sw	a4, 1372(a5)
0x80016e5c: 55 87 a6 03 lw	a2, 1368(a5)
0x80016e60: 55 c7 a6 83 lw	a3, 1372(a5)
0x80016e64: 02 d6 06 b3 mul	a3, a2, a3
0x80016e68: 08 e6 82 63 beq	a3, a4, 0x80016eec
0x80016eec: 00 00 56 b7 lui	a3, 5
0x80016ef0: ff ff e7 b7 lui	a5, 1048574
0x80016ef4: 19 06 86 93 addi	a3, a3, 400
0x80016ef8: 00 f6 86 b3 add	a3, a3, a5
0x80016efc: 80 00 07 37 lui	a4, 524288
0x80016f00: 01 01 07 93 addi	a5, sp, 16
0x80016f04: 00 f6 87 b3 add	a5, a3, a5
0x80016f08: 00 17 06 93 addi	a3, a4, 1
0x80016f0c: 56 d7 a0 23 sw	a3, 1376(a5)
0x80016f10: ff e7 47 13 xori	a4, a4, -2
0x80016f14: 56 e7 a2 23 sw	a4, 1380(a5)
0x80016f18: 56 07 a6 03 lw	a2, 1376(a5)
0x80016f1c: 56 47 a6 83 lw	a3, 1380(a5)
0x80016f20: 02 d6 06 b3 mul	a3, a2, a3
0x80016f24: 08 e6 82 63 beq	a3, a4, 0x80016fa8
0x80016fa8: 00 00 56 b7 lui	a3, 5
0x80016fac: ff ff e7 b7 lui	a5, 1048574
0x80016fb0: 19 06 86 93 addi	a3, a3, 400
0x80016fb4: 00 f6 86 b3 add	a3, a3, a5
0x80016fb8: 80 00 07 37 lui	a4, 524288
0x80016fbc: 01 01 07 93 addi	a5, sp, 16
0x80016fc0: 00 f6 87 b3 add	a5, a3, a5
0x80016fc4: 00 17 06 93 addi	a3, a4, 1
0x80016fc8: 56 d7 a4 23 sw	a3, 1384(a5)
0x80016fcc: ff f7 47 13 xori	a4, a4, -1
0x80016fd0: 56 e7 a6 23 sw	a4, 1388(a5)
0x80016fd4: 56 87 a6 03 lw	a2, 1384(a5)
0x80016fd8: 56 c7 a6 83 lw	a3, 1388(a5)
0x80016fdc: ff f0 07 13 addi	a4, zero, -1
0x80016fe0: 02 d6 06 b3 mul	a3, a2, a3
0x80016fe4: 08 e6 82 63 beq	a3, a4, 0x80017068
0x80017068: 00 00 57 37 lui	a4, 5
0x8001706c: ff ff e7 b7 lui	a5, 1048574
0x80017070: 19 07 07 13 addi	a4, a4, 400
0x80017074: 00 f7 07 33 add	a4, a4, a5
0x80017078: 01 01 07 93 addi	a5, sp, 16
0x8001707c: 00 f7 07 b3 add	a5, a4, a5
0x80017080: ff e0 07 13 addi	a4, zero, -2
0x80017084: 56 e7 a8 23 sw	a4, 1392(a5)
0x80017088: 56 e7 aa 23 sw	a4, 1396(a5)
0x8001708c: 57 07 a6 03 lw	a2, 1392(a5)
0x80017090: 57 47 a6 83 lw	a3, 1396(a5)
0x80017094: 00 40 07 13 addi	a4, zero, 4
0x80017098: 02 d6 06 b3 mul	a3, a2, a3
0x8001709c: 08 e6 80 63 beq	a3, a4, 0x8001711c
0x8001711c: 00 00 57 37 lui	a4, 5
0x80017120: ff ff e7 b7 lui	a5, 1048574
0x80017124: 19 07 07 13 addi	a4, a4, 400
0x80017128: 00 f7 07 33 add	a4, a4, a5
0x8001712c: 01 01 07 93 addi	a5, sp, 16
0x80017130: 00 f7 07 b3 add	a5, a4, a5
0x80017134: ff e0 07 13 addi	a4, zero, -2
0x80017138: 56 e7 ac 23 sw	a4, 1400(a5)
0x8001713c: ff f0 07 13 addi	a4, zero, -1
0x80017140: 56 e7 ae 23 sw	a4, 1404(a5)
0x80017144: 57 87 a6 03 lw	a2, 1400(a5)
0x80017148: 57 c7 a6 83 lw	a3, 1404(a5)
0x8001714c: 00 20 07 13 addi	a4, zero, 2
0x80017150: 02 d6 06 b3 mul	a3, a2, a3
0x80017154: 08 e6 80 63 beq	a3, a4, 0x800171d4
0x800171d4: 00 00 57 37 lui	a4, 5
0x800171d8: ff ff e7 b7 lui	a5, 1048574
0x800171dc: 19 07 07 13 addi	a4, a4, 400
0x800171e0: 00 f7 07 33 add	a4, a4, a5
0x800171e4: 01 01 07 93 addi	a5, sp, 16
0x800171e8: 00 f7 07 b3 add	a5, a4, a5
0x800171ec: ff e0 07 13 addi	a4, zero, -2
0x800171f0: 58 e7 a0 23 sw	a4, 1408(a5)
0x800171f4: 58 07 a2 23 sw	zero, 1412(a5)
0x800171f8: 58 07 a6 83 lw	a3, 1408(a5)
0x800171fc: 58 47 a7 03 lw	a4, 1412(a5)
0x80017200: 02 e6 87 33 mul	a4, a3, a4
0x80017204: 08 07 00 63 beq	a4, zero, 0x80017284
0x80017284: 00 00 57 37 lui	a4, 5
0x80017288: ff ff e7 b7 lui	a5, 1048574
0x8001728c: 19 07 07 13 addi	a4, a4, 400
0x80017290: 00 f7 07 33 add	a4, a4, a5
0x80017294: 01 01 07 93 addi	a5, sp, 16
0x80017298: 00 f7 07 b3 add	a5, a4, a5
0x8001729c: ff e0 07 13 addi	a4, zero, -2
0x800172a0: 58 e7 a4 23 sw	a4, 1416(a5)
0x800172a4: 00 10 06 93 addi	a3, zero, 1
0x800172a8: 58 d7 a6 23 sw	a3, 1420(a5)
0x800172ac: 58 87 a6 03 lw	a2, 1416(a5)
0x800172b0: 58 c7 a6 83 lw	a3, 1420(a5)
0x800172b4: 02 d6 06 b3 mul	a3, a2, a3
0x800172b8: 08 e6 80 63 beq	a3, a4, 0x80017338
0x80017338: 00 00 57 37 lui	a4, 5
0x8001733c: ff ff e7 b7 lui	a5, 1048574
0x80017340: 19 07 07 13 addi	a4, a4, 400
0x80017344: 00 f7 07 33 add	a4, a4, a5
0x80017348: 01 01 07 93 addi	a5, sp, 16
0x8001734c: 00 f7 07 b3 add	a5, a4, a5
0x80017350: ff e0 07 13 addi	a4, zero, -2
0x80017354: 58 e7 a8 23 sw	a4, 1424(a5)
0x80017358: 00 20 07 13 addi	a4, zero, 2
0x8001735c: 58 e7 aa 23 sw	a4, 1428(a5)
0x80017360: 59 07 a6 03 lw	a2, 1424(a5)
0x80017364: 59 47 a6 83 lw	a3, 1428(a5)
0x80017368: ff c0 07 13 addi	a4, zero, -4
0x8001736c: 02 d6 06 b3 mul	a3, a2, a3
0x80017370: 08 e6 80 63 beq	a3, a4, 0x800173f0
0x800173f0: 00 00 57 37 lui	a4, 5
0x800173f4: ff ff e7 b7 lui	a5, 1048574
0x800173f8: 19 07 07 13 addi	a4, a4, 400
0x800173fc: 00 f7 07 33 add	a4, a4, a5
0x80017400: 01 01 07 93 addi	a5, sp, 16
0x80017404: 00 f7 07 b3 add	a5, a4, a5
0x80017408: ff e0 07 13 addi	a4, zero, -2
0x8001740c: 58 e7 ac 23 sw	a4, 1432(a5)
0x80017410: 80 00 07 37 lui	a4, 524288
0x80017414: ff e7 47 13 xori	a4, a4, -2
0x80017418: 58 e7 ae 23 sw	a4, 1436(a5)
0x8001741c: 59 87 a6 03 lw	a2, 1432(a5)
0x80017420: 59 c7 a6 83 lw	a3, 1436(a5)
0x80017424: 00 40 07 13 addi	a4, zero, 4
0x80017428: 02 d6 06 b3 mul	a3, a2, a3
0x8001742c: 08 e6 82 63 beq	a3, a4, 0x800174b0
0x800174b0: 00 00 57 37 lui	a4, 5
0x800174b4: ff ff e7 b7 lui	a5, 1048574
0x800174b8: 19 07 07 13 addi	a4, a4, 400
0x800174bc: 00 f7 07 33 add	a4, a4, a5
0x800174c0: 01 01 07 93 addi	a5, sp, 16
0x800174c4: 00 f7 07 b3 add	a5, a4, a5
0x800174c8: ff e0 07 13 addi	a4, zero, -2
0x800174cc: 5a e7 a0 23 sw	a4, 1440(a5)
0x800174d0: 80 00 07 37 lui	a4, 524288
0x800174d4: ff f7 47 13 xori	a4, a4, -1
0x800174d8: 5a e7 a2 23 sw	a4, 1444(a5)
0x800174dc: 5a 07 a6 03 lw	a2, 1440(a5)
0x800174e0: 5a 47 a6 83 lw	a3, 1444(a5)
0x800174e4: 00 20 07 13 addi	a4, zero, 2
0x800174e8: 02 d6 06 b3 mul	a3, a2, a3
0x800174ec: 08 e6 82 63 beq	a3, a4, 0x80017570
0x80017570: 00 00 57 37 lui	a4, 5
0x80017574: ff ff e7 b7 lui	a5, 1048574
0x80017578: 19 07 07 13 addi	a4, a4, 400
0x8001757c: 00 f7 07 33 add	a4, a4, a5
0x80017580: 01 01 07 93 addi	a5, sp, 16
0x80017584: 00 f7 07 b3 add	a5, a4, a5
0x80017588: ff f0 07 13 addi	a4, zero, -1
0x8001758c: 5a e7 a4 23 sw	a4, 1448(a5)
0x80017590: 5a e7 a6 23 sw	a4, 1452(a5)
0x80017594: 5a 87 a6 03 lw	a2, 1448(a5)
0x80017598: 5a c7 a6 83 lw	a3, 1452(a5)
0x8001759c: 00 10 07 13 addi	a4, zero, 1
0x800175a0: 02 d6 06 b3 mul	a3, a2, a3
0x800175a4: 08 e6 80 63 beq	a3, a4, 0x80017624
0x80017624: 00 00 57 37 lui	a4, 5
0x80017628: ff ff e7 b7 lui	a5, 1048574
0x8001762c: 19 07 07 13 addi	a4, a4, 400
0x80017630: 00 f7 07 33 add	a4, a4, a5
0x80017634: 01 01 07 93 addi	a5, sp, 16
0x80017638: 00 f7 07 b3 add	a5, a4, a5
0x8001763c: ff f0 07 13 addi	a4, zero, -1
0x80017640: 5a e7 a8 23 sw	a4, 1456(a5)
0x80017644: 5a 07 aa 23 sw	zero, 1460(a5)
0x80017648: 5b 07 a6 83 lw	a3, 1456(a5)
0x8001764c: 5b 47 a7 03 lw	a4, 1460(a5)
0x80017650: 02 e6 87 33 mul	a4, a3, a4
0x80017654: 08 07 00 63 beq	a4, zero, 0x800176d4
0x800176d4: 00 00 57 37 lui	a4, 5
0x800176d8: ff ff e7 b7 lui	a5, 1048574
0x800176dc: 19 07 07 13 addi	a4, a4, 400
0x800176e0: 00 f7 07 33 add	a4, a4, a5
0x800176e4: 01 01 07 93 addi	a5, sp, 16
0x800176e8: 00 f7 07 b3 add	a5, a4, a5
0x800176ec: ff f0 07 13 addi	a4, zero, -1
0x800176f0: 5a e7 ac 23 sw	a4, 1464(a5)
0x800176f4: 00 10 06 93 addi	a3, zero, 1
0x800176f8: 5a d7 ae 23 sw	a3, 1468(a5)
0x800176fc: 5b 87 a6 03 lw	a2, 1464(a5)
0x80017700: 5b c7 a6 83 lw	a3, 1468(a5)
0x80017704: 02 d6 06 b3 mul	a3, a2, a3
0x80017708: 08 e6 80 63 beq	a3, a4, 0x80017788
0x80017788: 00 00 57 37 lui	a4, 5
0x8001778c: ff ff e7 b7 lui	a5, 1048574
0x80017790: 19 07 07 13 addi	a4, a4, 400
0x80017794: 00 f7 07 33 add	a4, a4, a5
0x80017798: 01 01 07 93 addi	a5, sp, 16
0x8001779c: 00 f7 07 b3 add	a5, a4, a5
0x800177a0: ff f0 07 13 addi	a4, zero, -1
0x800177a4: 5c e7 a0 23 sw	a4, 1472(a5)
0x800177a8: 00 20 07 13 addi	a4, zero, 2
0x800177ac: 5c e7 a2 23 sw	a4, 1476(a5)
0x800177b0: 5c 07 a6 03 lw	a2, 1472(a5)
0x800177b4: 5c 47 a6 83 lw	a3, 1476(a5)
0x800177b8: ff e0 07 13 addi	a4, zero, -2
0x800177bc: 02 d6 06 b3 mul	a3, a2, a3
0x800177c0: 08 e6 80 63 beq	a3, a4, 0x80017840
0x80017840: 00 00 57 37 lui	a4, 5
0x80017844: ff ff e7 b7 lui	a5, 1048574
0x80017848: 19 07 07 13 addi	a4, a4, 400
0x8001784c: 00 f7 07 33 add	a4, a4, a5
0x80017850: 01 01 07 93 addi	a5, sp, 16
0x80017854: 00 f7 07 b3 add	a5, a4, a5
0x80017858: ff f0 06 93 addi	a3, zero, -1
0x8001785c: 80 00 07 37 lui	a4, 524288
0x80017860: 5c d7 a4 23 sw	a3, 1480(a5)
0x80017864: ff e7 46 93 xori	a3, a4, -2
0x80017868: 5c d7 a6 23 sw	a3, 1484(a5)
0x8001786c: 5c 87 a6 03 lw	a2, 1480(a5)
0x80017870: 5c c7 a6 83 lw	a3, 1484(a5)
0x80017874: 00 27 07 13 addi	a4, a4, 2
0x80017878: 02 d6 06 b3 mul	a3, a2, a3
0x8001787c: 08 e6 82 63 beq	a3, a4, 0x80017900
0x80017900: 00 00 57 37 lui	a4, 5
0x80017904: ff ff e7 b7 lui	a5, 1048574
0x80017908: 19 07 07 13 addi	a4, a4, 400
0x8001790c: 00 f7 07 33 add	a4, a4, a5
0x80017910: 01 01 07 93 addi	a5, sp, 16
0x80017914: 00 f7 07 b3 add	a5, a4, a5
0x80017918: ff f0 06 93 addi	a3, zero, -1
0x8001791c: 80 00 07 37 lui	a4, 524288
0x80017920: 5c d7 a8 23 sw	a3, 1488(a5)
0x80017924: ff f7 46 93 xori	a3, a4, -1
0x80017928: 5c d7 aa 23 sw	a3, 1492(a5)
0x8001792c: 5d 07 a6 03 lw	a2, 1488(a5)
0x80017930: 5d 47 a6 83 lw	a3, 1492(a5)
0x80017934: 00 17 07 13 addi	a4, a4, 1
0x80017938: 02 d6 06 b3 mul	a3, a2, a3
0x8001793c: 08 e6 82 63 beq	a3, a4, 0x800179c0
0x800179c0: 00 00 57 37 lui	a4, 5
0x800179c4: ff ff e7 b7 lui	a5, 1048574
0x800179c8: 19 07 07 13 addi	a4, a4, 400
0x800179cc: 00 f7 07 33 add	a4, a4, a5
0x800179d0: 01 01 07 93 addi	a5, sp, 16
0x800179d4: 00 f7 07 b3 add	a5, a4, a5
0x800179d8: 5c 07 ac 23 sw	zero, 1496(a5)
0x800179dc: 5c 07 ae 23 sw	zero, 1500(a5)
0x800179e0: 5d 87 a6 83 lw	a3, 1496(a5)
0x800179e4: 5d c7 a7 03 lw	a4, 1500(a5)
0x800179e8: 02 e6 87 33 mul	a4, a3, a4
0x800179ec: 08 07 00 63 beq	a4, zero, 0x80017a6c
0x80017a6c: 00 00 57 37 lui	a4, 5
0x80017a70: ff ff e7 b7 lui	a5, 1048574
0x80017a74: 19 07 07 13 addi	a4, a4, 400
0x80017a78: 00 f7 07 33 add	a4, a4, a5
0x80017a7c: 01 01 07 93 addi	a5, sp, 16
0x80017a80: 00 f7 07 b3 add	a5, a4, a5
0x80017a84: 5e 07 a0 23 sw	zero, 1504(a5)
0x80017a88: 00 10 07 13 addi	a4, zero, 1
0x80017a8c: 5e e7 a2 23 sw	a4, 1508(a5)
0x80017a90: 5e 07 a6 83 lw	a3, 1504(a5)
0x80017a94: 5e 47 a7 03 lw	a4, 1508(a5)
0x80017a98: 02 e6 87 33 mul	a4, a3, a4
0x80017a9c: 08 07 00 63 beq	a4, zero, 0x80017b1c
0x80017b1c: 00 00 57 37 lui	a4, 5
0x80017b20: ff ff e7 b7 lui	a5, 1048574
0x80017b24: 19 07 07 13 addi	a4, a4, 400
0x80017b28: 00 f7 07 33 add	a4, a4, a5
0x80017b2c: 01 01 07 93 addi	a5, sp, 16
0x80017b30: 00 f7 07 b3 add	a5, a4, a5
0x80017b34: 5e 07 a4 23 sw	zero, 1512(a5)
0x80017b38: 00 20 07 13 addi	a4, zero, 2
0x80017b3c: 5e e7 a6 23 sw	a4, 1516(a5)
0x80017b40: 5e 87 a6 83 lw	a3, 1512(a5)
0x80017b44: 5e c7 a7 03 lw	a4, 1516(a5)
0x80017b48: 02 e6 87 33 mul	a4, a3, a4
0x80017b4c: 08 07 00 63 beq	a4, zero, 0x80017bcc
0x80017bcc: 00 00 57 37 lui	a4, 5
0x80017bd0: ff ff e7 b7 lui	a5, 1048574
0x80017bd4: 19 07 07 13 addi	a4, a4, 400
0x80017bd8: 00 f7 07 33 add	a4, a4, a5
0x80017bdc: 01 01 07 93 addi	a5, sp, 16
0x80017be0: 00 f7 07 b3 add	a5, a4, a5
0x80017be4: 80 00 07 37 lui	a4, 524288
0x80017be8: 5e 07 a8 23 sw	zero, 1520(a5)
0x80017bec: ff e7 47 13 xori	a4, a4, -2
0x80017bf0: 5e e7 aa 23 sw	a4, 1524(a5)
0x80017bf4: 5f 07 a6 83 lw	a3, 1520(a5)
0x80017bf8: 5f 47 a7 03 lw	a4, 1524(a5)
0x80017bfc: 02 e6 87 33 mul	a4, a3, a4
0x80017c00: 08 07 02 63 beq	a4, zero, 0x80017c84
0x80017c84: 00 00 57 37 lui	a4, 5
0x80017c88: ff ff e7 b7 lui	a5, 1048574
0x80017c8c: 19 07 07 13 addi	a4, a4, 400
0x80017c90: 00 f7 07 33 add	a4, a4, a5
0x80017c94: 01 01 07 93 addi	a5, sp, 16
0x80017c98: 00 f7 07 b3 add	a5, a4, a5
0x80017c9c: 80 00 07 37 lui	a4, 524288
0x80017ca0: 5e 07 ac 23 sw	zero, 1528(a5)
0x80017ca4: ff f7 47 13 xori	a4, a4, -1
0x80017ca8: 5e e7 ae 23 sw	a4, 1532(a5)
0x80017cac: 5f 87 a6 83 lw	a3, 1528(a5)
0x80017cb0: 5f c7 a7 03 lw	a4, 1532(a5)
0x80017cb4: 02 e6 87 33 mul	a4, a3, a4
0x80017cb8: 08 07 02 63 beq	a4, zero, 0x80017d3c
0x80017d3c: 00 00 57 37 lui	a4, 5
0x80017d40: ff ff e7 b7 lui	a5, 1048574
0x80017d44: 19 07 07 13 addi	a4, a4, 400
0x80017d48: 00 f7 07 33 add	a4, a4, a5
0x80017d4c: 01 01 07 93 addi	a5, sp, 16
0x80017d50: 00 f7 07 b3 add	a5, a4, a5
0x80017d54: 00 10 07 13 addi	a4, zero, 1
0x80017d58: 60 e7 a0 23 sw	a4, 1536(a5)
0x80017d5c: 60 e7 a2 23 sw	a4, 1540(a5)
0x80017d60: 60 07 a6 03 lw	a2, 1536(a5)
0x80017d64: 60 47 a6 83 lw	a3, 1540(a5)
0x80017d68: 02 d6 06 b3 mul	a3, a2, a3
0x80017d6c: 08 e6 80 63 beq	a3, a4, 0x80017dec
0x80017dec: 00 00 57 37 lui	a4, 5
0x80017df0: ff ff e7 b7 lui	a5, 1048574
0x80017df4: 19 07 07 13 addi	a4, a4, 400
0x80017df8: 00 f7 07 33 add	a4, a4, a5
0x80017dfc: 01 01 07 93 addi	a5, sp, 16
0x80017e00: 00 f7 07 b3 add	a5, a4, a5
0x80017e04: 00 10 07 13 addi	a4, zero, 1
0x80017e08: 60 e7 a4 23 sw	a4, 1544(a5)
0x80017e0c: 00 20 07 13 addi	a4, zero, 2
0x80017e10: 60 e7 a6 23 sw	a4, 1548(a5)
0x80017e14: 60 87 a6 03 lw	a2, 1544(a5)
0x80017e18: 60 c7 a6 83 lw	a3, 1548(a5)
0x80017e1c: 02 d6 06 b3 mul	a3, a2, a3
0x80017e20: 08 e6 80 63 beq	a3, a4, 0x80017ea0
0x80017ea0: 00 00 57 37 lui	a4, 5
0x80017ea4: ff ff e7 b7 lui	a5, 1048574
0x80017ea8: 19 07 07 13 addi	a4, a4, 400
0x80017eac: 00 f7 07 33 add	a4, a4, a5
0x80017eb0: 01 01 07 93 addi	a5, sp, 16
0x80017eb4: 00 f7 07 b3 add	a5, a4, a5
0x80017eb8: 00 10 07 13 addi	a4, zero, 1
0x80017ebc: 60 e7 a8 23 sw	a4, 1552(a5)
0x80017ec0: 80 00 07 37 lui	a4, 524288
0x80017ec4: ff e7 47 13 xori	a4, a4, -2
0x80017ec8: 60 e7 aa 23 sw	a4, 1556(a5)
0x80017ecc: 61 07 a6 03 lw	a2, 1552(a5)
0x80017ed0: 61 47 a6 83 lw	a3, 1556(a5)
0x80017ed4: 02 d6 06 b3 mul	a3, a2, a3
0x80017ed8: 08 e6 82 63 beq	a3, a4, 0x80017f5c
0x80017f5c: 00 00 57 37 lui	a4, 5
0x80017f60: ff ff e7 b7 lui	a5, 1048574
0x80017f64: 19 07 07 13 addi	a4, a4, 400
0x80017f68: 00 f7 07 33 add	a4, a4, a5
0x80017f6c: 01 01 07 93 addi	a5, sp, 16
0x80017f70: 00 f7 07 b3 add	a5, a4, a5
0x80017f74: 00 10 07 13 addi	a4, zero, 1
0x80017f78: 60 e7 ac 23 sw	a4, 1560(a5)
0x80017f7c: 80 00 07 37 lui	a4, 524288
0x80017f80: ff f7 47 13 xori	a4, a4, -1
0x80017f84: 60 e7 ae 23 sw	a4, 1564(a5)
0x80017f88: 61 87 a6 03 lw	a2, 1560(a5)
0x80017f8c: 61 c7 a6 83 lw	a3, 1564(a5)
0x80017f90: 02 d6 06 b3 mul	a3, a2, a3
0x80017f94: 08 e6 82 63 beq	a3, a4, 0x80018018
0x80018018: 00 00 57 37 lui	a4, 5
0x8001801c: ff ff e7 b7 lui	a5, 1048574
0x80018020: 19 07 07 13 addi	a4, a4, 400
0x80018024: 00 f7 07 33 add	a4, a4, a5
0x80018028: 01 01 07 93 addi	a5, sp, 16
0x8001802c: 00 f7 07 b3 add	a5, a4, a5
0x80018030: 00 20 07 13 addi	a4, zero, 2
0x80018034: 62 e7 a0 23 sw	a4, 1568(a5)
0x80018038: 62 e7 a2 23 sw	a4, 1572(a5)
0x8001803c: 62 07 a6 03 lw	a2, 1568(a5)
0x80018040: 62 47 a6 83 lw	a3, 1572(a5)
0x80018044: 00 40 07 13 addi	a4, zero, 4
0x80018048: 02 d6 06 b3 mul	a3, a2, a3
0x8001804c: 08 e6 80 63 beq	a3, a4, 0x800180cc
0x800180cc: 00 00 57 37 lui	a4, 5
0x800180d0: ff ff e7 b7 lui	a5, 1048574
0x800180d4: 19 07 07 13 addi	a4, a4, 400
0x800180d8: 00 f7 07 33 add	a4, a4, a5
0x800180dc: 01 01 07 93 addi	a5, sp, 16
0x800180e0: 00 f7 07 b3 add	a5, a4, a5
0x800180e4: 00 20 07 13 addi	a4, zero, 2
0x800180e8: 62 e7 a4 23 sw	a4, 1576(a5)
0x800180ec: 80 00 07 37 lui	a4, 524288
0x800180f0: ff e7 47 13 xori	a4, a4, -2
0x800180f4: 62 e7 a6 23 sw	a4, 1580(a5)
0x800180f8: 62 87 a6 03 lw	a2, 1576(a5)
0x800180fc: 62 c7 a6 83 lw	a3, 1580(a5)
0x80018100: ff c0 07 13 addi	a4, zero, -4
0x80018104: 02 d6 06 b3 mul	a3, a2, a3
0x80018108: 08 e6 82 63 beq	a3, a4, 0x8001818c
0x8001818c: 00 00 57 37 lui	a4, 5
0x80018190: ff ff e7 b7 lui	a5, 1048574
0x80018194: 19 07 07 13 addi	a4, a4, 400
0x80018198: 00 f7 07 33 add	a4, a4, a5
0x8001819c: 01 01 07 93 addi	a5, sp, 16
0x800181a0: 00 f7 07 b3 add	a5, a4, a5
0x800181a4: 00 20 07 13 addi	a4, zero, 2
0x800181a8: 62 e7 a8 23 sw	a4, 1584(a5)
0x800181ac: 80 00 07 37 lui	a4, 524288
0x800181b0: ff f7 47 13 xori	a4, a4, -1
0x800181b4: 62 e7 aa 23 sw	a4, 1588(a5)
0x800181b8: 63 07 a6 03 lw	a2, 1584(a5)
0x800181bc: 63 47 a6 83 lw	a3, 1588(a5)
0x800181c0: ff e0 07 13 addi	a4, zero, -2
0x800181c4: 02 d6 06 b3 mul	a3, a2, a3
0x800181c8: 08 e6 82 63 beq	a3, a4, 0x8001824c
0x8001824c: 00 00 57 37 lui	a4, 5
0x80018250: ff ff e7 b7 lui	a5, 1048574
0x80018254: 19 07 07 13 addi	a4, a4, 400
0x80018258: 00 f7 07 33 add	a4, a4, a5
0x8001825c: 01 01 07 93 addi	a5, sp, 16
0x80018260: 00 f7 07 b3 add	a5, a4, a5
0x80018264: 80 00 07 37 lui	a4, 524288
0x80018268: ff e7 47 13 xori	a4, a4, -2
0x8001826c: 62 e7 ac 23 sw	a4, 1592(a5)
0x80018270: 62 e7 ae 23 sw	a4, 1596(a5)
0x80018274: 63 87 a6 03 lw	a2, 1592(a5)
0x80018278: 63 c7 a6 83 lw	a3, 1596(a5)
0x8001827c: 00 40 07 13 addi	a4, zero, 4
0x80018280: 02 d6 06 b3 mul	a3, a2, a3
0x80018284: 08 e6 82 63 beq	a3, a4, 0x80018308
0x80018308: 00 00 56 b7 lui	a3, 5
0x8001830c: ff ff e7 b7 lui	a5, 1048574
0x80018310: 19 06 86 93 addi	a3, a3, 400
0x80018314: 80 00 07 37 lui	a4, 524288
0x80018318: 00 f6 86 b3 add	a3, a3, a5
0x8001831c: 01 01 07 93 addi	a5, sp, 16
0x80018320: 00 f6 87 b3 add	a5, a3, a5
0x80018324: ff e7 46 93 xori	a3, a4, -2
0x80018328: 64 d7 a0 23 sw	a3, 1600(a5)
0x8001832c: ff f7 46 93 xori	a3, a4, -1
0x80018330: 64 d7 a2 23 sw	a3, 1604(a5)
0x80018334: 64 07 a6 03 lw	a2, 1600(a5)
0x80018338: 64 47 a6 83 lw	a3, 1604(a5)
0x8001833c: 00 27 07 13 addi	a4, a4, 2
0x80018340: 02 d6 06 b3 mul	a3, a2, a3
0x80018344: 08 e6 82 63 beq	a3, a4, 0x800183c8
0x800183c8: 00 00 57 37 lui	a4, 5
0x800183cc: ff ff e7 b7 lui	a5, 1048574
0x800183d0: 19 07 07 13 addi	a4, a4, 400
0x800183d4: 00 f7 07 33 add	a4, a4, a5
0x800183d8: 01 01 07 93 addi	a5, sp, 16
0x800183dc: 00 f7 07 b3 add	a5, a4, a5
0x800183e0: 80 00 07 37 lui	a4, 524288
0x800183e4: ff f7 47 13 xori	a4, a4, -1
0x800183e8: 64 e7 a4 23 sw	a4, 1608(a5)
0x800183ec: 64 e7 a6 23 sw	a4, 1612(a5)
0x800183f0: 64 87 a6 03 lw	a2, 1608(a5)
0x800183f4: 64 c7 a6 83 lw	a3, 1612(a5)
0x800183f8: 00 10 07 13 addi	a4, zero, 1
0x800183fc: 02 d6 06 b3 mul	a3, a2, a3
0x80018400: 08 e6 82 63 beq	a3, a4, 0x80018484
0x80018484: 00 00 57 37 lui	a4, 5
0x80018488: ff ff e7 b7 lui	a5, 1048574
0x8001848c: 19 07 07 13 addi	a4, a4, 400
0x80018490: 00 f7 07 33 add	a4, a4, a5
0x80018494: 01 01 07 93 addi	a5, sp, 16
0x80018498: 00 f7 07 b3 add	a5, a4, a5
0x8001849c: 80 00 07 37 lui	a4, 524288
0x800184a0: 64 e7 a8 23 sw	a4, 1616(a5)
0x800184a4: 64 e7 aa 23 sw	a4, 1620(a5)
0x800184a8: 65 07 a6 03 lw	a2, 1616(a5)
0x800184ac: 65 47 a6 83 lw	a3, 1620(a5)
0x800184b0: 00 10 07 13 addi	a4, zero, 1
0x800184b4: 02 d6 46 b3 div	a3, a2, a3
0x800184b8: 08 e6 80 63 beq	a3, a4, 0x80018538
0x80018538: 00 00 57 37 lui	a4, 5
0x8001853c: ff ff e7 b7 lui	a5, 1048574
0x80018540: 19 07 07 13 addi	a4, a4, 400
0x80018544: 00 f7 07 33 add	a4, a4, a5
0x80018548: 01 01 07 93 addi	a5, sp, 16
0x8001854c: 00 f7 07 b3 add	a5, a4, a5
0x80018550: 80 00 07 37 lui	a4, 524288
0x80018554: 64 e7 ac 23 sw	a4, 1624(a5)
0x80018558: 00 17 07 13 addi	a4, a4, 1
0x8001855c: 64 e7 ae 23 sw	a4, 1628(a5)
0x80018560: 65 87 a6 03 lw	a2, 1624(a5)
0x80018564: 65 c7 a6 83 lw	a3, 1628(a5)
0x80018568: 00 10 07 13 addi	a4, zero, 1
0x8001856c: 02 d6 46 b3 div	a3, a2, a3
0x80018570: 08 e6 82 63 beq	a3, a4, 0x800185f4
0x800185f4: 00 00 57 37 lui	a4, 5
0x800185f8: ff ff e7 b7 lui	a5, 1048574
0x800185fc: 19 07 07 13 addi	a4, a4, 400
0x80018600: 00 f7 07 33 add	a4, a4, a5
0x80018604: 01 01 07 93 addi	a5, sp, 16
0x80018608: 00 f7 07 b3 add	a5, a4, a5
0x8001860c: 80 00 07 37 lui	a4, 524288
0x80018610: 66 e7 a0 23 sw	a4, 1632(a5)
0x80018614: ff e0 07 13 addi	a4, zero, -2
0x80018618: 66 e7 a2 23 sw	a4, 1636(a5)
0x8001861c: 66 07 a6 03 lw	a2, 1632(a5)
0x80018620: 66 47 a6 83 lw	a3, 1636(a5)
0x80018624: 40 00 07 37 lui	a4, 262144
0x80018628: 02 d6 46 b3 div	a3, a2, a3
0x8001862c: 08 e6 80 63 beq	a3, a4, 0x800186ac
0x800186ac: 00 00 57 37 lui	a4, 5
0x800186b0: ff ff e7 b7 lui	a5, 1048574
0x800186b4: 19 07 07 13 addi	a4, a4, 400
0x800186b8: 00 f7 07 33 add	a4, a4, a5
0x800186bc: 01 01 07 93 addi	a5, sp, 16
0x800186c0: 00 f7 07 b3 add	a5, a4, a5
0x800186c4: 80 00 07 37 lui	a4, 524288
0x800186c8: 66 e7 a4 23 sw	a4, 1640(a5)
0x800186cc: 00 10 06 93 addi	a3, zero, 1
0x800186d0: 66 d7 a6 23 sw	a3, 1644(a5)
0x800186d4: 66 87 a6 03 lw	a2, 1640(a5)
0x800186d8: 66 c7 a6 83 lw	a3, 1644(a5)
0x800186dc: 02 d6 46 b3 div	a3, a2, a3
0x800186e0: 08 e6 80 63 beq	a3, a4, 0x80018760
0x80018760: 00 00 57 37 lui	a4, 5
0x80018764: ff ff e7 b7 lui	a5, 1048574
0x80018768: 19 07 07 13 addi	a4, a4, 400
0x8001876c: 00 f7 07 33 add	a4, a4, a5
0x80018770: 01 01 07 93 addi	a5, sp, 16
0x80018774: 00 f7 07 b3 add	a5, a4, a5
0x80018778: 80 00 07 37 lui	a4, 524288
0x8001877c: 66 e7 a8 23 sw	a4, 1648(a5)
0x80018780: 00 20 07 13 addi	a4, zero, 2
0x80018784: 66 e7 aa 23 sw	a4, 1652(a5)
0x80018788: 67 07 a6 03 lw	a2, 1648(a5)
0x8001878c: 67 47 a6 83 lw	a3, 1652(a5)
0x80018790: c0 00 07 37 lui	a4, 786432
0x80018794: 02 d6 46 b3 div	a3, a2, a3
0x80018798: 08 e6 80 63 beq	a3, a4, 0x80018818
0x80018818: 00 00 57 37 lui	a4, 5
0x8001881c: ff ff e7 b7 lui	a5, 1048574
0x80018820: 19 07 07 13 addi	a4, a4, 400
0x80018824: 00 f7 07 33 add	a4, a4, a5
0x80018828: 01 01 07 93 addi	a5, sp, 16
0x8001882c: 00 f7 07 b3 add	a5, a4, a5
0x80018830: 80 00 07 37 lui	a4, 524288
0x80018834: 66 e7 ac 23 sw	a4, 1656(a5)
0x80018838: ff e7 47 13 xori	a4, a4, -2
0x8001883c: 66 e7 ae 23 sw	a4, 1660(a5)
0x80018840: 67 87 a6 03 lw	a2, 1656(a5)
0x80018844: 67 c7 a6 83 lw	a3, 1660(a5)
0x80018848: ff f0 07 13 addi	a4, zero, -1
0x8001884c: 02 d6 46 b3 div	a3, a2, a3
0x80018850: 08 e6 82 63 beq	a3, a4, 0x800188d4
0x800188d4: 00 00 57 37 lui	a4, 5
0x800188d8: ff ff e7 b7 lui	a5, 1048574
0x800188dc: 19 07 07 13 addi	a4, a4, 400
0x800188e0: 00 f7 07 33 add	a4, a4, a5
0x800188e4: 01 01 07 93 addi	a5, sp, 16
0x800188e8: 00 f7 07 b3 add	a5, a4, a5
0x800188ec: 80 00 07 37 lui	a4, 524288
0x800188f0: 68 e7 a0 23 sw	a4, 1664(a5)
0x800188f4: ff f7 47 13 xori	a4, a4, -1
0x800188f8: 68 e7 a2 23 sw	a4, 1668(a5)
0x800188fc: 68 07 a6 03 lw	a2, 1664(a5)
0x80018900: 68 47 a6 83 lw	a3, 1668(a5)
0x80018904: ff f0 07 13 addi	a4, zero, -1
0x80018908: 02 d6 46 b3 div	a3, a2, a3
0x8001890c: 08 e6 82 63 beq	a3, a4, 0x80018990
0x80018990: 00 00 57 37 lui	a4, 5
0x80018994: ff ff e7 b7 lui	a5, 1048574
0x80018998: 19 07 07 13 addi	a4, a4, 400
0x8001899c: 00 f7 07 33 add	a4, a4, a5
0x800189a0: 01 01 07 93 addi	a5, sp, 16
0x800189a4: 00 f7 07 b3 add	a5, a4, a5
0x800189a8: 80 00 07 37 lui	a4, 524288
0x800189ac: 00 17 07 13 addi	a4, a4, 1
0x800189b0: 68 e7 a4 23 sw	a4, 1672(a5)
0x800189b4: 68 e7 a6 23 sw	a4, 1676(a5)
0x800189b8: 68 87 a6 03 lw	a2, 1672(a5)
0x800189bc: 68 c7 a6 83 lw	a3, 1676(a5)
0x800189c0: 00 10 07 13 addi	a4, zero, 1
0x800189c4: 02 d6 46 b3 div	a3, a2, a3
0x800189c8: 08 e6 82 63 beq	a3, a4, 0x80018a4c
0x80018a4c: 00 00 57 37 lui	a4, 5
0x80018a50: ff ff e7 b7 lui	a5, 1048574
0x80018a54: 19 07 07 13 addi	a4, a4, 400
0x80018a58: 00 f7 07 33 add	a4, a4, a5
0x80018a5c: 01 01 07 93 addi	a5, sp, 16
0x80018a60: 00 f7 07 b3 add	a5, a4, a5
0x80018a64: 80 00 07 37 lui	a4, 524288
0x80018a68: 00 17 07 13 addi	a4, a4, 1
0x80018a6c: 68 e7 a8 23 sw	a4, 1680(a5)
0x80018a70: ff e0 07 13 addi	a4, zero, -2
0x80018a74: 68 e7 aa 23 sw	a4, 1684(a5)
0x80018a78: 69 07 a6 03 lw	a2, 1680(a5)
0x80018a7c: 69 47 a6 83 lw	a3, 1684(a5)
0x80018a80: 40 00 07 37 lui	a4, 262144
0x80018a84: ff f7 07 13 addi	a4, a4, -1
0x80018a88: 02 d6 46 b3 div	a3, a2, a3
0x80018a8c: 08 e6 84 63 beq	a3, a4, 0x80018b14
0x80018b14: 00 00 56 b7 lui	a3, 5
0x80018b18: ff ff e7 b7 lui	a5, 1048574
0x80018b1c: 19 06 86 93 addi	a3, a3, 400
0x80018b20: 00 f6 86 b3 add	a3, a3, a5
0x80018b24: 80 00 07 37 lui	a4, 524288
0x80018b28: 01 01 07 93 addi	a5, sp, 16
0x80018b2c: 00 f6 87 b3 add	a5, a3, a5
0x80018b30: 00 17 06 93 addi	a3, a4, 1
0x80018b34: 68 d7 ac 23 sw	a3, 1688(a5)
0x80018b38: ff f0 06 93 addi	a3, zero, -1
0x80018b3c: 68 d7 ae 23 sw	a3, 1692(a5)
0x80018b40: 69 87 a6 03 lw	a2, 1688(a5)
0x80018b44: 69 c7 a6 83 lw	a3, 1692(a5)
0x80018b48: ff f7 47 13 xori	a4, a4, -1
0x80018b4c: 02 d6 46 b3 div	a3, a2, a3
0x80018b50: 08 e6 82 63 beq	a3, a4, 0x80018bd4
0x80018bd4: 00 00 57 37 lui	a4, 5
0x80018bd8: ff ff e7 b7 lui	a5, 1048574
0x80018bdc: 19 07 07 13 addi	a4, a4, 400
0x80018be0: 00 f7 07 33 add	a4, a4, a5
0x80018be4: 01 01 07 93 addi	a5, sp, 16
0x80018be8: 00 f7 07 b3 add	a5, a4, a5
0x80018bec: 80 00 07 37 lui	a4, 524288
0x80018bf0: 00 17 07 13 addi	a4, a4, 1
0x80018bf4: 6a e7 a0 23 sw	a4, 1696(a5)
0x80018bf8: 00 10 06 93 addi	a3, zero, 1
0x80018bfc: 6a d7 a2 23 sw	a3, 1700(a5)
0x80018c00: 6a 07 a6 03 lw	a2, 1696(a5)
0x80018c04: 6a 47 a6 83 lw	a3, 1700(a5)
0x80018c08: 02 d6 46 b3 div	a3, a2, a3
0x80018c0c: 08 e6 82 63 beq	a3, a4, 0x80018c90
0x80018c90: 00 00 57 37 lui	a4, 5
0x80018c94: ff ff e7 b7 lui	a5, 1048574
0x80018c98: 19 07 07 13 addi	a4, a4, 400
0x80018c9c: 00 f7 07 33 add	a4, a4, a5
0x80018ca0: 01 01 07 93 addi	a5, sp, 16
0x80018ca4: 00 f7 07 b3 add	a5, a4, a5
0x80018ca8: 80 00 07 37 lui	a4, 524288
0x80018cac: 00 17 07 13 addi	a4, a4, 1
0x80018cb0: 6a e7 a4 23 sw	a4, 1704(a5)
0x80018cb4: 00 20 07 13 addi	a4, zero, 2
0x80018cb8: 6a e7 a6 23 sw	a4, 1708(a5)
0x80018cbc: 6a 87 a6 03 lw	a2, 1704(a5)
0x80018cc0: 6a c7 a6 83 lw	a3, 1708(a5)
0x80018cc4: c0 00 07 37 lui	a4, 786432
0x80018cc8: 00 17 07 13 addi	a4, a4, 1
0x80018ccc: 02 d6 46 b3 div	a3, a2, a3
0x80018cd0: 08 e6 84 63 beq	a3, a4, 0x80018d58
0x80018d58: 00 00 56 b7 lui	a3, 5
0x80018d5c: ff ff e7 b7 lui	a5, 1048574
0x80018d60: 19 06 86 93 addi	a3, a3, 400
0x80018d64: 00 f6 86 b3 add	a3, a3, a5
0x80018d68: 80 00 07 37 lui	a4, 524288
0x80018d6c: 01 01 07 93 addi	a5, sp, 16
0x80018d70: 00 f6 87 b3 add	a5, a3, a5
0x80018d74: 00 17 06 93 addi	a3, a4, 1
0x80018d78: 6a d7 a8 23 sw	a3, 1712(a5)
0x80018d7c: ff e7 47 13 xori	a4, a4, -2
0x80018d80: 6a e7 aa 23 sw	a4, 1716(a5)
0x80018d84: 6b 07 a6 03 lw	a2, 1712(a5)
0x80018d88: 6b 47 a6 83 lw	a3, 1716(a5)
0x80018d8c: ff f0 07 13 addi	a4, zero, -1
0x80018d90: 02 d6 46 b3 div	a3, a2, a3
0x80018d94: 08 e6 82 63 beq	a3, a4, 0x80018e18
0x80018e18: 00 00 56 b7 lui	a3, 5
0x80018e1c: ff ff e7 b7 lui	a5, 1048574
0x80018e20: 19 06 86 93 addi	a3, a3, 400
0x80018e24: 00 f6 86 b3 add	a3, a3, a5
0x80018e28: 80 00 07 37 lui	a4, 524288
0x80018e2c: 01 01 07 93 addi	a5, sp, 16
0x80018e30: 00 f6 87 b3 add	a5, a3, a5
0x80018e34: 00 17 06 93 addi	a3, a4, 1
0x80018e38: 6a d7 ac 23 sw	a3, 1720(a5)
0x80018e3c: ff f7 47 13 xori	a4, a4, -1
0x80018e40: 6a e7 ae 23 sw	a4, 1724(a5)
0x80018e44: 6b 87 a6 03 lw	a2, 1720(a5)
0x80018e48: 6b c7 a6 83 lw	a3, 1724(a5)
0x80018e4c: ff f0 07 13 addi	a4, zero, -1
0x80018e50: 02 d6 46 b3 div	a3, a2, a3
0x80018e54: 08 e6 82 63 beq	a3, a4, 0x80018ed8
0x80018ed8: 00 00 57 37 lui	a4, 5
0x80018edc: ff ff e7 b7 lui	a5, 1048574
0x80018ee0: 19 07 07 13 addi	a4, a4, 400
0x80018ee4: 00 f7 07 33 add	a4, a4, a5
0x80018ee8: 01 01 07 93 addi	a5, sp, 16
0x80018eec: 00 f7 07 b3 add	a5, a4, a5
0x80018ef0: ff e0 07 13 addi	a4, zero, -2
0x80018ef4: 6c e7 a0 23 sw	a4, 1728(a5)
0x80018ef8: 6c e7 a2 23 sw	a4, 1732(a5)
0x80018efc: 6c 07 a6 03 lw	a2, 1728(a5)
0x80018f00: 6c 47 a6 83 lw	a3, 1732(a5)
0x80018f04: 00 10 07 13 addi	a4, zero, 1
0x80018f08: 02 d6 46 b3 div	a3, a2, a3
0x80018f0c: 08 e6 80 63 beq	a3, a4, 0x80018f8c
0x80018f8c: 00 00 57 37 lui	a4, 5
0x80018f90: ff ff e7 b7 lui	a5, 1048574
0x80018f94: 19 07 07 13 addi	a4, a4, 400
0x80018f98: 00 f7 07 33 add	a4, a4, a5
0x80018f9c: 01 01 07 93 addi	a5, sp, 16
0x80018fa0: 00 f7 07 b3 add	a5, a4, a5
0x80018fa4: ff e0 07 13 addi	a4, zero, -2
0x80018fa8: 6c e7 a4 23 sw	a4, 1736(a5)
0x80018fac: ff f0 07 13 addi	a4, zero, -1
0x80018fb0: 6c e7 a6 23 sw	a4, 1740(a5)
0x80018fb4: 6c 87 a6 03 lw	a2, 1736(a5)
0x80018fb8: 6c c7 a6 83 lw	a3, 1740(a5)
0x80018fbc: 00 20 07 13 addi	a4, zero, 2
0x80018fc0: 02 d6 46 b3 div	a3, a2, a3
0x80018fc4: 08 e6 80 63 beq	a3, a4, 0x80019044
0x80019044: 00 00 57 37 lui	a4, 5
0x80019048: ff ff e7 b7 lui	a5, 1048574
0x8001904c: 19 07 07 13 addi	a4, a4, 400
0x80019050: 00 f7 07 33 add	a4, a4, a5
0x80019054: 01 01 07 93 addi	a5, sp, 16
0x80019058: 00 f7 07 b3 add	a5, a4, a5
0x8001905c: ff e0 07 13 addi	a4, zero, -2
0x80019060: 6c e7 a8 23 sw	a4, 1744(a5)
0x80019064: 00 10 06 93 addi	a3, zero, 1
0x80019068: 6c d7 aa 23 sw	a3, 1748(a5)
0x8001906c: 6d 07 a6 03 lw	a2, 1744(a5)
0x80019070: 6d 47 a6 83 lw	a3, 1748(a5)
0x80019074: 02 d6 46 b3 div	a3, a2, a3
0x80019078: 08 e6 80 63 beq	a3, a4, 0x800190f8
0x800190f8: 00 00 57 37 lui	a4, 5
0x800190fc: ff ff e7 b7 lui	a5, 1048574
0x80019100: 19 07 07 13 addi	a4, a4, 400
0x80019104: 00 f7 07 33 add	a4, a4, a5
0x80019108: 01 01 07 93 addi	a5, sp, 16
0x8001910c: 00 f7 07 b3 add	a5, a4, a5
0x80019110: ff e0 07 13 addi	a4, zero, -2
0x80019114: 6c e7 ac 23 sw	a4, 1752(a5)
0x80019118: 00 20 07 13 addi	a4, zero, 2
0x8001911c: 6c e7 ae 23 sw	a4, 1756(a5)
0x80019120: 6d 87 a6 03 lw	a2, 1752(a5)
0x80019124: 6d c7 a6 83 lw	a3, 1756(a5)
0x80019128: ff f0 07 13 addi	a4, zero, -1
0x8001912c: 02 d6 46 b3 div	a3, a2, a3
0x80019130: 08 e6 80 63 beq	a3, a4, 0x800191b0
0x800191b0: 00 00 57 37 lui	a4, 5
0x800191b4: ff ff e7 b7 lui	a5, 1048574
0x800191b8: 19 07 07 13 addi	a4, a4, 400
0x800191bc: 00 f7 07 33 add	a4, a4, a5
0x800191c0: 01 01 07 93 addi	a5, sp, 16
0x800191c4: 00 f7 07 b3 add	a5, a4, a5
0x800191c8: ff e0 07 13 addi	a4, zero, -2
0x800191cc: 6e e7 a0 23 sw	a4, 1760(a5)
0x800191d0: 80 00 07 37 lui	a4, 524288
0x800191d4: ff e7 47 13 xori	a4, a4, -2
0x800191d8: 6e e7 a2 23 sw	a4, 1764(a5)
0x800191dc: 6e 07 a6 83 lw	a3, 1760(a5)
0x800191e0: 6e 47 a7 03 lw	a4, 1764(a5)
0x800191e4: 02 e6 c7 33 div	a4, a3, a4
0x800191e8: 08 07 02 63 beq	a4, zero, 0x8001926c
0x8001926c: 00 00 57 37 lui	a4, 5
0x80019270: ff ff e7 b7 lui	a5, 1048574
0x80019274: 19 07 07 13 addi	a4, a4, 400
0x80019278: 00 f7 07 33 add	a4, a4, a5
0x8001927c: 01 01 07 93 addi	a5, sp, 16
0x80019280: 00 f7 07 b3 add	a5, a4, a5
0x80019284: ff e0 07 13 addi	a4, zero, -2
0x80019288: 6e e7 a4 23 sw	a4, 1768(a5)
0x8001928c: 80 00 07 37 lui	a4, 524288
0x80019290: ff f7 47 13 xori	a4, a4, -1
0x80019294: 6e e7 a6 23 sw	a4, 1772(a5)
0x80019298: 6e 87 a6 83 lw	a3, 1768(a5)
0x8001929c: 6e c7 a7 03 lw	a4, 1772(a5)
0x800192a0: 02 e6 c7 33 div	a4, a3, a4
0x800192a4: 08 07 02 63 beq	a4, zero, 0x80019328
0x80019328: 00 00 57 37 lui	a4, 5
0x8001932c: ff ff e7 b7 lui	a5, 1048574
0x80019330: 19 07 07 13 addi	a4, a4, 400
0x80019334: 00 f7 07 33 add	a4, a4, a5
0x80019338: 01 01 07 93 addi	a5, sp, 16
0x8001933c: 00 f7 07 b3 add	a5, a4, a5
0x80019340: ff f0 07 13 addi	a4, zero, -1
0x80019344: 6e e7 a8 23 sw	a4, 1776(a5)
0x80019348: 6e e7 aa 23 sw	a4, 1780(a5)
0x8001934c: 6f 07 a6 03 lw	a2, 1776(a5)
0x80019350: 6f 47 a6 83 lw	a3, 1780(a5)
0x80019354: 00 10 07 13 addi	a4, zero, 1
0x80019358: 02 d6 46 b3 div	a3, a2, a3
0x8001935c: 08 e6 80 63 beq	a3, a4, 0x800193dc
0x800193dc: 00 00 57 37 lui	a4, 5
0x800193e0: ff ff e7 b7 lui	a5, 1048574
0x800193e4: 19 07 07 13 addi	a4, a4, 400
0x800193e8: 00 f7 07 33 add	a4, a4, a5
0x800193ec: 01 01 07 93 addi	a5, sp, 16
0x800193f0: 00 f7 07 b3 add	a5, a4, a5
0x800193f4: ff f0 07 13 addi	a4, zero, -1
0x800193f8: 6e e7 ac 23 sw	a4, 1784(a5)
0x800193fc: 00 10 06 93 addi	a3, zero, 1
0x80019400: 6e d7 ae 23 sw	a3, 1788(a5)
0x80019404: 6f 87 a6 03 lw	a2, 1784(a5)
0x80019408: 6f c7 a6 83 lw	a3, 1788(a5)
0x8001940c: 02 d6 46 b3 div	a3, a2, a3
0x80019410: 08 e6 80 63 beq	a3, a4, 0x80019490
0x80019490: 00 00 57 37 lui	a4, 5
0x80019494: ff ff e7 b7 lui	a5, 1048574
0x80019498: 19 07 07 13 addi	a4, a4, 400
0x8001949c: 00 f7 07 33 add	a4, a4, a5
0x800194a0: 01 01 07 93 addi	a5, sp, 16
0x800194a4: 00 f7 07 b3 add	a5, a4, a5
0x800194a8: ff f0 07 13 addi	a4, zero, -1
0x800194ac: 70 e7 a0 23 sw	a4, 1792(a5)
0x800194b0: 00 20 07 13 addi	a4, zero, 2
0x800194b4: 70 e7 a2 23 sw	a4, 1796(a5)
0x800194b8: 70 07 a6 83 lw	a3, 1792(a5)
0x800194bc: 70 47 a7 03 lw	a4, 1796(a5)
0x800194c0: 02 e6 c7 33 div	a4, a3, a4
0x800194c4: 08 07 00 63 beq	a4, zero, 0x80019544
0x80019544: 00 00 57 37 lui	a4, 5
0x80019548: ff ff e7 b7 lui	a5, 1048574
0x8001954c: 19 07 07 13 addi	a4, a4, 400
0x80019550: 00 f7 07 33 add	a4, a4, a5
0x80019554: 01 01 07 93 addi	a5, sp, 16
0x80019558: 00 f7 07 b3 add	a5, a4, a5
0x8001955c: ff f0 07 13 addi	a4, zero, -1
0x80019560: 70 e7 a4 23 sw	a4, 1800(a5)
0x80019564: 80 00 07 37 lui	a4, 524288
0x80019568: ff e7 47 13 xori	a4, a4, -2
0x8001956c: 70 e7 a6 23 sw	a4, 1804(a5)
0x80019570: 70 87 a6 83 lw	a3, 1800(a5)
0x80019574: 70 c7 a7 03 lw	a4, 1804(a5)
0x80019578: 02 e6 c7 33 div	a4, a3, a4
0x8001957c: 08 07 02 63 beq	a4, zero, 0x80019600
0x80019600: 00 00 57 37 lui	a4, 5
0x80019604: ff ff e7 b7 lui	a5, 1048574
0x80019608: 19 07 07 13 addi	a4, a4, 400
0x8001960c: 00 f7 07 33 add	a4, a4, a5
0x80019610: 01 01 07 93 addi	a5, sp, 16
0x80019614: 00 f7 07 b3 add	a5, a4, a5
0x80019618: ff f0 07 13 addi	a4, zero, -1
0x8001961c: 70 e7 a8 23 sw	a4, 1808(a5)
0x80019620: 80 00 07 37 lui	a4, 524288
0x80019624: ff f7 47 13 xori	a4, a4, -1
0x80019628: 70 e7 aa 23 sw	a4, 1812(a5)
0x8001962c: 71 07 a6 83 lw	a3, 1808(a5)
0x80019630: 71 47 a7 03 lw	a4, 1812(a5)
0x80019634: 02 e6 c7 33 div	a4, a3, a4
0x80019638: 08 07 02 63 beq	a4, zero, 0x800196bc
0x800196bc: 00 00 57 37 lui	a4, 5
0x800196c0: ff ff e7 b7 lui	a5, 1048574
0x800196c4: 19 07 07 13 addi	a4, a4, 400
0x800196c8: 00 f7 07 33 add	a4, a4, a5
0x800196cc: 01 01 07 93 addi	a5, sp, 16
0x800196d0: 00 f7 07 b3 add	a5, a4, a5
0x800196d4: 70 07 ac 23 sw	zero, 1816(a5)
0x800196d8: 00 10 07 13 addi	a4, zero, 1
0x800196dc: 70 e7 ae 23 sw	a4, 1820(a5)
0x800196e0: 71 87 a6 83 lw	a3, 1816(a5)
0x800196e4: 71 c7 a7 03 lw	a4, 1820(a5)
0x800196e8: 02 e6 c7 33 div	a4, a3, a4
0x800196ec: 08 07 00 63 beq	a4, zero, 0x8001976c
0x8001976c: 00 00 57 37 lui	a4, 5
0x80019770: ff ff e7 b7 lui	a5, 1048574
0x80019774: 19 07 07 13 addi	a4, a4, 400
0x80019778: 00 f7 07 33 add	a4, a4, a5
0x8001977c: 01 01 07 93 addi	a5, sp, 16
0x80019780: 00 f7 07 b3 add	a5, a4, a5
0x80019784: 72 07 a0 23 sw	zero, 1824(a5)
0x80019788: 00 20 07 13 addi	a4, zero, 2
0x8001978c: 72 e7 a2 23 sw	a4, 1828(a5)
0x80019790: 72 07 a6 83 lw	a3, 1824(a5)
0x80019794: 72 47 a7 03 lw	a4, 1828(a5)
0x80019798: 02 e6 c7 33 div	a4, a3, a4
0x8001979c: 08 07 00 63 beq	a4, zero, 0x8001981c
0x8001981c: 00 00 57 37 lui	a4, 5
0x80019820: ff ff e7 b7 lui	a5, 1048574
0x80019824: 19 07 07 13 addi	a4, a4, 400
0x80019828: 00 f7 07 33 add	a4, a4, a5
0x8001982c: 01 01 07 93 addi	a5, sp, 16
0x80019830: 00 f7 07 b3 add	a5, a4, a5
0x80019834: 80 00 07 37 lui	a4, 524288
0x80019838: 72 07 a4 23 sw	zero, 1832(a5)
0x8001983c: ff e7 47 13 xori	a4, a4, -2
0x80019840: 72 e7 a6 23 sw	a4, 1836(a5)
0x80019844: 72 87 a6 83 lw	a3, 1832(a5)
0x80019848: 72 c7 a7 03 lw	a4, 1836(a5)
0x8001984c: 02 e6 c7 33 div	a4, a3, a4
0x80019850: 08 07 02 63 beq	a4, zero, 0x800198d4
0x800198d4: 00 00 57 37 lui	a4, 5
0x800198d8: ff ff e7 b7 lui	a5, 1048574
0x800198dc: 19 07 07 13 addi	a4, a4, 400
0x800198e0: 00 f7 07 33 add	a4, a4, a5
0x800198e4: 01 01 07 93 addi	a5, sp, 16
0x800198e8: 00 f7 07 b3 add	a5, a4, a5
0x800198ec: 80 00 07 37 lui	a4, 524288
0x800198f0: 72 07 a8 23 sw	zero, 1840(a5)
0x800198f4: ff f7 47 13 xori	a4, a4, -1
0x800198f8: 72 e7 aa 23 sw	a4, 1844(a5)
0x800198fc: 73 07 a6 83 lw	a3, 1840(a5)
0x80019900: 73 47 a7 03 lw	a4, 1844(a5)
0x80019904: 02 e6 c7 33 div	a4, a3, a4
0x80019908: 08 07 02 63 beq	a4, zero, 0x8001998c
0x8001998c: 00 00 57 37 lui	a4, 5
0x80019990: ff ff e7 b7 lui	a5, 1048574
0x80019994: 19 07 07 13 addi	a4, a4, 400
0x80019998: 00 f7 07 33 add	a4, a4, a5
0x8001999c: 01 01 07 93 addi	a5, sp, 16
0x800199a0: 00 f7 07 b3 add	a5, a4, a5
0x800199a4: 00 10 07 13 addi	a4, zero, 1
0x800199a8: 72 e7 ac 23 sw	a4, 1848(a5)
0x800199ac: 72 e7 ae 23 sw	a4, 1852(a5)
0x800199b0: 73 87 a6 03 lw	a2, 1848(a5)
0x800199b4: 73 c7 a6 83 lw	a3, 1852(a5)
0x800199b8: 02 d6 46 b3 div	a3, a2, a3
0x800199bc: 08 e6 80 63 beq	a3, a4, 0x80019a3c
0x80019a3c: 00 00 57 37 lui	a4, 5
0x80019a40: ff ff e7 b7 lui	a5, 1048574
0x80019a44: 19 07 07 13 addi	a4, a4, 400
0x80019a48: 00 f7 07 33 add	a4, a4, a5
0x80019a4c: 01 01 07 93 addi	a5, sp, 16
0x80019a50: 00 f7 07 b3 add	a5, a4, a5
0x80019a54: 00 10 07 13 addi	a4, zero, 1
0x80019a58: 74 e7 a0 23 sw	a4, 1856(a5)
0x80019a5c: 00 20 07 13 addi	a4, zero, 2
0x80019a60: 74 e7 a2 23 sw	a4, 1860(a5)
0x80019a64: 74 07 a6 83 lw	a3, 1856(a5)
0x80019a68: 74 47 a7 03 lw	a4, 1860(a5)
0x80019a6c: 02 e6 c7 33 div	a4, a3, a4
0x80019a70: 08 07 00 63 beq	a4, zero, 0x80019af0
0x80019af0: 00 00 57 37 lui	a4, 5
0x80019af4: ff ff e7 b7 lui	a5, 1048574
0x80019af8: 19 07 07 13 addi	a4, a4, 400
0x80019afc: 00 f7 07 33 add	a4, a4, a5
0x80019b00: 01 01 07 93 addi	a5, sp, 16
0x80019b04: 00 f7 07 b3 add	a5, a4, a5
0x80019b08: 00 10 07 13 addi	a4, zero, 1
0x80019b0c: 74 e7 a4 23 sw	a4, 1864(a5)
0x80019b10: 80 00 07 37 lui	a4, 524288
0x80019b14: ff e7 47 13 xori	a4, a4, -2
0x80019b18: 74 e7 a6 23 sw	a4, 1868(a5)
0x80019b1c: 74 87 a6 83 lw	a3, 1864(a5)
0x80019b20: 74 c7 a7 03 lw	a4, 1868(a5)
0x80019b24: 02 e6 c7 33 div	a4, a3, a4
0x80019b28: 08 07 02 63 beq	a4, zero, 0x80019bac
0x80019bac: 00 00 57 37 lui	a4, 5
0x80019bb0: ff ff e7 b7 lui	a5, 1048574
0x80019bb4: 19 07 07 13 addi	a4, a4, 400
0x80019bb8: 00 f7 07 33 add	a4, a4, a5
0x80019bbc: 01 01 07 93 addi	a5, sp, 16
0x80019bc0: 00 f7 07 b3 add	a5, a4, a5
0x80019bc4: 00 10 07 13 addi	a4, zero, 1
0x80019bc8: 74 e7 a8 23 sw	a4, 1872(a5)
0x80019bcc: 80 00 07 37 lui	a4, 524288
0x80019bd0: ff f7 47 13 xori	a4, a4, -1
0x80019bd4: 74 e7 aa 23 sw	a4, 1876(a5)
0x80019bd8: 75 07 a6 83 lw	a3, 1872(a5)
0x80019bdc: 75 47 a7 03 lw	a4, 1876(a5)
0x80019be0: 02 e6 c7 33 div	a4, a3, a4
0x80019be4: 08 07 02 63 beq	a4, zero, 0x80019c68
0x80019c68: 00 00 57 37 lui	a4, 5
0x80019c6c: ff ff e7 b7 lui	a5, 1048574
0x80019c70: 19 07 07 13 addi	a4, a4, 400
0x80019c74: 00 f7 07 33 add	a4, a4, a5
0x80019c78: 01 01 07 93 addi	a5, sp, 16
0x80019c7c: 00 f7 07 b3 add	a5, a4, a5
0x80019c80: 00 20 07 13 addi	a4, zero, 2
0x80019c84: 74 e7 ac 23 sw	a4, 1880(a5)
0x80019c88: 74 e7 ae 23 sw	a4, 1884(a5)
0x80019c8c: 75 87 a6 03 lw	a2, 1880(a5)
0x80019c90: 75 c7 a6 83 lw	a3, 1884(a5)
0x80019c94: 00 10 07 13 addi	a4, zero, 1
0x80019c98: 02 d6 46 b3 div	a3, a2, a3
0x80019c9c: 08 e6 80 63 beq	a3, a4, 0x80019d1c
0x80019d1c: 00 00 57 37 lui	a4, 5
0x80019d20: ff ff e7 b7 lui	a5, 1048574
0x80019d24: 19 07 07 13 addi	a4, a4, 400
0x80019d28: 00 f7 07 33 add	a4, a4, a5
0x80019d2c: 01 01 07 93 addi	a5, sp, 16
0x80019d30: 00 f7 07 b3 add	a5, a4, a5
0x80019d34: 00 20 07 13 addi	a4, zero, 2
0x80019d38: 76 e7 a0 23 sw	a4, 1888(a5)
0x80019d3c: 80 00 07 37 lui	a4, 524288
0x80019d40: ff e7 47 13 xori	a4, a4, -2
0x80019d44: 76 e7 a2 23 sw	a4, 1892(a5)
0x80019d48: 76 07 a6 83 lw	a3, 1888(a5)
0x80019d4c: 76 47 a7 03 lw	a4, 1892(a5)
0x80019d50: 02 e6 c7 33 div	a4, a3, a4
0x80019d54: 08 07 02 63 beq	a4, zero, 0x80019dd8
0x80019dd8: 00 00 57 37 lui	a4, 5
0x80019ddc: ff ff e7 b7 lui	a5, 1048574
0x80019de0: 19 07 07 13 addi	a4, a4, 400
0x80019de4: 00 f7 07 33 add	a4, a4, a5
0x80019de8: 01 01 07 93 addi	a5, sp, 16
0x80019dec: 00 f7 07 b3 add	a5, a4, a5
0x80019df0: 00 20 07 13 addi	a4, zero, 2
0x80019df4: 76 e7 a4 23 sw	a4, 1896(a5)
0x80019df8: 80 00 07 37 lui	a4, 524288
0x80019dfc: ff f7 47 13 xori	a4, a4, -1
0x80019e00: 76 e7 a6 23 sw	a4, 1900(a5)
0x80019e04: 76 87 a6 83 lw	a3, 1896(a5)
0x80019e08: 76 c7 a7 03 lw	a4, 1900(a5)
0x80019e0c: 02 e6 c7 33 div	a4, a3, a4
0x80019e10: 08 07 02 63 beq	a4, zero, 0x80019e94
0x80019e94: 00 00 57 37 lui	a4, 5
0x80019e98: ff ff e7 b7 lui	a5, 1048574
0x80019e9c: 19 07 07 13 addi	a4, a4, 400
0x80019ea0: 00 f7 07 33 add	a4, a4, a5
0x80019ea4: 01 01 07 93 addi	a5, sp, 16
0x80019ea8: 00 f7 07 b3 add	a5, a4, a5
0x80019eac: 80 00 07 37 lui	a4, 524288
0x80019eb0: ff e7 47 13 xori	a4, a4, -2
0x80019eb4: 76 e7 a8 23 sw	a4, 1904(a5)
0x80019eb8: 76 e7 aa 23 sw	a4, 1908(a5)
0x80019ebc: 77 07 a6 03 lw	a2, 1904(a5)
0x80019ec0: 77 47 a6 83 lw	a3, 1908(a5)
0x80019ec4: 00 10 07 13 addi	a4, zero, 1
0x80019ec8: 02 d6 46 b3 div	a3, a2, a3
0x80019ecc: 08 e6 82 63 beq	a3, a4, 0x80019f50
0x80019f50: 00 00 56 b7 lui	a3, 5
0x80019f54: ff ff e7 b7 lui	a5, 1048574
0x80019f58: 19 06 86 93 addi	a3, a3, 400
0x80019f5c: 00 f6 86 b3 add	a3, a3, a5
0x80019f60: 80 00 07 37 lui	a4, 524288
0x80019f64: 01 01 07 93 addi	a5, sp, 16
0x80019f68: 00 f6 87 b3 add	a5, a3, a5
0x80019f6c: ff e7 46 93 xori	a3, a4, -2
0x80019f70: 76 d7 ac 23 sw	a3, 1912(a5)
0x80019f74: ff f7 47 13 xori	a4, a4, -1
0x80019f78: 76 e7 ae 23 sw	a4, 1916(a5)
0x80019f7c: 77 87 a6 83 lw	a3, 1912(a5)
0x80019f80: 77 c7 a7 03 lw	a4, 1916(a5)
0x80019f84: 02 e6 c7 33 div	a4, a3, a4
0x80019f88: 08 07 02 63 beq	a4, zero, 0x8001a00c
0x8001a00c: 00 00 57 37 lui	a4, 5
0x8001a010: ff ff e7 b7 lui	a5, 1048574
0x8001a014: 19 07 07 13 addi	a4, a4, 400
0x8001a018: 00 f7 07 33 add	a4, a4, a5
0x8001a01c: 01 01 07 93 addi	a5, sp, 16
0x8001a020: 00 f7 07 b3 add	a5, a4, a5
0x8001a024: 80 00 07 37 lui	a4, 524288
0x8001a028: ff f7 47 13 xori	a4, a4, -1
0x8001a02c: 78 e7 a0 23 sw	a4, 1920(a5)
0x8001a030: 78 e7 a2 23 sw	a4, 1924(a5)
0x8001a034: 78 07 a6 03 lw	a2, 1920(a5)
0x8001a038: 78 47 a6 83 lw	a3, 1924(a5)
0x8001a03c: 00 10 07 13 addi	a4, zero, 1
0x8001a040: 02 d6 46 b3 div	a3, a2, a3
0x8001a044: 08 e6 82 63 beq	a3, a4, 0x8001a0c8
0x8001a0c8: 00 00 57 37 lui	a4, 5
0x8001a0cc: ff ff e7 b7 lui	a5, 1048574
0x8001a0d0: 19 07 07 13 addi	a4, a4, 400
0x8001a0d4: 00 f7 07 33 add	a4, a4, a5
0x8001a0d8: 01 01 07 93 addi	a5, sp, 16
0x8001a0dc: 00 f7 07 b3 add	a5, a4, a5
0x8001a0e0: 80 00 07 37 lui	a4, 524288
0x8001a0e4: 78 e7 a4 23 sw	a4, 1928(a5)
0x8001a0e8: 78 e7 a6 23 sw	a4, 1932(a5)
0x8001a0ec: 78 87 a6 83 lw	a3, 1928(a5)
0x8001a0f0: 78 c7 a7 03 lw	a4, 1932(a5)
0x8001a0f4: 02 e6 e7 33 rem	a4, a3, a4
0x8001a0f8: 08 07 00 63 beq	a4, zero, 0x8001a178
0x8001a178: 00 00 57 37 lui	a4, 5
0x8001a17c: ff ff e7 b7 lui	a5, 1048574
0x8001a180: 19 07 07 13 addi	a4, a4, 400
0x8001a184: 00 f7 07 33 add	a4, a4, a5
0x8001a188: 01 01 07 93 addi	a5, sp, 16
0x8001a18c: 00 f7 07 b3 add	a5, a4, a5
0x8001a190: 80 00 07 37 lui	a4, 524288
0x8001a194: 78 e7 a8 23 sw	a4, 1936(a5)
0x8001a198: 00 17 07 13 addi	a4, a4, 1
0x8001a19c: 78 e7 aa 23 sw	a4, 1940(a5)
0x8001a1a0: 79 07 a6 03 lw	a2, 1936(a5)
0x8001a1a4: 79 47 a6 83 lw	a3, 1940(a5)
0x8001a1a8: ff f0 07 13 addi	a4, zero, -1
0x8001a1ac: 02 d6 66 b3 rem	a3, a2, a3
0x8001a1b0: 08 e6 82 63 beq	a3, a4, 0x8001a234
0x8001a234: 00 00 57 37 lui	a4, 5
0x8001a238: ff ff e7 b7 lui	a5, 1048574
0x8001a23c: 19 07 07 13 addi	a4, a4, 400
0x8001a240: 00 f7 07 33 add	a4, a4, a5
0x8001a244: 01 01 07 93 addi	a5, sp, 16
0x8001a248: 00 f7 07 b3 add	a5, a4, a5
0x8001a24c: 80 00 07 37 lui	a4, 524288
0x8001a250: 78 e7 ac 23 sw	a4, 1944(a5)
0x8001a254: ff e0 07 13 addi	a4, zero, -2
0x8001a258: 78 e7 ae 23 sw	a4, 1948(a5)
0x8001a25c: 79 87 a6 83 lw	a3, 1944(a5)
0x8001a260: 79 c7 a7 03 lw	a4, 1948(a5)
0x8001a264: 02 e6 e7 33 rem	a4, a3, a4
0x8001a268: 08 07 00 63 beq	a4, zero, 0x8001a2e8
0x8001a2e8: 00 00 57 37 lui	a4, 5
0x8001a2ec: ff ff e7 b7 lui	a5, 1048574
0x8001a2f0: 19 07 07 13 addi	a4, a4, 400
0x8001a2f4: 00 f7 07 33 add	a4, a4, a5
0x8001a2f8: 01 01 07 93 addi	a5, sp, 16
0x8001a2fc: 00 f7 07 b3 add	a5, a4, a5
0x8001a300: 80 00 07 37 lui	a4, 524288
0x8001a304: 7a e7 a0 23 sw	a4, 1952(a5)
0x8001a308: 00 10 07 13 addi	a4, zero, 1
0x8001a30c: 7a e7 a2 23 sw	a4, 1956(a5)
0x8001a310: 7a 07 a6 83 lw	a3, 1952(a5)
0x8001a314: 7a 47 a7 03 lw	a4, 1956(a5)
0x8001a318: 02 e6 e7 33 rem	a4, a3, a4
0x8001a31c: 08 07 00 63 beq	a4, zero, 0x8001a39c
0x8001a39c: 00 00 57 37 lui	a4, 5
0x8001a3a0: ff ff e7 b7 lui	a5, 1048574
0x8001a3a4: 19 07 07 13 addi	a4, a4, 400
0x8001a3a8: 00 f7 07 33 add	a4, a4, a5
0x8001a3ac: 01 01 07 93 addi	a5, sp, 16
0x8001a3b0: 00 f7 07 b3 add	a5, a4, a5
0x8001a3b4: 80 00 07 37 lui	a4, 524288
0x8001a3b8: 7a e7 a4 23 sw	a4, 1960(a5)
0x8001a3bc: 00 20 07 13 addi	a4, zero, 2
0x8001a3c0: 7a e7 a6 23 sw	a4, 1964(a5)
0x8001a3c4: 7a 87 a6 83 lw	a3, 1960(a5)
0x8001a3c8: 7a c7 a7 03 lw	a4, 1964(a5)
0x8001a3cc: 02 e6 e7 33 rem	a4, a3, a4
0x8001a3d0: 08 07 00 63 beq	a4, zero, 0x8001a450
0x8001a450: 00 00 57 37 lui	a4, 5
0x8001a454: ff ff e7 b7 lui	a5, 1048574
0x8001a458: 19 07 07 13 addi	a4, a4, 400
0x8001a45c: 00 f7 07 33 add	a4, a4, a5
0x8001a460: 01 01 07 93 addi	a5, sp, 16
0x8001a464: 00 f7 07 b3 add	a5, a4, a5
0x8001a468: 80 00 07 37 lui	a4, 524288
0x8001a46c: 7a e7 a8 23 sw	a4, 1968(a5)
0x8001a470: ff e7 47 13 xori	a4, a4, -2
0x8001a474: 7a e7 aa 23 sw	a4, 1972(a5)
0x8001a478: 7b 07 a6 03 lw	a2, 1968(a5)
0x8001a47c: 7b 47 a6 83 lw	a3, 1972(a5)
0x8001a480: ff e0 07 13 addi	a4, zero, -2
0x8001a484: 02 d6 66 b3 rem	a3, a2, a3
0x8001a488: 08 e6 82 63 beq	a3, a4, 0x8001a50c
0x8001a50c: 00 00 57 37 lui	a4, 5
0x8001a510: ff ff e7 b7 lui	a5, 1048574
0x8001a514: 19 07 07 13 addi	a4, a4, 400
0x8001a518: 00 f7 07 33 add	a4, a4, a5
0x8001a51c: 01 01 07 93 addi	a5, sp, 16
0x8001a520: 00 f7 07 b3 add	a5, a4, a5
0x8001a524: 80 00 07 37 lui	a4, 524288
0x8001a528: 7a e7 ac 23 sw	a4, 1976(a5)
0x8001a52c: ff f7 47 13 xori	a4, a4, -1
0x8001a530: 7a e7 ae 23 sw	a4, 1980(a5)
0x8001a534: 7b 87 a6 03 lw	a2, 1976(a5)
0x8001a538: 7b c7 a6 83 lw	a3, 1980(a5)
0x8001a53c: ff f0 07 13 addi	a4, zero, -1
0x8001a540: 02 d6 66 b3 rem	a3, a2, a3
0x8001a544: 08 e6 82 63 beq	a3, a4, 0x8001a5c8
0x8001a5c8: 00 00 57 37 lui	a4, 5
0x8001a5cc: ff ff e7 b7 lui	a5, 1048574
0x8001a5d0: 19 07 07 13 addi	a4, a4, 400
0x8001a5d4: 00 f7 07 33 add	a4, a4, a5
0x8001a5d8: 01 01 07 93 addi	a5, sp, 16
0x8001a5dc: 00 f7 07 b3 add	a5, a4, a5
0x8001a5e0: 80 00 07 37 lui	a4, 524288
0x8001a5e4: 00 17 07 13 addi	a4, a4, 1
0x8001a5e8: 7c e7 a0 23 sw	a4, 1984(a5)
0x8001a5ec: 7c e7 a2 23 sw	a4, 1988(a5)
0x8001a5f0: 7c 07 a6 83 lw	a3, 1984(a5)
0x8001a5f4: 7c 47 a7 03 lw	a4, 1988(a5)
0x8001a5f8: 02 e6 e7 33 rem	a4, a3, a4
0x8001a5fc: 08 07 02 63 beq	a4, zero, 0x8001a680
0x8001a680: 00 00 57 37 lui	a4, 5
0x8001a684: ff ff e7 b7 lui	a5, 1048574
0x8001a688: 19 07 07 13 addi	a4, a4, 400
0x8001a68c: 00 f7 07 33 add	a4, a4, a5
0x8001a690: 01 01 07 93 addi	a5, sp, 16
0x8001a694: 00 f7 07 b3 add	a5, a4, a5
0x8001a698: 80 00 07 37 lui	a4, 524288
0x8001a69c: 00 17 07 13 addi	a4, a4, 1
0x8001a6a0: 7c e7 a4 23 sw	a4, 1992(a5)
0x8001a6a4: ff e0 07 13 addi	a4, zero, -2
0x8001a6a8: 7c e7 a6 23 sw	a4, 1996(a5)
0x8001a6ac: 7c 87 a6 03 lw	a2, 1992(a5)
0x8001a6b0: 7c c7 a6 83 lw	a3, 1996(a5)
0x8001a6b4: ff f0 07 13 addi	a4, zero, -1
0x8001a6b8: 02 d6 66 b3 rem	a3, a2, a3
0x8001a6bc: 08 e6 82 63 beq	a3, a4, 0x8001a740
0x8001a740: 00 00 57 37 lui	a4, 5
0x8001a744: ff ff e7 b7 lui	a5, 1048574
0x8001a748: 19 07 07 13 addi	a4, a4, 400
0x8001a74c: 00 f7 07 33 add	a4, a4, a5
0x8001a750: 01 01 07 93 addi	a5, sp, 16
0x8001a754: 00 f7 07 b3 add	a5, a4, a5
0x8001a758: 80 00 07 37 lui	a4, 524288
0x8001a75c: 00 17 07 13 addi	a4, a4, 1
0x8001a760: 7c e7 a8 23 sw	a4, 2000(a5)
0x8001a764: ff f0 07 13 addi	a4, zero, -1
0x8001a768: 7c e7 aa 23 sw	a4, 2004(a5)
0x8001a76c: 7d 07 a6 83 lw	a3, 2000(a5)
0x8001a770: 7d 47 a7 03 lw	a4, 2004(a5)
0x8001a774: 02 e6 e7 33 rem	a4, a3, a4
0x8001a778: 08 07 02 63 beq	a4, zero, 0x8001a7fc
0x8001a7fc: 00 00 57 37 lui	a4, 5
0x8001a800: ff ff e7 b7 lui	a5, 1048574
0x8001a804: 19 07 07 13 addi	a4, a4, 400
0x8001a808: 00 f7 07 33 add	a4, a4, a5
0x8001a80c: 01 01 07 93 addi	a5, sp, 16
0x8001a810: 00 f7 07 b3 add	a5, a4, a5
0x8001a814: 80 00 07 37 lui	a4, 524288
0x8001a818: 00 17 07 13 addi	a4, a4, 1
0x8001a81c: 7c e7 ac 23 sw	a4, 2008(a5)
0x8001a820: 00 10 07 13 addi	a4, zero, 1
0x8001a824: 7c e7 ae 23 sw	a4, 2012(a5)
0x8001a828: 7d 87 a6 83 lw	a3, 2008(a5)
0x8001a82c: 7d c7 a7 03 lw	a4, 2012(a5)
0x8001a830: 02 e6 e7 33 rem	a4, a3, a4
0x8001a834: 08 07 02 63 beq	a4, zero, 0x8001a8b8
0x8001a8b8: 00 00 57 37 lui	a4, 5
0x8001a8bc: ff ff e7 b7 lui	a5, 1048574
0x8001a8c0: 19 07 07 13 addi	a4, a4, 400
0x8001a8c4: 00 f7 07 33 add	a4, a4, a5
0x8001a8c8: 01 01 07 93 addi	a5, sp, 16
0x8001a8cc: 00 f7 07 b3 add	a5, a4, a5
0x8001a8d0: 80 00 07 37 lui	a4, 524288
0x8001a8d4: 00 17 07 13 addi	a4, a4, 1
0x8001a8d8: 7e e7 a0 23 sw	a4, 2016(a5)
0x8001a8dc: 00 20 07 13 addi	a4, zero, 2
0x8001a8e0: 7e e7 a2 23 sw	a4, 2020(a5)
0x8001a8e4: 7e 07 a6 03 lw	a2, 2016(a5)
0x8001a8e8: 7e 47 a6 83 lw	a3, 2020(a5)
0x8001a8ec: ff f0 07 13 addi	a4, zero, -1
0x8001a8f0: 02 d6 66 b3 rem	a3, a2, a3
0x8001a8f4: 08 e6 82 63 beq	a3, a4, 0x8001a978
0x8001a978: 00 00 56 b7 lui	a3, 5
0x8001a97c: ff ff e7 b7 lui	a5, 1048574
0x8001a980: 19 06 86 93 addi	a3, a3, 400
0x8001a984: 00 f6 86 b3 add	a3, a3, a5
0x8001a988: 80 00 07 37 lui	a4, 524288
0x8001a98c: 01 01 07 93 addi	a5, sp, 16
0x8001a990: 00 f6 87 b3 add	a5, a3, a5
0x8001a994: 00 17 06 93 addi	a3, a4, 1
0x8001a998: 7e d7 a4 23 sw	a3, 2024(a5)
0x8001a99c: ff e7 47 13 xori	a4, a4, -2
0x8001a9a0: 7e e7 a6 23 sw	a4, 2028(a5)
0x8001a9a4: 7e 87 a6 03 lw	a2, 2024(a5)
0x8001a9a8: 7e c7 a6 83 lw	a3, 2028(a5)
0x8001a9ac: ff f0 07 13 addi	a4, zero, -1
0x8001a9b0: 02 d6 66 b3 rem	a3, a2, a3
0x8001a9b4: 08 e6 82 63 beq	a3, a4, 0x8001aa38
0x8001aa38: 00 00 56 b7 lui	a3, 5
0x8001aa3c: ff ff e7 b7 lui	a5, 1048574
0x8001aa40: 19 06 86 93 addi	a3, a3, 400
0x8001aa44: 00 f6 86 b3 add	a3, a3, a5
0x8001aa48: 80 00 07 37 lui	a4, 524288
0x8001aa4c: 01 01 07 93 addi	a5, sp, 16
0x8001aa50: 00 f6 87 b3 add	a5, a3, a5
0x8001aa54: 00 17 06 93 addi	a3, a4, 1
0x8001aa58: 7e d7 a8 23 sw	a3, 2032(a5)
0x8001aa5c: ff f7 47 13 xori	a4, a4, -1
0x8001aa60: 7e e7 aa 23 sw	a4, 2036(a5)
0x8001aa64: 7f 07 a6 83 lw	a3, 2032(a5)
0x8001aa68: 7f 47 a7 03 lw	a4, 2036(a5)
0x8001aa6c: 02 e6 e7 33 rem	a4, a3, a4
0x8001aa70: 08 07 02 63 beq	a4, zero, 0x8001aaf4
0x8001aaf4: 00 00 57 37 lui	a4, 5
0x8001aaf8: ff ff e7 b7 lui	a5, 1048574
0x8001aafc: 19 07 07 13 addi	a4, a4, 400
0x8001ab00: 00 f7 07 33 add	a4, a4, a5
0x8001ab04: 01 01 07 93 addi	a5, sp, 16
