
/home/rookiemaster/ics2023/am-kernels/tests/cpu-tests/build/string-riscv32-nemu.elf:     file format elf32-littleriscv


Disassembly of section .text:

80000000 <_start>:
80000000:	00000413          	li	s0,0
80000004:	00009117          	auipc	sp,0x9
80000008:	ffc10113          	addi	sp,sp,-4 # 80009000 <_end>
8000000c:	128000ef          	jal	ra,80000134 <_trm_init>

80000010 <check>:
80000010:	00050463          	beqz	a0,80000018 <check+0x8>
80000014:	00008067          	ret
80000018:	ff010113          	addi	sp,sp,-16
8000001c:	00100513          	li	a0,1
80000020:	00112623          	sw	ra,12(sp)
80000024:	104000ef          	jal	ra,80000128 <halt>

80000028 <main>:
80000028:	ff010113          	addi	sp,sp,-16
8000002c:	00812423          	sw	s0,8(sp)
80000030:	00000417          	auipc	s0,0x0
80000034:	2b840413          	addi	s0,s0,696 # 800002e8 <s>
80000038:	00842583          	lw	a1,8(s0)
8000003c:	00042503          	lw	a0,0(s0)
80000040:	00112623          	sw	ra,12(sp)
80000044:	00912223          	sw	s1,4(sp)
80000048:	180000ef          	jal	ra,800001c8 <strcmp>
8000004c:	00153513          	seqz	a0,a0
80000050:	fc1ff0ef          	jal	ra,80000010 <check>
80000054:	00442583          	lw	a1,4(s0)
80000058:	00042503          	lw	a0,0(s0)
8000005c:	00000497          	auipc	s1,0x0
80000060:	2ac48493          	addi	s1,s1,684 # 80000308 <str>
80000064:	164000ef          	jal	ra,800001c8 <strcmp>
80000068:	01f55513          	srli	a0,a0,0x1f
8000006c:	fa5ff0ef          	jal	ra,80000010 <check>
80000070:	00442583          	lw	a1,4(s0)
80000074:	00042503          	lw	a0,0(s0)
80000078:	00158593          	addi	a1,a1,1
8000007c:	00150513          	addi	a0,a0,1
80000080:	148000ef          	jal	ra,800001c8 <strcmp>
80000084:	01f55513          	srli	a0,a0,0x1f
80000088:	f89ff0ef          	jal	ra,80000010 <check>
8000008c:	00442583          	lw	a1,4(s0)
80000090:	00042503          	lw	a0,0(s0)
80000094:	00258593          	addi	a1,a1,2
80000098:	00250513          	addi	a0,a0,2
8000009c:	12c000ef          	jal	ra,800001c8 <strcmp>
800000a0:	01f55513          	srli	a0,a0,0x1f
800000a4:	f6dff0ef          	jal	ra,80000010 <check>
800000a8:	00442583          	lw	a1,4(s0)
800000ac:	00042503          	lw	a0,0(s0)
800000b0:	00358593          	addi	a1,a1,3
800000b4:	00350513          	addi	a0,a0,3
800000b8:	110000ef          	jal	ra,800001c8 <strcmp>
800000bc:	01f55513          	srli	a0,a0,0x1f
800000c0:	f51ff0ef          	jal	ra,80000010 <check>
800000c4:	00000597          	auipc	a1,0x0
800000c8:	23c58593          	addi	a1,a1,572 # 80000300 <str1>
800000cc:	00048513          	mv	a0,s1
800000d0:	084000ef          	jal	ra,80000154 <strcpy>
800000d4:	00c42583          	lw	a1,12(s0)
800000d8:	0b4000ef          	jal	ra,8000018c <strcat>
800000dc:	01042583          	lw	a1,16(s0)
800000e0:	0e8000ef          	jal	ra,800001c8 <strcmp>
800000e4:	00153513          	seqz	a0,a0
800000e8:	f29ff0ef          	jal	ra,80000010 <check>
800000ec:	00500613          	li	a2,5
800000f0:	02300593          	li	a1,35
800000f4:	00048513          	mv	a0,s1
800000f8:	118000ef          	jal	ra,80000210 <memset>
800000fc:	01442583          	lw	a1,20(s0)
80000100:	00500613          	li	a2,5
80000104:	12c000ef          	jal	ra,80000230 <memcmp>
80000108:	00153513          	seqz	a0,a0
8000010c:	f05ff0ef          	jal	ra,80000010 <check>
80000110:	00c12083          	lw	ra,12(sp)
80000114:	00812403          	lw	s0,8(sp)
80000118:	00412483          	lw	s1,4(sp)
8000011c:	00000513          	li	a0,0
80000120:	01010113          	addi	sp,sp,16
80000124:	00008067          	ret

80000128 <halt>:
80000128:	00050513          	mv	a0,a0
8000012c:	00100073          	ebreak
80000130:	0000006f          	j	80000130 <halt+0x8>

80000134 <_trm_init>:
80000134:	ff010113          	addi	sp,sp,-16
80000138:	00000517          	auipc	a0,0x0
8000013c:	1ac50513          	addi	a0,a0,428 # 800002e4 <mainargs>
80000140:	00112623          	sw	ra,12(sp)
80000144:	ee5ff0ef          	jal	ra,80000028 <main>
80000148:	00050513          	mv	a0,a0
8000014c:	00100073          	ebreak
80000150:	0000006f          	j	80000150 <_trm_init+0x1c>

80000154 <strcpy>:
80000154:	0005c703          	lbu	a4,0(a1)
80000158:	02070463          	beqz	a4,80000180 <strcpy+0x2c>
8000015c:	00000793          	li	a5,0
80000160:	00178793          	addi	a5,a5,1
80000164:	00f506b3          	add	a3,a0,a5
80000168:	fee68fa3          	sb	a4,-1(a3)
8000016c:	00f58733          	add	a4,a1,a5
80000170:	00074703          	lbu	a4,0(a4)
80000174:	fe0716e3          	bnez	a4,80000160 <strcpy+0xc>
80000178:	00068023          	sb	zero,0(a3)
8000017c:	00008067          	ret
80000180:	00050693          	mv	a3,a0
80000184:	00068023          	sb	zero,0(a3)
80000188:	00008067          	ret

8000018c <strcat>:
8000018c:	00054703          	lbu	a4,0(a0)
80000190:	00050793          	mv	a5,a0
80000194:	00070863          	beqz	a4,800001a4 <strcat+0x18>
80000198:	0017c703          	lbu	a4,1(a5)
8000019c:	00178793          	addi	a5,a5,1
800001a0:	fe071ce3          	bnez	a4,80000198 <strcat+0xc>
800001a4:	0005c703          	lbu	a4,0(a1)
800001a8:	00070c63          	beqz	a4,800001c0 <strcat+0x34>
800001ac:	00e78023          	sb	a4,0(a5)
800001b0:	0015c703          	lbu	a4,1(a1)
800001b4:	00178793          	addi	a5,a5,1
800001b8:	00158593          	addi	a1,a1,1
800001bc:	fe0718e3          	bnez	a4,800001ac <strcat+0x20>
800001c0:	00078023          	sb	zero,0(a5)
800001c4:	00008067          	ret

800001c8 <strcmp>:
800001c8:	00054783          	lbu	a5,0(a0)
800001cc:	00050713          	mv	a4,a0
800001d0:	00079c63          	bnez	a5,800001e8 <strcmp+0x20>
800001d4:	0340006f          	j	80000208 <strcmp+0x40>
800001d8:	02d7c463          	blt	a5,a3,80000200 <strcmp+0x38>
800001dc:	00158593          	addi	a1,a1,1
800001e0:	02078263          	beqz	a5,80000204 <strcmp+0x3c>
800001e4:	00074783          	lbu	a5,0(a4)
800001e8:	0005c683          	lbu	a3,0(a1)
800001ec:	00078513          	mv	a0,a5
800001f0:	00170713          	addi	a4,a4,1
800001f4:	fef6d2e3          	bge	a3,a5,800001d8 <strcmp+0x10>
800001f8:	00100513          	li	a0,1
800001fc:	00008067          	ret
80000200:	fff00513          	li	a0,-1
80000204:	00008067          	ret
80000208:	00000513          	li	a0,0
8000020c:	00008067          	ret

80000210 <memset>:
80000210:	0ff5f693          	zext.b	a3,a1
80000214:	00050793          	mv	a5,a0
80000218:	00a58733          	add	a4,a1,a0
8000021c:	00b05863          	blez	a1,8000022c <memset+0x1c>
80000220:	00d78023          	sb	a3,0(a5)
80000224:	00178793          	addi	a5,a5,1
80000228:	fee79ce3          	bne	a5,a4,80000220 <memset+0x10>
8000022c:	00008067          	ret

80000230 <memcmp>:
80000230:	02060863          	beqz	a2,80000260 <memcmp+0x30>
80000234:	00c50633          	add	a2,a0,a2
80000238:	00c0006f          	j	80000244 <memcmp+0x14>
8000023c:	02f76663          	bltu	a4,a5,80000268 <memcmp+0x38>
80000240:	02c50063          	beq	a0,a2,80000260 <memcmp+0x30>
80000244:	00054703          	lbu	a4,0(a0)
80000248:	0005c783          	lbu	a5,0(a1)
8000024c:	00150513          	addi	a0,a0,1
80000250:	00158593          	addi	a1,a1,1
80000254:	fee7f4e3          	bgeu	a5,a4,8000023c <memcmp+0xc>
80000258:	00100513          	li	a0,1
8000025c:	00008067          	ret
80000260:	00000513          	li	a0,0
80000264:	00008067          	ret
80000268:	fff00513          	li	a0,-1
8000026c:	00008067          	ret
