
/home/rookiemaster/ics2023/am-kernels/kernels/bad-apple/build/bad-apple-riscv32-nemu.elf:     file format elf32-littleriscv


Disassembly of section .text:

80000000 <_start>:
80000000:	00000413          	li	s0,0
80000004:	01409117          	auipc	sp,0x1409
80000008:	ffc10113          	addi	sp,sp,-4 # 81409000 <_end>
8000000c:	228000ef          	jal	ra,80000234 <_trm_init>

80000010 <main>:
80000010:	fa010113          	addi	sp,sp,-96
80000014:	04112e23          	sw	ra,92(sp)
80000018:	05212823          	sw	s2,80(sp)
8000001c:	03712e23          	sw	s7,60(sp)
80000020:	04812c23          	sw	s0,88(sp)
80000024:	04912a23          	sw	s1,84(sp)
80000028:	05312623          	sw	s3,76(sp)
8000002c:	05412423          	sw	s4,72(sp)
80000030:	05512223          	sw	s5,68(sp)
80000034:	05612023          	sw	s6,64(sp)
80000038:	03812c23          	sw	s8,56(sp)
8000003c:	03912a23          	sw	s9,52(sp)
80000040:	03a12823          	sw	s10,48(sp)
80000044:	03b12623          	sw	s11,44(sp)
80000048:	2a0000ef          	jal	ra,800002e8 <ioe_init>
8000004c:	00000517          	auipc	a0,0x0
80000050:	42450513          	addi	a0,a0,1060 # 80000470 <_etext>
80000054:	3d8000ef          	jal	ra,8000042c <printf>
80000058:	01010593          	addi	a1,sp,16
8000005c:	00e00513          	li	a0,14
80000060:	2e4000ef          	jal	ra,80000344 <ioe_read>
80000064:	01014b83          	lbu	s7,16(sp)
80000068:	00000913          	li	s2,0
8000006c:	160b9463          	bnez	s7,800001d4 <main+0x1c4>
80000070:	01010593          	addi	a1,sp,16
80000074:	00600513          	li	a0,6
80000078:	00192c97          	auipc	s9,0x192
8000007c:	874c8c93          	addi	s9,s9,-1932 # 801918ec <video_payload_end>
80000080:	00000417          	auipc	s0,0x0
80000084:	48040413          	addi	s0,s0,1152 # 80000500 <video_payload>
80000088:	2bc000ef          	jal	ra,80000344 <ioe_read>
8000008c:	00192a97          	auipc	s5,0x192
80000090:	864a8a93          	addi	s5,s5,-1948 # 801918f0 <audio_payload>
80000094:	01012a03          	lw	s4,16(sp)
80000098:	01412c03          	lw	s8,20(sp)
8000009c:	0d947263          	bgeu	s0,s9,80000160 <main+0x150>
800000a0:	000017b7          	lui	a5,0x1
800000a4:	82078493          	addi	s1,a5,-2016 # 820 <_entry_offset+0x820>
800000a8:	b7b78d13          	addi	s10,a5,-1157
800000ac:	b7c78793          	addi	a5,a5,-1156
800000b0:	00f12423          	sw	a5,8(sp)
800000b4:	000087b7          	lui	a5,0x8
800000b8:	23578793          	addi	a5,a5,565 # 8235 <_entry_offset+0x8235>
800000bc:	00000d97          	auipc	s11,0x0
800000c0:	3bcd8d93          	addi	s11,s11,956 # 80000478 <_etext+0x8>
800000c4:	00f12623          	sw	a5,12(sp)
800000c8:	000d8513          	mv	a0,s11
800000cc:	360000ef          	jal	ra,8000042c <printf>
800000d0:	05000993          	li	s3,80
800000d4:	fb098b13          	addi	s6,s3,-80
800000d8:	403b5793          	srai	a5,s6,0x3
800000dc:	00f407b3          	add	a5,s0,a5
800000e0:	0007c503          	lbu	a0,0(a5)
800000e4:	fffb4793          	not	a5,s6
800000e8:	0077f793          	andi	a5,a5,7
800000ec:	40f55533          	sra	a0,a0,a5
800000f0:	00157513          	andi	a0,a0,1
800000f4:	40a00533          	neg	a0,a0
800000f8:	02a57513          	andi	a0,a0,42
800000fc:	001b0b13          	addi	s6,s6,1
80000100:	02e50513          	addi	a0,a0,46
80000104:	118000ef          	jal	ra,8000021c <putch>
80000108:	fd6998e3          	bne	s3,s6,800000d8 <main+0xc8>
8000010c:	05098993          	addi	s3,s3,80
80000110:	00a00513          	li	a0,10
80000114:	108000ef          	jal	ra,8000021c <putch>
80000118:	fa999ee3          	bne	s3,s1,800000d4 <main+0xc4>
8000011c:	080b9263          	bnez	s7,800001a0 <main+0x190>
80000120:	00c12783          	lw	a5,12(sp)
80000124:	00fa0b33          	add	s6,s4,a5
80000128:	014b3a33          	sltu	s4,s6,s4
8000012c:	018a09b3          	add	s3,s4,s8
80000130:	00098c13          	mv	s8,s3
80000134:	000b0a13          	mv	s4,s6
80000138:	01010593          	addi	a1,sp,16
8000013c:	00600513          	li	a0,6
80000140:	204000ef          	jal	ra,80000344 <ioe_read>
80000144:	01412783          	lw	a5,20(sp)
80000148:	01012703          	lw	a4,16(sp)
8000014c:	ff37e6e3          	bltu	a5,s3,80000138 <main+0x128>
80000150:	00f99463          	bne	s3,a5,80000158 <main+0x148>
80000154:	ff6762e3          	bltu	a4,s6,80000138 <main+0x128>
80000158:	0fa40413          	addi	s0,s0,250
8000015c:	f79466e3          	bltu	s0,s9,800000c8 <main+0xb8>
80000160:	05c12083          	lw	ra,92(sp)
80000164:	05812403          	lw	s0,88(sp)
80000168:	05412483          	lw	s1,84(sp)
8000016c:	05012903          	lw	s2,80(sp)
80000170:	04c12983          	lw	s3,76(sp)
80000174:	04812a03          	lw	s4,72(sp)
80000178:	04412a83          	lw	s5,68(sp)
8000017c:	04012b03          	lw	s6,64(sp)
80000180:	03c12b83          	lw	s7,60(sp)
80000184:	03812c03          	lw	s8,56(sp)
80000188:	03412c83          	lw	s9,52(sp)
8000018c:	03012d03          	lw	s10,48(sp)
80000190:	02c12d83          	lw	s11,44(sp)
80000194:	00000513          	li	a0,0
80000198:	06010113          	addi	sp,sp,96
8000019c:	00008067          	ret
800001a0:	032d4663          	blt	s10,s2,800001cc <main+0x1bc>
800001a4:	00090793          	mv	a5,s2
800001a8:	07205663          	blez	s2,80000214 <main+0x204>
800001ac:	00fa87b3          	add	a5,s5,a5
800001b0:	01010593          	addi	a1,sp,16
800001b4:	01100513          	li	a0,17
800001b8:	01512823          	sw	s5,16(sp)
800001bc:	00f12a23          	sw	a5,20(sp)
800001c0:	00078a93          	mv	s5,a5
800001c4:	19c000ef          	jal	ra,80000360 <ioe_write>
800001c8:	f59ff06f          	j	80000120 <main+0x110>
800001cc:	00812783          	lw	a5,8(sp)
800001d0:	fddff06f          	j	800001ac <main+0x19c>
800001d4:	0000b7b7          	lui	a5,0xb
800001d8:	c4478793          	addi	a5,a5,-956 # ac44 <_entry_offset+0xac44>
800001dc:	00f12823          	sw	a5,16(sp)
800001e0:	00100793          	li	a5,1
800001e4:	00f12a23          	sw	a5,20(sp)
800001e8:	01010593          	addi	a1,sp,16
800001ec:	40000793          	li	a5,1024
800001f0:	00f00513          	li	a0,15
800001f4:	00f12c23          	sw	a5,24(sp)
800001f8:	168000ef          	jal	ra,80000360 <ioe_write>
800001fc:	01400917          	auipc	s2,0x1400
80000200:	6f490913          	addi	s2,s2,1780 # 814008f0 <lut>
80000204:	00191797          	auipc	a5,0x191
80000208:	6ec78793          	addi	a5,a5,1772 # 801918f0 <audio_payload>
8000020c:	40f90933          	sub	s2,s2,a5
80000210:	e61ff06f          	j	80000070 <main+0x60>
80000214:	00000913          	li	s2,0
80000218:	f09ff06f          	j	80000120 <main+0x110>

8000021c <putch>:
8000021c:	a00007b7          	lui	a5,0xa0000
80000220:	3ea78c23          	sb	a0,1016(a5) # a00003f8 <_end+0x1ebf73f8>
80000224:	00008067          	ret

80000228 <halt>:
80000228:	00050513          	mv	a0,a0
8000022c:	00100073          	ebreak
80000230:	0000006f          	j	80000230 <halt+0x8>

80000234 <_trm_init>:
80000234:	ff010113          	addi	sp,sp,-16
80000238:	00000517          	auipc	a0,0x0
8000023c:	2c050513          	addi	a0,a0,704 # 800004f8 <mainargs>
80000240:	00112623          	sw	ra,12(sp)
80000244:	dcdff0ef          	jal	ra,80000010 <main>
80000248:	00050513          	mv	a0,a0
8000024c:	00100073          	ebreak
80000250:	0000006f          	j	80000250 <_trm_init+0x1c>

80000254 <__am_timer_config>:
80000254:	00100793          	li	a5,1
80000258:	00f50023          	sb	a5,0(a0)
8000025c:	00f500a3          	sb	a5,1(a0)
80000260:	00008067          	ret

80000264 <__am_input_config>:
80000264:	00100793          	li	a5,1
80000268:	00f50023          	sb	a5,0(a0)
8000026c:	00008067          	ret

80000270 <__am_uart_config>:
80000270:	00050023          	sb	zero,0(a0)
80000274:	00008067          	ret

80000278 <__am_net_config>:
80000278:	00050023          	sb	zero,0(a0)
8000027c:	00008067          	ret

80000280 <fail>:
80000280:	ff010113          	addi	sp,sp,-16
80000284:	00812423          	sw	s0,8(sp)
80000288:	00112623          	sw	ra,12(sp)
8000028c:	00000417          	auipc	s0,0x0
80000290:	1f440413          	addi	s0,s0,500 # 80000480 <_etext+0x10>
80000294:	04100513          	li	a0,65
80000298:	00140413          	addi	s0,s0,1
8000029c:	f81ff0ef          	jal	ra,8000021c <putch>
800002a0:	00044503          	lbu	a0,0(s0)
800002a4:	fe051ae3          	bnez	a0,80000298 <fail+0x18>
800002a8:	00000417          	auipc	s0,0x0
800002ac:	1e440413          	addi	s0,s0,484 # 8000048c <_etext+0x1c>
800002b0:	06100513          	li	a0,97
800002b4:	00140413          	addi	s0,s0,1
800002b8:	f65ff0ef          	jal	ra,8000021c <putch>
800002bc:	00044503          	lbu	a0,0(s0)
800002c0:	fe051ae3          	bnez	a0,800002b4 <fail+0x34>
800002c4:	00000417          	auipc	s0,0x0
800002c8:	1e440413          	addi	s0,s0,484 # 800004a8 <_etext+0x38>
800002cc:	02000513          	li	a0,32
800002d0:	00140413          	addi	s0,s0,1
800002d4:	f49ff0ef          	jal	ra,8000021c <putch>
800002d8:	00044503          	lbu	a0,0(s0)
800002dc:	fe051ae3          	bnez	a0,800002d0 <fail+0x50>
800002e0:	00100513          	li	a0,1
800002e4:	f45ff0ef          	jal	ra,80000228 <halt>

800002e8 <ioe_init>:
800002e8:	ff010113          	addi	sp,sp,-16
800002ec:	00112623          	sw	ra,12(sp)
800002f0:	01400797          	auipc	a5,0x1400
800002f4:	60078793          	addi	a5,a5,1536 # 814008f0 <lut>
800002f8:	01400697          	auipc	a3,0x1400
800002fc:	7f868693          	addi	a3,a3,2040 # 81400af0 <_bss_start>
80000300:	00000617          	auipc	a2,0x0
80000304:	f8060613          	addi	a2,a2,-128 # 80000280 <fail>
80000308:	00c0006f          	j	80000314 <ioe_init+0x2c>
8000030c:	00478793          	addi	a5,a5,4
80000310:	00d78c63          	beq	a5,a3,80000328 <ioe_init+0x40>
80000314:	0007a703          	lw	a4,0(a5)
80000318:	fe071ae3          	bnez	a4,8000030c <ioe_init+0x24>
8000031c:	00c7a023          	sw	a2,0(a5)
80000320:	00478793          	addi	a5,a5,4
80000324:	fed798e3          	bne	a5,a3,80000314 <ioe_init+0x2c>
80000328:	098000ef          	jal	ra,800003c0 <__am_gpu_init>
8000032c:	050000ef          	jal	ra,8000037c <__am_timer_init>
80000330:	0d0000ef          	jal	ra,80000400 <__am_audio_init>
80000334:	00c12083          	lw	ra,12(sp)
80000338:	00100513          	li	a0,1
8000033c:	01010113          	addi	sp,sp,16
80000340:	00008067          	ret

80000344 <ioe_read>:
80000344:	00251513          	slli	a0,a0,0x2
80000348:	01400797          	auipc	a5,0x1400
8000034c:	5a878793          	addi	a5,a5,1448 # 814008f0 <lut>
80000350:	00a787b3          	add	a5,a5,a0
80000354:	0007a783          	lw	a5,0(a5)
80000358:	00058513          	mv	a0,a1
8000035c:	00078067          	jr	a5

80000360 <ioe_write>:
80000360:	00251513          	slli	a0,a0,0x2
80000364:	01400797          	auipc	a5,0x1400
80000368:	58c78793          	addi	a5,a5,1420 # 814008f0 <lut>
8000036c:	00a787b3          	add	a5,a5,a0
80000370:	0007a783          	lw	a5,0(a5)
80000374:	00058513          	mv	a0,a1
80000378:	00078067          	jr	a5

8000037c <__am_timer_init>:
8000037c:	00008067          	ret

80000380 <__am_timer_uptime>:
80000380:	00000793          	li	a5,0
80000384:	00000813          	li	a6,0
80000388:	00f52023          	sw	a5,0(a0)
8000038c:	01052223          	sw	a6,4(a0)
80000390:	00008067          	ret

80000394 <__am_timer_rtc>:
80000394:	76c00793          	li	a5,1900
80000398:	00052a23          	sw	zero,20(a0)
8000039c:	00052823          	sw	zero,16(a0)
800003a0:	00052623          	sw	zero,12(a0)
800003a4:	00052423          	sw	zero,8(a0)
800003a8:	00052223          	sw	zero,4(a0)
800003ac:	00f52023          	sw	a5,0(a0)
800003b0:	00008067          	ret

800003b4 <__am_input_keybrd>:
800003b4:	00050023          	sb	zero,0(a0)
800003b8:	00052223          	sw	zero,4(a0)
800003bc:	00008067          	ret

800003c0 <__am_gpu_init>:
800003c0:	00008067          	ret

800003c4 <__am_gpu_config>:
800003c4:	00100793          	li	a5,1
800003c8:	00f51023          	sh	a5,0(a0)
800003cc:	00052223          	sw	zero,4(a0)
800003d0:	00052423          	sw	zero,8(a0)
800003d4:	00052623          	sw	zero,12(a0)
800003d8:	00008067          	ret

800003dc <__am_gpu_fbdraw>:
800003dc:	01454783          	lbu	a5,20(a0)
800003e0:	00078863          	beqz	a5,800003f0 <__am_gpu_fbdraw+0x14>
800003e4:	a00007b7          	lui	a5,0xa0000
800003e8:	00100713          	li	a4,1
800003ec:	10e7a223          	sw	a4,260(a5) # a0000104 <_end+0x1ebf7104>
800003f0:	00008067          	ret

800003f4 <__am_gpu_status>:
800003f4:	00100793          	li	a5,1
800003f8:	00f50023          	sb	a5,0(a0)
800003fc:	00008067          	ret

80000400 <__am_audio_init>:
80000400:	00008067          	ret

80000404 <__am_audio_config>:
80000404:	00050023          	sb	zero,0(a0)
80000408:	00008067          	ret

8000040c <__am_audio_ctrl>:
8000040c:	00008067          	ret

80000410 <__am_audio_status>:
80000410:	00052023          	sw	zero,0(a0)
80000414:	00008067          	ret

80000418 <__am_audio_play>:
80000418:	00008067          	ret

8000041c <__am_disk_config>:
8000041c:	00050023          	sb	zero,0(a0)
80000420:	00008067          	ret

80000424 <__am_disk_status>:
80000424:	00008067          	ret

80000428 <__am_disk_blkio>:
80000428:	00008067          	ret

8000042c <printf>:
8000042c:	fd010113          	addi	sp,sp,-48
80000430:	06100513          	li	a0,97
80000434:	00112623          	sw	ra,12(sp)
80000438:	00b12a23          	sw	a1,20(sp)
8000043c:	00c12c23          	sw	a2,24(sp)
80000440:	00d12e23          	sw	a3,28(sp)
80000444:	02e12023          	sw	a4,32(sp)
80000448:	02f12223          	sw	a5,36(sp)
8000044c:	03012423          	sw	a6,40(sp)
80000450:	03112623          	sw	a7,44(sp)
80000454:	dc9ff0ef          	jal	ra,8000021c <putch>
80000458:	00a00513          	li	a0,10
8000045c:	dc1ff0ef          	jal	ra,8000021c <putch>
80000460:	00c12083          	lw	ra,12(sp)
80000464:	00000513          	li	a0,0
80000468:	03010113          	addi	sp,sp,48
8000046c:	00008067          	ret
